---
triple:          'arm64-apple-darwin'
binary-path:     '/Users/dobbikov/Desktop/coding/projects/typst-syntax-py/target/debug/deps/lib_typst_syntax.dylib'
relocations:
  - { offset: 0x1E, size: 0x8, addend: 0x0, symName: '__ZN71_$LT$alloc..borrow..Cow$LT$B$GT$$u20$as$u20$core..ops..deref..Deref$GT$5deref17h25ce071a67c1f1c6E', symObjAddr: 0x0, symBinAddr: 0x890, symSize: 0x78 }
  - { offset: 0x3A, size: 0x8, addend: 0x0, symName: '__ZN71_$LT$alloc..borrow..Cow$LT$B$GT$$u20$as$u20$core..ops..deref..Deref$GT$5deref17h25ce071a67c1f1c6E', symObjAddr: 0x0, symBinAddr: 0x890, symSize: 0x78 }
  - { offset: 0x208, size: 0x8, addend: 0x0, symName: '__ZN12typst_syntax3ast48_$LT$impl$u20$typst_syntax..node..SyntaxNode$GT$4cast17h006af8851a77b539E', symObjAddr: 0x0, symBinAddr: 0x908, symSize: 0x24 }
  - { offset: 0x3178, size: 0x8, addend: 0x0, symName: '__ZN42_$LT$$RF$T$u20$as$u20$core..fmt..Debug$GT$3fmt17h8669fdf5ac4fef76E', symObjAddr: 0x678, symBinAddr: 0xF80, symSize: 0x30 }
  - { offset: 0x3430, size: 0x8, addend: 0x0, symName: __ZN4core4iter6traits8iterator8Iterator7collect17h94e81593e48b1b61E, symObjAddr: 0x6A8, symBinAddr: 0xFB0, symSize: 0x74 }
  - { offset: 0x350A, size: 0x8, addend: 0x0, symName: '__ZN4core5slice29_$LT$impl$u20$$u5b$T$u5d$$GT$4iter17h5e559ed73555b484E', symObjAddr: 0x71C, symBinAddr: 0x1024, symSize: 0x28 }
  - { offset: 0x3541, size: 0x8, addend: 0x0, symName: '__ZN4core5slice29_$LT$impl$u20$$u5b$T$u5d$$GT$4iter17hec453f9943a4cd2eE', symObjAddr: 0x744, symBinAddr: 0x104C, symSize: 0x28 }
  - { offset: 0x3906, size: 0x8, addend: 0x0, symName: '__ZN12typst_syntax3ast48_$LT$impl$u20$typst_syntax..node..SyntaxNode$GT$4cast17h006af8851a77b539E', symObjAddr: 0x0, symBinAddr: 0x908, symSize: 0x24 }
  - { offset: 0x3931, size: 0x8, addend: 0x0, symName: '__ZN12typst_syntax3ast48_$LT$impl$u20$typst_syntax..node..SyntaxNode$GT$4cast17h12762c0e315f380aE', symObjAddr: 0x24, symBinAddr: 0x92C, symSize: 0x24 }
  - { offset: 0x395C, size: 0x8, addend: 0x0, symName: '__ZN12typst_syntax3ast48_$LT$impl$u20$typst_syntax..node..SyntaxNode$GT$4cast17h13c874721e0c01f0E', symObjAddr: 0x48, symBinAddr: 0x950, symSize: 0x24 }
  - { offset: 0x3987, size: 0x8, addend: 0x0, symName: '__ZN12typst_syntax3ast48_$LT$impl$u20$typst_syntax..node..SyntaxNode$GT$4cast17h19cb7dc2c66356c0E', symObjAddr: 0x6C, symBinAddr: 0x974, symSize: 0x24 }
  - { offset: 0x39B2, size: 0x8, addend: 0x0, symName: '__ZN12typst_syntax3ast48_$LT$impl$u20$typst_syntax..node..SyntaxNode$GT$4cast17h1e891709dbbd452eE', symObjAddr: 0x90, symBinAddr: 0x998, symSize: 0x24 }
  - { offset: 0x39DD, size: 0x8, addend: 0x0, symName: '__ZN12typst_syntax3ast48_$LT$impl$u20$typst_syntax..node..SyntaxNode$GT$4cast17h20f0cdad2d63c89cE', symObjAddr: 0xB4, symBinAddr: 0x9BC, symSize: 0x24 }
  - { offset: 0x3A08, size: 0x8, addend: 0x0, symName: '__ZN12typst_syntax3ast48_$LT$impl$u20$typst_syntax..node..SyntaxNode$GT$4cast17h2e129e64a81b9dafE', symObjAddr: 0xD8, symBinAddr: 0x9E0, symSize: 0x24 }
  - { offset: 0x3A33, size: 0x8, addend: 0x0, symName: '__ZN12typst_syntax3ast48_$LT$impl$u20$typst_syntax..node..SyntaxNode$GT$4cast17h2f788522676c112fE', symObjAddr: 0xFC, symBinAddr: 0xA04, symSize: 0x24 }
  - { offset: 0x3A5E, size: 0x8, addend: 0x0, symName: '__ZN12typst_syntax3ast48_$LT$impl$u20$typst_syntax..node..SyntaxNode$GT$4cast17h30b5768a5d0d6be2E', symObjAddr: 0x120, symBinAddr: 0xA28, symSize: 0x24 }
  - { offset: 0x3A89, size: 0x8, addend: 0x0, symName: '__ZN12typst_syntax3ast48_$LT$impl$u20$typst_syntax..node..SyntaxNode$GT$4cast17h333f92eef4f8e1aaE', symObjAddr: 0x144, symBinAddr: 0xA4C, symSize: 0x24 }
  - { offset: 0x3AB4, size: 0x8, addend: 0x0, symName: '__ZN12typst_syntax3ast48_$LT$impl$u20$typst_syntax..node..SyntaxNode$GT$4cast17h38f8a09602a9baa1E', symObjAddr: 0x168, symBinAddr: 0xA70, symSize: 0x24 }
  - { offset: 0x3ADF, size: 0x8, addend: 0x0, symName: '__ZN12typst_syntax3ast48_$LT$impl$u20$typst_syntax..node..SyntaxNode$GT$4cast17h41fcb086f26c97ffE', symObjAddr: 0x18C, symBinAddr: 0xA94, symSize: 0x24 }
  - { offset: 0x3B0A, size: 0x8, addend: 0x0, symName: '__ZN12typst_syntax3ast48_$LT$impl$u20$typst_syntax..node..SyntaxNode$GT$4cast17h49f591c6b67f677cE', symObjAddr: 0x1B0, symBinAddr: 0xAB8, symSize: 0x24 }
  - { offset: 0x3B35, size: 0x8, addend: 0x0, symName: '__ZN12typst_syntax3ast48_$LT$impl$u20$typst_syntax..node..SyntaxNode$GT$4cast17h4c9e42b16baf88c9E', symObjAddr: 0x1D4, symBinAddr: 0xADC, symSize: 0x24 }
  - { offset: 0x3B60, size: 0x8, addend: 0x0, symName: '__ZN12typst_syntax3ast48_$LT$impl$u20$typst_syntax..node..SyntaxNode$GT$4cast17h51476b7825316c08E', symObjAddr: 0x1F8, symBinAddr: 0xB00, symSize: 0x24 }
  - { offset: 0x3B8B, size: 0x8, addend: 0x0, symName: '__ZN12typst_syntax3ast48_$LT$impl$u20$typst_syntax..node..SyntaxNode$GT$4cast17h5383d9f933f9e38aE', symObjAddr: 0x21C, symBinAddr: 0xB24, symSize: 0x24 }
  - { offset: 0x3BB6, size: 0x8, addend: 0x0, symName: '__ZN12typst_syntax3ast48_$LT$impl$u20$typst_syntax..node..SyntaxNode$GT$4cast17h579bac0217aad3b2E', symObjAddr: 0x240, symBinAddr: 0xB48, symSize: 0x24 }
  - { offset: 0x3BE1, size: 0x8, addend: 0x0, symName: '__ZN12typst_syntax3ast48_$LT$impl$u20$typst_syntax..node..SyntaxNode$GT$4cast17h63f70f103041c143E', symObjAddr: 0x264, symBinAddr: 0xB6C, symSize: 0x24 }
  - { offset: 0x3C0C, size: 0x8, addend: 0x0, symName: '__ZN12typst_syntax3ast48_$LT$impl$u20$typst_syntax..node..SyntaxNode$GT$4cast17h7438e4b2379e975bE', symObjAddr: 0x288, symBinAddr: 0xB90, symSize: 0x24 }
  - { offset: 0x3C37, size: 0x8, addend: 0x0, symName: '__ZN12typst_syntax3ast48_$LT$impl$u20$typst_syntax..node..SyntaxNode$GT$4cast17h7b0c13ce035b9e87E', symObjAddr: 0x2AC, symBinAddr: 0xBB4, symSize: 0x24 }
  - { offset: 0x3C62, size: 0x8, addend: 0x0, symName: '__ZN12typst_syntax3ast48_$LT$impl$u20$typst_syntax..node..SyntaxNode$GT$4cast17h7e6f4ec906fb2181E', symObjAddr: 0x2D0, symBinAddr: 0xBD8, symSize: 0x24 }
  - { offset: 0x3C8D, size: 0x8, addend: 0x0, symName: '__ZN12typst_syntax3ast48_$LT$impl$u20$typst_syntax..node..SyntaxNode$GT$4cast17h80ec1229c76c0b86E', symObjAddr: 0x2F4, symBinAddr: 0xBFC, symSize: 0x24 }
  - { offset: 0x3CB8, size: 0x8, addend: 0x0, symName: '__ZN12typst_syntax3ast48_$LT$impl$u20$typst_syntax..node..SyntaxNode$GT$4cast17h8c7afb75c095929fE', symObjAddr: 0x318, symBinAddr: 0xC20, symSize: 0x24 }
  - { offset: 0x3CE3, size: 0x8, addend: 0x0, symName: '__ZN12typst_syntax3ast48_$LT$impl$u20$typst_syntax..node..SyntaxNode$GT$4cast17h8f87c2218b27bbeaE', symObjAddr: 0x33C, symBinAddr: 0xC44, symSize: 0x24 }
  - { offset: 0x3D0E, size: 0x8, addend: 0x0, symName: '__ZN12typst_syntax3ast48_$LT$impl$u20$typst_syntax..node..SyntaxNode$GT$4cast17h935690a49062130eE', symObjAddr: 0x360, symBinAddr: 0xC68, symSize: 0x24 }
  - { offset: 0x3D39, size: 0x8, addend: 0x0, symName: '__ZN12typst_syntax3ast48_$LT$impl$u20$typst_syntax..node..SyntaxNode$GT$4cast17h990033ff5abd7d25E', symObjAddr: 0x384, symBinAddr: 0xC8C, symSize: 0x24 }
  - { offset: 0x3D64, size: 0x8, addend: 0x0, symName: '__ZN12typst_syntax3ast48_$LT$impl$u20$typst_syntax..node..SyntaxNode$GT$4cast17h999a0c2a514e7140E', symObjAddr: 0x3A8, symBinAddr: 0xCB0, symSize: 0x24 }
  - { offset: 0x3D8F, size: 0x8, addend: 0x0, symName: '__ZN12typst_syntax3ast48_$LT$impl$u20$typst_syntax..node..SyntaxNode$GT$4cast17h9a845a41e71e98dfE', symObjAddr: 0x3CC, symBinAddr: 0xCD4, symSize: 0x24 }
  - { offset: 0x3DBA, size: 0x8, addend: 0x0, symName: '__ZN12typst_syntax3ast48_$LT$impl$u20$typst_syntax..node..SyntaxNode$GT$4cast17h9ddb94af616a0a64E', symObjAddr: 0x3F0, symBinAddr: 0xCF8, symSize: 0x24 }
  - { offset: 0x3DE5, size: 0x8, addend: 0x0, symName: '__ZN12typst_syntax3ast48_$LT$impl$u20$typst_syntax..node..SyntaxNode$GT$4cast17h9ebe572cefda48daE', symObjAddr: 0x414, symBinAddr: 0xD1C, symSize: 0x24 }
  - { offset: 0x3E10, size: 0x8, addend: 0x0, symName: '__ZN12typst_syntax3ast48_$LT$impl$u20$typst_syntax..node..SyntaxNode$GT$4cast17ha0db965a43083ffcE', symObjAddr: 0x438, symBinAddr: 0xD40, symSize: 0x24 }
  - { offset: 0x3E3B, size: 0x8, addend: 0x0, symName: '__ZN12typst_syntax3ast48_$LT$impl$u20$typst_syntax..node..SyntaxNode$GT$4cast17ha452d2e744d65e86E', symObjAddr: 0x45C, symBinAddr: 0xD64, symSize: 0x24 }
  - { offset: 0x3E66, size: 0x8, addend: 0x0, symName: '__ZN12typst_syntax3ast48_$LT$impl$u20$typst_syntax..node..SyntaxNode$GT$4cast17ha5a0430c0f9fa020E', symObjAddr: 0x480, symBinAddr: 0xD88, symSize: 0x24 }
  - { offset: 0x3E91, size: 0x8, addend: 0x0, symName: '__ZN12typst_syntax3ast48_$LT$impl$u20$typst_syntax..node..SyntaxNode$GT$4cast17hae3c87247178b6dfE', symObjAddr: 0x4A4, symBinAddr: 0xDAC, symSize: 0x24 }
  - { offset: 0x3EBC, size: 0x8, addend: 0x0, symName: '__ZN12typst_syntax3ast48_$LT$impl$u20$typst_syntax..node..SyntaxNode$GT$4cast17hb031329819e76f20E', symObjAddr: 0x4C8, symBinAddr: 0xDD0, symSize: 0x24 }
  - { offset: 0x3EE7, size: 0x8, addend: 0x0, symName: '__ZN12typst_syntax3ast48_$LT$impl$u20$typst_syntax..node..SyntaxNode$GT$4cast17hb233ed35e3e6f7f0E', symObjAddr: 0x4EC, symBinAddr: 0xDF4, symSize: 0x24 }
  - { offset: 0x3F12, size: 0x8, addend: 0x0, symName: '__ZN12typst_syntax3ast48_$LT$impl$u20$typst_syntax..node..SyntaxNode$GT$4cast17hbd40ad36cdbb5abfE', symObjAddr: 0x510, symBinAddr: 0xE18, symSize: 0x24 }
  - { offset: 0x3F3D, size: 0x8, addend: 0x0, symName: '__ZN12typst_syntax3ast48_$LT$impl$u20$typst_syntax..node..SyntaxNode$GT$4cast17hcaaaa602fe815103E', symObjAddr: 0x534, symBinAddr: 0xE3C, symSize: 0x24 }
  - { offset: 0x3F68, size: 0x8, addend: 0x0, symName: '__ZN12typst_syntax3ast48_$LT$impl$u20$typst_syntax..node..SyntaxNode$GT$4cast17hcd5d153d40e9d66eE', symObjAddr: 0x558, symBinAddr: 0xE60, symSize: 0x24 }
  - { offset: 0x3F93, size: 0x8, addend: 0x0, symName: '__ZN12typst_syntax3ast48_$LT$impl$u20$typst_syntax..node..SyntaxNode$GT$4cast17hce45b385935bf454E', symObjAddr: 0x57C, symBinAddr: 0xE84, symSize: 0x24 }
  - { offset: 0x3FBE, size: 0x8, addend: 0x0, symName: '__ZN12typst_syntax3ast48_$LT$impl$u20$typst_syntax..node..SyntaxNode$GT$4cast17hceef715c4976f048E', symObjAddr: 0x5A0, symBinAddr: 0xEA8, symSize: 0x24 }
  - { offset: 0x3FE9, size: 0x8, addend: 0x0, symName: '__ZN12typst_syntax3ast48_$LT$impl$u20$typst_syntax..node..SyntaxNode$GT$4cast17hd97b1cfcecd71102E', symObjAddr: 0x5C4, symBinAddr: 0xECC, symSize: 0x24 }
  - { offset: 0x4014, size: 0x8, addend: 0x0, symName: '__ZN12typst_syntax3ast48_$LT$impl$u20$typst_syntax..node..SyntaxNode$GT$4cast17hea00c4fe954e3b64E', symObjAddr: 0x5E8, symBinAddr: 0xEF0, symSize: 0x24 }
  - { offset: 0x403F, size: 0x8, addend: 0x0, symName: '__ZN12typst_syntax3ast48_$LT$impl$u20$typst_syntax..node..SyntaxNode$GT$4cast17hea7b941a71772116E', symObjAddr: 0x60C, symBinAddr: 0xF14, symSize: 0x24 }
  - { offset: 0x406A, size: 0x8, addend: 0x0, symName: '__ZN12typst_syntax3ast48_$LT$impl$u20$typst_syntax..node..SyntaxNode$GT$4cast17hf0a1618327dcb438E', symObjAddr: 0x630, symBinAddr: 0xF38, symSize: 0x24 }
  - { offset: 0x4095, size: 0x8, addend: 0x0, symName: '__ZN12typst_syntax3ast48_$LT$impl$u20$typst_syntax..node..SyntaxNode$GT$4cast17hfe04d2ebdda0e8e3E', symObjAddr: 0x654, symBinAddr: 0xF5C, symSize: 0x24 }
  - { offset: 0x4341, size: 0x8, addend: 0x0, symName: __ZN4core5slice3raw14from_raw_parts17h2a4b41bafd3bf573E, symObjAddr: 0x0, symBinAddr: 0x1074, symSize: 0x58 }
  - { offset: 0x4AF3, size: 0x8, addend: 0x0, symName: __ZN4core5slice3raw14from_raw_parts17h2a4b41bafd3bf573E, symObjAddr: 0x0, symBinAddr: 0x1074, symSize: 0x58 }
  - { offset: 0x4B36, size: 0x8, addend: 0x0, symName: __ZN4core5slice3raw14from_raw_parts17hb7acdb3dfebc105dE, symObjAddr: 0x58, symBinAddr: 0x10CC, symSize: 0x58 }
  - { offset: 0x5B76, size: 0x8, addend: 0x0, symName: '__ZN100_$LT$pyo3..pycell..impl_..MutableClass$u20$as$u20$pyo3..pycell..impl_..GetBorrowChecker$LT$T$GT$$GT$14borrow_checker17h07ba1bf0fbb07482E', symObjAddr: 0x0, symBinAddr: 0x1124, symSize: 0x14 }
  - { offset: 0x87A4, size: 0x8, addend: 0x0, symName: '__ZN100_$LT$pyo3..pycell..impl_..MutableClass$u20$as$u20$pyo3..pycell..impl_..GetBorrowChecker$LT$T$GT$$GT$14borrow_checker17h07ba1bf0fbb07482E', symObjAddr: 0x0, symBinAddr: 0x1124, symSize: 0x14 }
  - { offset: 0x87D9, size: 0x8, addend: 0x0, symName: '__ZN100_$LT$pyo3..pycell..impl_..MutableClass$u20$as$u20$pyo3..pycell..impl_..GetBorrowChecker$LT$T$GT$$GT$14borrow_checker17h0a21a6f251493445E', symObjAddr: 0x14, symBinAddr: 0x1138, symSize: 0x14 }
  - { offset: 0x880E, size: 0x8, addend: 0x0, symName: '__ZN100_$LT$pyo3..pycell..impl_..MutableClass$u20$as$u20$pyo3..pycell..impl_..GetBorrowChecker$LT$T$GT$$GT$14borrow_checker17h0af8c49e1bceb4bbE', symObjAddr: 0x28, symBinAddr: 0x114C, symSize: 0x14 }
  - { offset: 0x8843, size: 0x8, addend: 0x0, symName: '__ZN100_$LT$pyo3..pycell..impl_..MutableClass$u20$as$u20$pyo3..pycell..impl_..GetBorrowChecker$LT$T$GT$$GT$14borrow_checker17h16837894615763c2E', symObjAddr: 0x3C, symBinAddr: 0x1160, symSize: 0x14 }
  - { offset: 0x8878, size: 0x8, addend: 0x0, symName: '__ZN100_$LT$pyo3..pycell..impl_..MutableClass$u20$as$u20$pyo3..pycell..impl_..GetBorrowChecker$LT$T$GT$$GT$14borrow_checker17h21efb4b7daa925beE', symObjAddr: 0x50, symBinAddr: 0x1174, symSize: 0x14 }
  - { offset: 0x88AD, size: 0x8, addend: 0x0, symName: '__ZN100_$LT$pyo3..pycell..impl_..MutableClass$u20$as$u20$pyo3..pycell..impl_..GetBorrowChecker$LT$T$GT$$GT$14borrow_checker17h2a911dc0244c6e02E', symObjAddr: 0x64, symBinAddr: 0x1188, symSize: 0x14 }
  - { offset: 0x88E2, size: 0x8, addend: 0x0, symName: '__ZN100_$LT$pyo3..pycell..impl_..MutableClass$u20$as$u20$pyo3..pycell..impl_..GetBorrowChecker$LT$T$GT$$GT$14borrow_checker17h2afad659a28fdfdfE', symObjAddr: 0x78, symBinAddr: 0x119C, symSize: 0x14 }
  - { offset: 0x8917, size: 0x8, addend: 0x0, symName: '__ZN100_$LT$pyo3..pycell..impl_..MutableClass$u20$as$u20$pyo3..pycell..impl_..GetBorrowChecker$LT$T$GT$$GT$14borrow_checker17h2c959b3fc243f7efE', symObjAddr: 0x8C, symBinAddr: 0x11B0, symSize: 0x14 }
  - { offset: 0x894C, size: 0x8, addend: 0x0, symName: '__ZN100_$LT$pyo3..pycell..impl_..MutableClass$u20$as$u20$pyo3..pycell..impl_..GetBorrowChecker$LT$T$GT$$GT$14borrow_checker17h2d52df6b52414659E', symObjAddr: 0xA0, symBinAddr: 0x11C4, symSize: 0x14 }
  - { offset: 0x8981, size: 0x8, addend: 0x0, symName: '__ZN100_$LT$pyo3..pycell..impl_..MutableClass$u20$as$u20$pyo3..pycell..impl_..GetBorrowChecker$LT$T$GT$$GT$14borrow_checker17h2da46fd463772624E', symObjAddr: 0xB4, symBinAddr: 0x11D8, symSize: 0x14 }
  - { offset: 0x89B6, size: 0x8, addend: 0x0, symName: '__ZN100_$LT$pyo3..pycell..impl_..MutableClass$u20$as$u20$pyo3..pycell..impl_..GetBorrowChecker$LT$T$GT$$GT$14borrow_checker17h363afc30c42ac22cE', symObjAddr: 0xC8, symBinAddr: 0x11EC, symSize: 0x14 }
  - { offset: 0x89EB, size: 0x8, addend: 0x0, symName: '__ZN100_$LT$pyo3..pycell..impl_..MutableClass$u20$as$u20$pyo3..pycell..impl_..GetBorrowChecker$LT$T$GT$$GT$14borrow_checker17h3a85a545b136985fE', symObjAddr: 0xDC, symBinAddr: 0x1200, symSize: 0x14 }
  - { offset: 0x8A20, size: 0x8, addend: 0x0, symName: '__ZN100_$LT$pyo3..pycell..impl_..MutableClass$u20$as$u20$pyo3..pycell..impl_..GetBorrowChecker$LT$T$GT$$GT$14borrow_checker17h3d8550af1f7adc9fE', symObjAddr: 0xF0, symBinAddr: 0x1214, symSize: 0x14 }
  - { offset: 0x8A55, size: 0x8, addend: 0x0, symName: '__ZN100_$LT$pyo3..pycell..impl_..MutableClass$u20$as$u20$pyo3..pycell..impl_..GetBorrowChecker$LT$T$GT$$GT$14borrow_checker17h3e03c3817251f311E', symObjAddr: 0x104, symBinAddr: 0x1228, symSize: 0x14 }
  - { offset: 0x8A8A, size: 0x8, addend: 0x0, symName: '__ZN100_$LT$pyo3..pycell..impl_..MutableClass$u20$as$u20$pyo3..pycell..impl_..GetBorrowChecker$LT$T$GT$$GT$14borrow_checker17h401b9d7629c950faE', symObjAddr: 0x118, symBinAddr: 0x123C, symSize: 0x14 }
  - { offset: 0x8ABF, size: 0x8, addend: 0x0, symName: '__ZN100_$LT$pyo3..pycell..impl_..MutableClass$u20$as$u20$pyo3..pycell..impl_..GetBorrowChecker$LT$T$GT$$GT$14borrow_checker17h47feef127b091b5aE', symObjAddr: 0x12C, symBinAddr: 0x1250, symSize: 0x14 }
  - { offset: 0x8AF4, size: 0x8, addend: 0x0, symName: '__ZN100_$LT$pyo3..pycell..impl_..MutableClass$u20$as$u20$pyo3..pycell..impl_..GetBorrowChecker$LT$T$GT$$GT$14borrow_checker17h4d4757ed378659d4E', symObjAddr: 0x140, symBinAddr: 0x1264, symSize: 0x14 }
  - { offset: 0x8B29, size: 0x8, addend: 0x0, symName: '__ZN100_$LT$pyo3..pycell..impl_..MutableClass$u20$as$u20$pyo3..pycell..impl_..GetBorrowChecker$LT$T$GT$$GT$14borrow_checker17h50a8ab04c0420ff6E', symObjAddr: 0x154, symBinAddr: 0x1278, symSize: 0x14 }
  - { offset: 0x8B5E, size: 0x8, addend: 0x0, symName: '__ZN100_$LT$pyo3..pycell..impl_..MutableClass$u20$as$u20$pyo3..pycell..impl_..GetBorrowChecker$LT$T$GT$$GT$14borrow_checker17h50d5cdbc9b9d36f2E', symObjAddr: 0x168, symBinAddr: 0x128C, symSize: 0x14 }
  - { offset: 0x8B93, size: 0x8, addend: 0x0, symName: '__ZN100_$LT$pyo3..pycell..impl_..MutableClass$u20$as$u20$pyo3..pycell..impl_..GetBorrowChecker$LT$T$GT$$GT$14borrow_checker17h52afb59558eab294E', symObjAddr: 0x17C, symBinAddr: 0x12A0, symSize: 0x14 }
  - { offset: 0x8BC8, size: 0x8, addend: 0x0, symName: '__ZN100_$LT$pyo3..pycell..impl_..MutableClass$u20$as$u20$pyo3..pycell..impl_..GetBorrowChecker$LT$T$GT$$GT$14borrow_checker17h54d82d968e4a5c09E', symObjAddr: 0x190, symBinAddr: 0x12B4, symSize: 0x14 }
  - { offset: 0x8BFD, size: 0x8, addend: 0x0, symName: '__ZN100_$LT$pyo3..pycell..impl_..MutableClass$u20$as$u20$pyo3..pycell..impl_..GetBorrowChecker$LT$T$GT$$GT$14borrow_checker17h5936516750a9cb4bE', symObjAddr: 0x1A4, symBinAddr: 0x12C8, symSize: 0x14 }
  - { offset: 0x8C32, size: 0x8, addend: 0x0, symName: '__ZN100_$LT$pyo3..pycell..impl_..MutableClass$u20$as$u20$pyo3..pycell..impl_..GetBorrowChecker$LT$T$GT$$GT$14borrow_checker17h595e5459e1767012E', symObjAddr: 0x1B8, symBinAddr: 0x12DC, symSize: 0x14 }
  - { offset: 0x8C67, size: 0x8, addend: 0x0, symName: '__ZN100_$LT$pyo3..pycell..impl_..MutableClass$u20$as$u20$pyo3..pycell..impl_..GetBorrowChecker$LT$T$GT$$GT$14borrow_checker17h5a94c0206db2ebf8E', symObjAddr: 0x1CC, symBinAddr: 0x12F0, symSize: 0x14 }
  - { offset: 0x8C9C, size: 0x8, addend: 0x0, symName: '__ZN100_$LT$pyo3..pycell..impl_..MutableClass$u20$as$u20$pyo3..pycell..impl_..GetBorrowChecker$LT$T$GT$$GT$14borrow_checker17h5f4f8e45205bc518E', symObjAddr: 0x1E0, symBinAddr: 0x1304, symSize: 0x14 }
  - { offset: 0x8CD1, size: 0x8, addend: 0x0, symName: '__ZN100_$LT$pyo3..pycell..impl_..MutableClass$u20$as$u20$pyo3..pycell..impl_..GetBorrowChecker$LT$T$GT$$GT$14borrow_checker17h626381e2e70e3e3dE', symObjAddr: 0x1F4, symBinAddr: 0x1318, symSize: 0x14 }
  - { offset: 0x8D06, size: 0x8, addend: 0x0, symName: '__ZN100_$LT$pyo3..pycell..impl_..MutableClass$u20$as$u20$pyo3..pycell..impl_..GetBorrowChecker$LT$T$GT$$GT$14borrow_checker17h689203b72e3fb176E', symObjAddr: 0x208, symBinAddr: 0x132C, symSize: 0x14 }
  - { offset: 0x8D3B, size: 0x8, addend: 0x0, symName: '__ZN100_$LT$pyo3..pycell..impl_..MutableClass$u20$as$u20$pyo3..pycell..impl_..GetBorrowChecker$LT$T$GT$$GT$14borrow_checker17h6bd6341de5791d82E', symObjAddr: 0x21C, symBinAddr: 0x1340, symSize: 0x14 }
  - { offset: 0x8D70, size: 0x8, addend: 0x0, symName: '__ZN100_$LT$pyo3..pycell..impl_..MutableClass$u20$as$u20$pyo3..pycell..impl_..GetBorrowChecker$LT$T$GT$$GT$14borrow_checker17h728609b1d7a7d4f7E', symObjAddr: 0x230, symBinAddr: 0x1354, symSize: 0x14 }
  - { offset: 0x8DA5, size: 0x8, addend: 0x0, symName: '__ZN100_$LT$pyo3..pycell..impl_..MutableClass$u20$as$u20$pyo3..pycell..impl_..GetBorrowChecker$LT$T$GT$$GT$14borrow_checker17h73a81bb2b0e5d0c6E', symObjAddr: 0x244, symBinAddr: 0x1368, symSize: 0x14 }
  - { offset: 0x8DDA, size: 0x8, addend: 0x0, symName: '__ZN100_$LT$pyo3..pycell..impl_..MutableClass$u20$as$u20$pyo3..pycell..impl_..GetBorrowChecker$LT$T$GT$$GT$14borrow_checker17h760ce76ae1fa0faeE', symObjAddr: 0x258, symBinAddr: 0x137C, symSize: 0x14 }
  - { offset: 0x8E0F, size: 0x8, addend: 0x0, symName: '__ZN100_$LT$pyo3..pycell..impl_..MutableClass$u20$as$u20$pyo3..pycell..impl_..GetBorrowChecker$LT$T$GT$$GT$14borrow_checker17h79911fe64e6cd7f8E', symObjAddr: 0x26C, symBinAddr: 0x1390, symSize: 0x14 }
  - { offset: 0x8E44, size: 0x8, addend: 0x0, symName: '__ZN100_$LT$pyo3..pycell..impl_..MutableClass$u20$as$u20$pyo3..pycell..impl_..GetBorrowChecker$LT$T$GT$$GT$14borrow_checker17h86af32b22f8893d7E', symObjAddr: 0x280, symBinAddr: 0x13A4, symSize: 0x14 }
  - { offset: 0x8E79, size: 0x8, addend: 0x0, symName: '__ZN100_$LT$pyo3..pycell..impl_..MutableClass$u20$as$u20$pyo3..pycell..impl_..GetBorrowChecker$LT$T$GT$$GT$14borrow_checker17h8d57906ea9a7d09cE', symObjAddr: 0x294, symBinAddr: 0x13B8, symSize: 0x14 }
  - { offset: 0x8EAE, size: 0x8, addend: 0x0, symName: '__ZN100_$LT$pyo3..pycell..impl_..MutableClass$u20$as$u20$pyo3..pycell..impl_..GetBorrowChecker$LT$T$GT$$GT$14borrow_checker17h915d689239770950E', symObjAddr: 0x2A8, symBinAddr: 0x13CC, symSize: 0x14 }
  - { offset: 0x8EE3, size: 0x8, addend: 0x0, symName: '__ZN100_$LT$pyo3..pycell..impl_..MutableClass$u20$as$u20$pyo3..pycell..impl_..GetBorrowChecker$LT$T$GT$$GT$14borrow_checker17h98aa807f1c3826d7E', symObjAddr: 0x2BC, symBinAddr: 0x13E0, symSize: 0x14 }
  - { offset: 0x8F18, size: 0x8, addend: 0x0, symName: '__ZN100_$LT$pyo3..pycell..impl_..MutableClass$u20$as$u20$pyo3..pycell..impl_..GetBorrowChecker$LT$T$GT$$GT$14borrow_checker17h9b5c11e828fce4fdE', symObjAddr: 0x2D0, symBinAddr: 0x13F4, symSize: 0x14 }
  - { offset: 0x8F4D, size: 0x8, addend: 0x0, symName: '__ZN100_$LT$pyo3..pycell..impl_..MutableClass$u20$as$u20$pyo3..pycell..impl_..GetBorrowChecker$LT$T$GT$$GT$14borrow_checker17h9c06d0b85aa5a9d9E', symObjAddr: 0x2E4, symBinAddr: 0x1408, symSize: 0x14 }
  - { offset: 0x8F82, size: 0x8, addend: 0x0, symName: '__ZN100_$LT$pyo3..pycell..impl_..MutableClass$u20$as$u20$pyo3..pycell..impl_..GetBorrowChecker$LT$T$GT$$GT$14borrow_checker17h9dc19c32eac43ae2E', symObjAddr: 0x2F8, symBinAddr: 0x141C, symSize: 0x14 }
  - { offset: 0x8FB7, size: 0x8, addend: 0x0, symName: '__ZN100_$LT$pyo3..pycell..impl_..MutableClass$u20$as$u20$pyo3..pycell..impl_..GetBorrowChecker$LT$T$GT$$GT$14borrow_checker17h9e3f508a3be899efE', symObjAddr: 0x30C, symBinAddr: 0x1430, symSize: 0x14 }
  - { offset: 0x8FEC, size: 0x8, addend: 0x0, symName: '__ZN100_$LT$pyo3..pycell..impl_..MutableClass$u20$as$u20$pyo3..pycell..impl_..GetBorrowChecker$LT$T$GT$$GT$14borrow_checker17ha4c76d2dd0a8c2afE', symObjAddr: 0x320, symBinAddr: 0x1444, symSize: 0x14 }
  - { offset: 0x9021, size: 0x8, addend: 0x0, symName: '__ZN100_$LT$pyo3..pycell..impl_..MutableClass$u20$as$u20$pyo3..pycell..impl_..GetBorrowChecker$LT$T$GT$$GT$14borrow_checker17ha9247e2ceb774818E', symObjAddr: 0x334, symBinAddr: 0x1458, symSize: 0x14 }
  - { offset: 0x9056, size: 0x8, addend: 0x0, symName: '__ZN100_$LT$pyo3..pycell..impl_..MutableClass$u20$as$u20$pyo3..pycell..impl_..GetBorrowChecker$LT$T$GT$$GT$14borrow_checker17haa23595d482d32e1E', symObjAddr: 0x348, symBinAddr: 0x146C, symSize: 0x14 }
  - { offset: 0x908B, size: 0x8, addend: 0x0, symName: '__ZN100_$LT$pyo3..pycell..impl_..MutableClass$u20$as$u20$pyo3..pycell..impl_..GetBorrowChecker$LT$T$GT$$GT$14borrow_checker17hadcbdff3a58608bfE', symObjAddr: 0x35C, symBinAddr: 0x1480, symSize: 0x14 }
  - { offset: 0x90C0, size: 0x8, addend: 0x0, symName: '__ZN100_$LT$pyo3..pycell..impl_..MutableClass$u20$as$u20$pyo3..pycell..impl_..GetBorrowChecker$LT$T$GT$$GT$14borrow_checker17hb25a09df718d5ee3E', symObjAddr: 0x370, symBinAddr: 0x1494, symSize: 0x14 }
  - { offset: 0x90F5, size: 0x8, addend: 0x0, symName: '__ZN100_$LT$pyo3..pycell..impl_..MutableClass$u20$as$u20$pyo3..pycell..impl_..GetBorrowChecker$LT$T$GT$$GT$14borrow_checker17hbfa22e8c2d7d9703E', symObjAddr: 0x384, symBinAddr: 0x14A8, symSize: 0x14 }
  - { offset: 0x912A, size: 0x8, addend: 0x0, symName: '__ZN100_$LT$pyo3..pycell..impl_..MutableClass$u20$as$u20$pyo3..pycell..impl_..GetBorrowChecker$LT$T$GT$$GT$14borrow_checker17hc2ba2bb6439f19c3E', symObjAddr: 0x398, symBinAddr: 0x14BC, symSize: 0x14 }
  - { offset: 0x915F, size: 0x8, addend: 0x0, symName: '__ZN100_$LT$pyo3..pycell..impl_..MutableClass$u20$as$u20$pyo3..pycell..impl_..GetBorrowChecker$LT$T$GT$$GT$14borrow_checker17hc48d11a8a4eb86baE', symObjAddr: 0x3AC, symBinAddr: 0x14D0, symSize: 0x14 }
  - { offset: 0x9194, size: 0x8, addend: 0x0, symName: '__ZN100_$LT$pyo3..pycell..impl_..MutableClass$u20$as$u20$pyo3..pycell..impl_..GetBorrowChecker$LT$T$GT$$GT$14borrow_checker17hc4e75d88288e50bcE', symObjAddr: 0x3C0, symBinAddr: 0x14E4, symSize: 0x14 }
  - { offset: 0x91C9, size: 0x8, addend: 0x0, symName: '__ZN100_$LT$pyo3..pycell..impl_..MutableClass$u20$as$u20$pyo3..pycell..impl_..GetBorrowChecker$LT$T$GT$$GT$14borrow_checker17hcc87584b0ed29004E', symObjAddr: 0x3D4, symBinAddr: 0x14F8, symSize: 0x14 }
  - { offset: 0x91FE, size: 0x8, addend: 0x0, symName: '__ZN100_$LT$pyo3..pycell..impl_..MutableClass$u20$as$u20$pyo3..pycell..impl_..GetBorrowChecker$LT$T$GT$$GT$14borrow_checker17hd7d625de9d4a924eE', symObjAddr: 0x3E8, symBinAddr: 0x150C, symSize: 0x14 }
  - { offset: 0x9233, size: 0x8, addend: 0x0, symName: '__ZN100_$LT$pyo3..pycell..impl_..MutableClass$u20$as$u20$pyo3..pycell..impl_..GetBorrowChecker$LT$T$GT$$GT$14borrow_checker17hd86868124892e6a8E', symObjAddr: 0x3FC, symBinAddr: 0x1520, symSize: 0x14 }
  - { offset: 0x9268, size: 0x8, addend: 0x0, symName: '__ZN100_$LT$pyo3..pycell..impl_..MutableClass$u20$as$u20$pyo3..pycell..impl_..GetBorrowChecker$LT$T$GT$$GT$14borrow_checker17he6afb6fcb6efa664E', symObjAddr: 0x410, symBinAddr: 0x1534, symSize: 0x14 }
  - { offset: 0x929D, size: 0x8, addend: 0x0, symName: '__ZN100_$LT$pyo3..pycell..impl_..MutableClass$u20$as$u20$pyo3..pycell..impl_..GetBorrowChecker$LT$T$GT$$GT$14borrow_checker17heb7e4693ffe93f0dE', symObjAddr: 0x424, symBinAddr: 0x1548, symSize: 0x14 }
  - { offset: 0x92D2, size: 0x8, addend: 0x0, symName: '__ZN100_$LT$pyo3..pycell..impl_..MutableClass$u20$as$u20$pyo3..pycell..impl_..GetBorrowChecker$LT$T$GT$$GT$14borrow_checker17hec4fa4245d88984bE', symObjAddr: 0x438, symBinAddr: 0x155C, symSize: 0x14 }
  - { offset: 0x9307, size: 0x8, addend: 0x0, symName: '__ZN100_$LT$pyo3..pycell..impl_..MutableClass$u20$as$u20$pyo3..pycell..impl_..GetBorrowChecker$LT$T$GT$$GT$14borrow_checker17hf62a844128ea16bbE', symObjAddr: 0x44C, symBinAddr: 0x1570, symSize: 0x14 }
  - { offset: 0x933C, size: 0x8, addend: 0x0, symName: '__ZN100_$LT$pyo3..pycell..impl_..MutableClass$u20$as$u20$pyo3..pycell..impl_..GetBorrowChecker$LT$T$GT$$GT$14borrow_checker17hf641d674464f2888E', symObjAddr: 0x460, symBinAddr: 0x1584, symSize: 0x14 }
  - { offset: 0x9371, size: 0x8, addend: 0x0, symName: '__ZN100_$LT$pyo3..pycell..impl_..MutableClass$u20$as$u20$pyo3..pycell..impl_..GetBorrowChecker$LT$T$GT$$GT$14borrow_checker17hfb4116a7e46afeeaE', symObjAddr: 0x474, symBinAddr: 0x1598, symSize: 0x14 }
  - { offset: 0x93AC, size: 0x8, addend: 0x0, symName: '__ZN113_$LT$pyo3..pycell..impl_..PyClassObject$LT$T$GT$$u20$as$u20$pyo3..pycell..impl_..PyClassObjectLayout$LT$T$GT$$GT$10tp_dealloc17h00225dc29c5be481E', symObjAddr: 0x488, symBinAddr: 0x15AC, symSize: 0xB4 }
  - { offset: 0x9410, size: 0x8, addend: 0x0, symName: '__ZN113_$LT$pyo3..pycell..impl_..PyClassObject$LT$T$GT$$u20$as$u20$pyo3..pycell..impl_..PyClassObjectLayout$LT$T$GT$$GT$10tp_dealloc17h06bb5ffd6c0019d3E', symObjAddr: 0x53C, symBinAddr: 0x1660, symSize: 0xB4 }
  - { offset: 0x9474, size: 0x8, addend: 0x0, symName: '__ZN113_$LT$pyo3..pycell..impl_..PyClassObject$LT$T$GT$$u20$as$u20$pyo3..pycell..impl_..PyClassObjectLayout$LT$T$GT$$GT$10tp_dealloc17h0ddfb16feb8b5f6aE', symObjAddr: 0x5F0, symBinAddr: 0x1714, symSize: 0xB4 }
  - { offset: 0x94D8, size: 0x8, addend: 0x0, symName: '__ZN113_$LT$pyo3..pycell..impl_..PyClassObject$LT$T$GT$$u20$as$u20$pyo3..pycell..impl_..PyClassObjectLayout$LT$T$GT$$GT$10tp_dealloc17h10b20803eab963ecE', symObjAddr: 0x6A4, symBinAddr: 0x17C8, symSize: 0xB4 }
  - { offset: 0x953C, size: 0x8, addend: 0x0, symName: '__ZN113_$LT$pyo3..pycell..impl_..PyClassObject$LT$T$GT$$u20$as$u20$pyo3..pycell..impl_..PyClassObjectLayout$LT$T$GT$$GT$10tp_dealloc17h1e35aa7ff5d51342E', symObjAddr: 0x758, symBinAddr: 0x187C, symSize: 0xB4 }
  - { offset: 0x95A0, size: 0x8, addend: 0x0, symName: '__ZN113_$LT$pyo3..pycell..impl_..PyClassObject$LT$T$GT$$u20$as$u20$pyo3..pycell..impl_..PyClassObjectLayout$LT$T$GT$$GT$10tp_dealloc17h20a8c98437ba0b98E', symObjAddr: 0x80C, symBinAddr: 0x1930, symSize: 0xB4 }
  - { offset: 0x9604, size: 0x8, addend: 0x0, symName: '__ZN113_$LT$pyo3..pycell..impl_..PyClassObject$LT$T$GT$$u20$as$u20$pyo3..pycell..impl_..PyClassObjectLayout$LT$T$GT$$GT$10tp_dealloc17h25d52756fc874bf4E', symObjAddr: 0x8C0, symBinAddr: 0x19E4, symSize: 0xB4 }
  - { offset: 0x9668, size: 0x8, addend: 0x0, symName: '__ZN113_$LT$pyo3..pycell..impl_..PyClassObject$LT$T$GT$$u20$as$u20$pyo3..pycell..impl_..PyClassObjectLayout$LT$T$GT$$GT$10tp_dealloc17h299e199f6dd6107cE', symObjAddr: 0x974, symBinAddr: 0x1A98, symSize: 0xB4 }
  - { offset: 0x96CC, size: 0x8, addend: 0x0, symName: '__ZN113_$LT$pyo3..pycell..impl_..PyClassObject$LT$T$GT$$u20$as$u20$pyo3..pycell..impl_..PyClassObjectLayout$LT$T$GT$$GT$10tp_dealloc17h32e0702699d251b6E', symObjAddr: 0xA28, symBinAddr: 0x1B4C, symSize: 0xB4 }
  - { offset: 0x9730, size: 0x8, addend: 0x0, symName: '__ZN113_$LT$pyo3..pycell..impl_..PyClassObject$LT$T$GT$$u20$as$u20$pyo3..pycell..impl_..PyClassObjectLayout$LT$T$GT$$GT$10tp_dealloc17h429e03af226f8327E', symObjAddr: 0xADC, symBinAddr: 0x1C00, symSize: 0xB4 }
  - { offset: 0x9794, size: 0x8, addend: 0x0, symName: '__ZN113_$LT$pyo3..pycell..impl_..PyClassObject$LT$T$GT$$u20$as$u20$pyo3..pycell..impl_..PyClassObjectLayout$LT$T$GT$$GT$10tp_dealloc17h44dab246c1b75252E', symObjAddr: 0xB90, symBinAddr: 0x1CB4, symSize: 0xB4 }
  - { offset: 0x97F8, size: 0x8, addend: 0x0, symName: '__ZN113_$LT$pyo3..pycell..impl_..PyClassObject$LT$T$GT$$u20$as$u20$pyo3..pycell..impl_..PyClassObjectLayout$LT$T$GT$$GT$10tp_dealloc17h494693a9e058d2d5E', symObjAddr: 0xC44, symBinAddr: 0x1D68, symSize: 0xB4 }
  - { offset: 0x985C, size: 0x8, addend: 0x0, symName: '__ZN113_$LT$pyo3..pycell..impl_..PyClassObject$LT$T$GT$$u20$as$u20$pyo3..pycell..impl_..PyClassObjectLayout$LT$T$GT$$GT$10tp_dealloc17h4947e0fe673dd799E', symObjAddr: 0xCF8, symBinAddr: 0x1E1C, symSize: 0xB4 }
  - { offset: 0x98C0, size: 0x8, addend: 0x0, symName: '__ZN113_$LT$pyo3..pycell..impl_..PyClassObject$LT$T$GT$$u20$as$u20$pyo3..pycell..impl_..PyClassObjectLayout$LT$T$GT$$GT$10tp_dealloc17h4acb7610bb74b1ddE', symObjAddr: 0xDAC, symBinAddr: 0x1ED0, symSize: 0xB4 }
  - { offset: 0x9924, size: 0x8, addend: 0x0, symName: '__ZN113_$LT$pyo3..pycell..impl_..PyClassObject$LT$T$GT$$u20$as$u20$pyo3..pycell..impl_..PyClassObjectLayout$LT$T$GT$$GT$10tp_dealloc17h4f9540c3afceacb7E', symObjAddr: 0xE60, symBinAddr: 0x1F84, symSize: 0xB4 }
  - { offset: 0x9988, size: 0x8, addend: 0x0, symName: '__ZN113_$LT$pyo3..pycell..impl_..PyClassObject$LT$T$GT$$u20$as$u20$pyo3..pycell..impl_..PyClassObjectLayout$LT$T$GT$$GT$10tp_dealloc17h53c3d8f65a34f95eE', symObjAddr: 0xF14, symBinAddr: 0x2038, symSize: 0xB4 }
  - { offset: 0x99EC, size: 0x8, addend: 0x0, symName: '__ZN113_$LT$pyo3..pycell..impl_..PyClassObject$LT$T$GT$$u20$as$u20$pyo3..pycell..impl_..PyClassObjectLayout$LT$T$GT$$GT$10tp_dealloc17h5e9a7f343b3bb1f2E', symObjAddr: 0xFC8, symBinAddr: 0x20EC, symSize: 0xB4 }
  - { offset: 0x9A50, size: 0x8, addend: 0x0, symName: '__ZN113_$LT$pyo3..pycell..impl_..PyClassObject$LT$T$GT$$u20$as$u20$pyo3..pycell..impl_..PyClassObjectLayout$LT$T$GT$$GT$10tp_dealloc17h63907f260c1f76e7E', symObjAddr: 0x107C, symBinAddr: 0x21A0, symSize: 0xB4 }
  - { offset: 0x9AB4, size: 0x8, addend: 0x0, symName: '__ZN113_$LT$pyo3..pycell..impl_..PyClassObject$LT$T$GT$$u20$as$u20$pyo3..pycell..impl_..PyClassObjectLayout$LT$T$GT$$GT$10tp_dealloc17h6620d67d0c87351bE', symObjAddr: 0x1130, symBinAddr: 0x2254, symSize: 0xB4 }
  - { offset: 0x9B18, size: 0x8, addend: 0x0, symName: '__ZN113_$LT$pyo3..pycell..impl_..PyClassObject$LT$T$GT$$u20$as$u20$pyo3..pycell..impl_..PyClassObjectLayout$LT$T$GT$$GT$10tp_dealloc17h668570d4b27c1f21E', symObjAddr: 0x11E4, symBinAddr: 0x2308, symSize: 0xB4 }
  - { offset: 0x9B7C, size: 0x8, addend: 0x0, symName: '__ZN113_$LT$pyo3..pycell..impl_..PyClassObject$LT$T$GT$$u20$as$u20$pyo3..pycell..impl_..PyClassObjectLayout$LT$T$GT$$GT$10tp_dealloc17h66bf7b8f4abd560cE', symObjAddr: 0x1298, symBinAddr: 0x23BC, symSize: 0xB4 }
  - { offset: 0x9BE0, size: 0x8, addend: 0x0, symName: '__ZN113_$LT$pyo3..pycell..impl_..PyClassObject$LT$T$GT$$u20$as$u20$pyo3..pycell..impl_..PyClassObjectLayout$LT$T$GT$$GT$10tp_dealloc17h68018da53210fc70E', symObjAddr: 0x134C, symBinAddr: 0x2470, symSize: 0xB4 }
  - { offset: 0x9C44, size: 0x8, addend: 0x0, symName: '__ZN113_$LT$pyo3..pycell..impl_..PyClassObject$LT$T$GT$$u20$as$u20$pyo3..pycell..impl_..PyClassObjectLayout$LT$T$GT$$GT$10tp_dealloc17h7181dee244a6b26eE', symObjAddr: 0x1400, symBinAddr: 0x2524, symSize: 0xB4 }
  - { offset: 0x9CA8, size: 0x8, addend: 0x0, symName: '__ZN113_$LT$pyo3..pycell..impl_..PyClassObject$LT$T$GT$$u20$as$u20$pyo3..pycell..impl_..PyClassObjectLayout$LT$T$GT$$GT$10tp_dealloc17h7761541715a36f6cE', symObjAddr: 0x14B4, symBinAddr: 0x25D8, symSize: 0xB4 }
  - { offset: 0x9D0C, size: 0x8, addend: 0x0, symName: '__ZN113_$LT$pyo3..pycell..impl_..PyClassObject$LT$T$GT$$u20$as$u20$pyo3..pycell..impl_..PyClassObjectLayout$LT$T$GT$$GT$10tp_dealloc17h7d1f9e1e9acc83fbE', symObjAddr: 0x1568, symBinAddr: 0x268C, symSize: 0xB4 }
  - { offset: 0x9D70, size: 0x8, addend: 0x0, symName: '__ZN113_$LT$pyo3..pycell..impl_..PyClassObject$LT$T$GT$$u20$as$u20$pyo3..pycell..impl_..PyClassObjectLayout$LT$T$GT$$GT$10tp_dealloc17h8115a4093dcd9c1eE', symObjAddr: 0x161C, symBinAddr: 0x2740, symSize: 0xB4 }
  - { offset: 0x9DD4, size: 0x8, addend: 0x0, symName: '__ZN113_$LT$pyo3..pycell..impl_..PyClassObject$LT$T$GT$$u20$as$u20$pyo3..pycell..impl_..PyClassObjectLayout$LT$T$GT$$GT$10tp_dealloc17h8541d19ef5c58ff1E', symObjAddr: 0x16D0, symBinAddr: 0x27F4, symSize: 0xB4 }
  - { offset: 0x9E38, size: 0x8, addend: 0x0, symName: '__ZN113_$LT$pyo3..pycell..impl_..PyClassObject$LT$T$GT$$u20$as$u20$pyo3..pycell..impl_..PyClassObjectLayout$LT$T$GT$$GT$10tp_dealloc17h881f77905c6e3c03E', symObjAddr: 0x1784, symBinAddr: 0x28A8, symSize: 0xB4 }
  - { offset: 0x9E9C, size: 0x8, addend: 0x0, symName: '__ZN113_$LT$pyo3..pycell..impl_..PyClassObject$LT$T$GT$$u20$as$u20$pyo3..pycell..impl_..PyClassObjectLayout$LT$T$GT$$GT$10tp_dealloc17h8893c7e59cd9bb50E', symObjAddr: 0x1838, symBinAddr: 0x295C, symSize: 0xB4 }
  - { offset: 0x9F00, size: 0x8, addend: 0x0, symName: '__ZN113_$LT$pyo3..pycell..impl_..PyClassObject$LT$T$GT$$u20$as$u20$pyo3..pycell..impl_..PyClassObjectLayout$LT$T$GT$$GT$10tp_dealloc17h88968b29703bf70dE', symObjAddr: 0x18EC, symBinAddr: 0x2A10, symSize: 0xB4 }
  - { offset: 0x9F64, size: 0x8, addend: 0x0, symName: '__ZN113_$LT$pyo3..pycell..impl_..PyClassObject$LT$T$GT$$u20$as$u20$pyo3..pycell..impl_..PyClassObjectLayout$LT$T$GT$$GT$10tp_dealloc17h8c8f94d6facbbc2bE', symObjAddr: 0x19A0, symBinAddr: 0x2AC4, symSize: 0xB4 }
  - { offset: 0x9FC8, size: 0x8, addend: 0x0, symName: '__ZN113_$LT$pyo3..pycell..impl_..PyClassObject$LT$T$GT$$u20$as$u20$pyo3..pycell..impl_..PyClassObjectLayout$LT$T$GT$$GT$10tp_dealloc17h96f8c9d28c122430E', symObjAddr: 0x1A54, symBinAddr: 0x2B78, symSize: 0xB4 }
  - { offset: 0xA02C, size: 0x8, addend: 0x0, symName: '__ZN113_$LT$pyo3..pycell..impl_..PyClassObject$LT$T$GT$$u20$as$u20$pyo3..pycell..impl_..PyClassObjectLayout$LT$T$GT$$GT$10tp_dealloc17h983c12ff8da1a074E', symObjAddr: 0x1B08, symBinAddr: 0x2C2C, symSize: 0xB4 }
  - { offset: 0xA090, size: 0x8, addend: 0x0, symName: '__ZN113_$LT$pyo3..pycell..impl_..PyClassObject$LT$T$GT$$u20$as$u20$pyo3..pycell..impl_..PyClassObjectLayout$LT$T$GT$$GT$10tp_dealloc17h9898b71d8dcd0698E', symObjAddr: 0x1BBC, symBinAddr: 0x2CE0, symSize: 0xB4 }
  - { offset: 0xA0F4, size: 0x8, addend: 0x0, symName: '__ZN113_$LT$pyo3..pycell..impl_..PyClassObject$LT$T$GT$$u20$as$u20$pyo3..pycell..impl_..PyClassObjectLayout$LT$T$GT$$GT$10tp_dealloc17h98a317816d116c10E', symObjAddr: 0x1C70, symBinAddr: 0x2D94, symSize: 0xB4 }
  - { offset: 0xA158, size: 0x8, addend: 0x0, symName: '__ZN113_$LT$pyo3..pycell..impl_..PyClassObject$LT$T$GT$$u20$as$u20$pyo3..pycell..impl_..PyClassObjectLayout$LT$T$GT$$GT$10tp_dealloc17h9a17010575d8423cE', symObjAddr: 0x1D24, symBinAddr: 0x2E48, symSize: 0xB4 }
  - { offset: 0xA1BC, size: 0x8, addend: 0x0, symName: '__ZN113_$LT$pyo3..pycell..impl_..PyClassObject$LT$T$GT$$u20$as$u20$pyo3..pycell..impl_..PyClassObjectLayout$LT$T$GT$$GT$10tp_dealloc17h9af0e3918f07b607E', symObjAddr: 0x1DD8, symBinAddr: 0x2EFC, symSize: 0xB4 }
  - { offset: 0xA220, size: 0x8, addend: 0x0, symName: '__ZN113_$LT$pyo3..pycell..impl_..PyClassObject$LT$T$GT$$u20$as$u20$pyo3..pycell..impl_..PyClassObjectLayout$LT$T$GT$$GT$10tp_dealloc17h9cc4751c95a81279E', symObjAddr: 0x1E8C, symBinAddr: 0x2FB0, symSize: 0xB4 }
  - { offset: 0xA284, size: 0x8, addend: 0x0, symName: '__ZN113_$LT$pyo3..pycell..impl_..PyClassObject$LT$T$GT$$u20$as$u20$pyo3..pycell..impl_..PyClassObjectLayout$LT$T$GT$$GT$10tp_dealloc17h9d12fa566107aee3E', symObjAddr: 0x1F40, symBinAddr: 0x3064, symSize: 0xB4 }
  - { offset: 0xA2E8, size: 0x8, addend: 0x0, symName: '__ZN113_$LT$pyo3..pycell..impl_..PyClassObject$LT$T$GT$$u20$as$u20$pyo3..pycell..impl_..PyClassObjectLayout$LT$T$GT$$GT$10tp_dealloc17ha5089a69077e4b32E', symObjAddr: 0x1FF4, symBinAddr: 0x3118, symSize: 0xB4 }
  - { offset: 0xA34C, size: 0x8, addend: 0x0, symName: '__ZN113_$LT$pyo3..pycell..impl_..PyClassObject$LT$T$GT$$u20$as$u20$pyo3..pycell..impl_..PyClassObjectLayout$LT$T$GT$$GT$10tp_dealloc17habc72ba126b13dd5E', symObjAddr: 0x20A8, symBinAddr: 0x31CC, symSize: 0xB4 }
  - { offset: 0xA3B0, size: 0x8, addend: 0x0, symName: '__ZN113_$LT$pyo3..pycell..impl_..PyClassObject$LT$T$GT$$u20$as$u20$pyo3..pycell..impl_..PyClassObjectLayout$LT$T$GT$$GT$10tp_dealloc17hb2c45bb403415f17E', symObjAddr: 0x215C, symBinAddr: 0x3280, symSize: 0xB4 }
  - { offset: 0xA414, size: 0x8, addend: 0x0, symName: '__ZN113_$LT$pyo3..pycell..impl_..PyClassObject$LT$T$GT$$u20$as$u20$pyo3..pycell..impl_..PyClassObjectLayout$LT$T$GT$$GT$10tp_dealloc17hb323302d9b457926E', symObjAddr: 0x2210, symBinAddr: 0x3334, symSize: 0xB4 }
  - { offset: 0xA478, size: 0x8, addend: 0x0, symName: '__ZN113_$LT$pyo3..pycell..impl_..PyClassObject$LT$T$GT$$u20$as$u20$pyo3..pycell..impl_..PyClassObjectLayout$LT$T$GT$$GT$10tp_dealloc17hb4ebeec728666141E', symObjAddr: 0x22C4, symBinAddr: 0x33E8, symSize: 0xB4 }
  - { offset: 0xA4DC, size: 0x8, addend: 0x0, symName: '__ZN113_$LT$pyo3..pycell..impl_..PyClassObject$LT$T$GT$$u20$as$u20$pyo3..pycell..impl_..PyClassObjectLayout$LT$T$GT$$GT$10tp_dealloc17hba76ef9bef98e0d5E', symObjAddr: 0x2378, symBinAddr: 0x349C, symSize: 0xB4 }
  - { offset: 0xA540, size: 0x8, addend: 0x0, symName: '__ZN113_$LT$pyo3..pycell..impl_..PyClassObject$LT$T$GT$$u20$as$u20$pyo3..pycell..impl_..PyClassObjectLayout$LT$T$GT$$GT$10tp_dealloc17hbd17d9195d69fd77E', symObjAddr: 0x242C, symBinAddr: 0x3550, symSize: 0xB4 }
  - { offset: 0xA5A4, size: 0x8, addend: 0x0, symName: '__ZN113_$LT$pyo3..pycell..impl_..PyClassObject$LT$T$GT$$u20$as$u20$pyo3..pycell..impl_..PyClassObjectLayout$LT$T$GT$$GT$10tp_dealloc17hbeea80d98b6806b0E', symObjAddr: 0x24E0, symBinAddr: 0x3604, symSize: 0xB4 }
  - { offset: 0xA608, size: 0x8, addend: 0x0, symName: '__ZN113_$LT$pyo3..pycell..impl_..PyClassObject$LT$T$GT$$u20$as$u20$pyo3..pycell..impl_..PyClassObjectLayout$LT$T$GT$$GT$10tp_dealloc17hc6e183f1cba82d94E', symObjAddr: 0x2594, symBinAddr: 0x36B8, symSize: 0xB4 }
  - { offset: 0xA66C, size: 0x8, addend: 0x0, symName: '__ZN113_$LT$pyo3..pycell..impl_..PyClassObject$LT$T$GT$$u20$as$u20$pyo3..pycell..impl_..PyClassObjectLayout$LT$T$GT$$GT$10tp_dealloc17hca5579facb2770c3E', symObjAddr: 0x2648, symBinAddr: 0x376C, symSize: 0xB4 }
  - { offset: 0xA6D0, size: 0x8, addend: 0x0, symName: '__ZN113_$LT$pyo3..pycell..impl_..PyClassObject$LT$T$GT$$u20$as$u20$pyo3..pycell..impl_..PyClassObjectLayout$LT$T$GT$$GT$10tp_dealloc17hd34a50bd0ebdeb57E', symObjAddr: 0x26FC, symBinAddr: 0x3820, symSize: 0xB4 }
  - { offset: 0xA734, size: 0x8, addend: 0x0, symName: '__ZN113_$LT$pyo3..pycell..impl_..PyClassObject$LT$T$GT$$u20$as$u20$pyo3..pycell..impl_..PyClassObjectLayout$LT$T$GT$$GT$10tp_dealloc17hd4873766e8c19379E', symObjAddr: 0x27B0, symBinAddr: 0x38D4, symSize: 0xB4 }
  - { offset: 0xA798, size: 0x8, addend: 0x0, symName: '__ZN113_$LT$pyo3..pycell..impl_..PyClassObject$LT$T$GT$$u20$as$u20$pyo3..pycell..impl_..PyClassObjectLayout$LT$T$GT$$GT$10tp_dealloc17hd854af4490ebfdcbE', symObjAddr: 0x2864, symBinAddr: 0x3988, symSize: 0xB4 }
  - { offset: 0xA7FC, size: 0x8, addend: 0x0, symName: '__ZN113_$LT$pyo3..pycell..impl_..PyClassObject$LT$T$GT$$u20$as$u20$pyo3..pycell..impl_..PyClassObjectLayout$LT$T$GT$$GT$10tp_dealloc17hdd6ee4ba73ce5a11E', symObjAddr: 0x2918, symBinAddr: 0x3A3C, symSize: 0xB4 }
  - { offset: 0xA860, size: 0x8, addend: 0x0, symName: '__ZN113_$LT$pyo3..pycell..impl_..PyClassObject$LT$T$GT$$u20$as$u20$pyo3..pycell..impl_..PyClassObjectLayout$LT$T$GT$$GT$10tp_dealloc17hf0cc4e30d3282965E', symObjAddr: 0x29CC, symBinAddr: 0x3AF0, symSize: 0xB4 }
  - { offset: 0xA8C4, size: 0x8, addend: 0x0, symName: '__ZN113_$LT$pyo3..pycell..impl_..PyClassObject$LT$T$GT$$u20$as$u20$pyo3..pycell..impl_..PyClassObjectLayout$LT$T$GT$$GT$10tp_dealloc17hf13e5c6093790f38E', symObjAddr: 0x2A80, symBinAddr: 0x3BA4, symSize: 0xB4 }
  - { offset: 0xA928, size: 0x8, addend: 0x0, symName: '__ZN113_$LT$pyo3..pycell..impl_..PyClassObject$LT$T$GT$$u20$as$u20$pyo3..pycell..impl_..PyClassObjectLayout$LT$T$GT$$GT$10tp_dealloc17hf7d60c0e3dc27f46E', symObjAddr: 0x2B34, symBinAddr: 0x3C58, symSize: 0xB4 }
  - { offset: 0xA98C, size: 0x8, addend: 0x0, symName: '__ZN113_$LT$pyo3..pycell..impl_..PyClassObject$LT$T$GT$$u20$as$u20$pyo3..pycell..impl_..PyClassObjectLayout$LT$T$GT$$GT$10tp_dealloc17hf9fe78605d75e268E', symObjAddr: 0x2BE8, symBinAddr: 0x3D0C, symSize: 0xB4 }
  - { offset: 0xA9F0, size: 0x8, addend: 0x0, symName: '__ZN113_$LT$pyo3..pycell..impl_..PyClassObject$LT$T$GT$$u20$as$u20$pyo3..pycell..impl_..PyClassObjectLayout$LT$T$GT$$GT$10tp_dealloc17hffb2a9cc59ef8fa0E', symObjAddr: 0x2C9C, symBinAddr: 0x3DC0, symSize: 0xB4 }
  - { offset: 0xAA54, size: 0x8, addend: 0x0, symName: '__ZN113_$LT$pyo3..pycell..impl_..PyClassObject$LT$T$GT$$u20$as$u20$pyo3..pycell..impl_..PyClassObjectLayout$LT$T$GT$$GT$17ensure_threadsafe17h00c2e5446a5a2320E', symObjAddr: 0x2D50, symBinAddr: 0x3E74, symSize: 0x30 }
  - { offset: 0xAA87, size: 0x8, addend: 0x0, symName: '__ZN113_$LT$pyo3..pycell..impl_..PyClassObject$LT$T$GT$$u20$as$u20$pyo3..pycell..impl_..PyClassObjectLayout$LT$T$GT$$GT$17ensure_threadsafe17h032d255da06a4290E', symObjAddr: 0x2D80, symBinAddr: 0x3EA4, symSize: 0x30 }
  - { offset: 0xAABA, size: 0x8, addend: 0x0, symName: '__ZN113_$LT$pyo3..pycell..impl_..PyClassObject$LT$T$GT$$u20$as$u20$pyo3..pycell..impl_..PyClassObjectLayout$LT$T$GT$$GT$17ensure_threadsafe17h03905d9e1d687b52E', symObjAddr: 0x2DB0, symBinAddr: 0x3ED4, symSize: 0x30 }
  - { offset: 0xAAED, size: 0x8, addend: 0x0, symName: '__ZN113_$LT$pyo3..pycell..impl_..PyClassObject$LT$T$GT$$u20$as$u20$pyo3..pycell..impl_..PyClassObjectLayout$LT$T$GT$$GT$17ensure_threadsafe17h0803bbaab5abea4aE', symObjAddr: 0x2DE0, symBinAddr: 0x3F04, symSize: 0x30 }
  - { offset: 0xAB20, size: 0x8, addend: 0x0, symName: '__ZN113_$LT$pyo3..pycell..impl_..PyClassObject$LT$T$GT$$u20$as$u20$pyo3..pycell..impl_..PyClassObjectLayout$LT$T$GT$$GT$17ensure_threadsafe17h0939d46f4846200cE', symObjAddr: 0x2E10, symBinAddr: 0x3F34, symSize: 0x30 }
  - { offset: 0xAB53, size: 0x8, addend: 0x0, symName: '__ZN113_$LT$pyo3..pycell..impl_..PyClassObject$LT$T$GT$$u20$as$u20$pyo3..pycell..impl_..PyClassObjectLayout$LT$T$GT$$GT$17ensure_threadsafe17h0a1fbfe5a6a1163cE', symObjAddr: 0x2E40, symBinAddr: 0x3F64, symSize: 0x30 }
  - { offset: 0xAB86, size: 0x8, addend: 0x0, symName: '__ZN113_$LT$pyo3..pycell..impl_..PyClassObject$LT$T$GT$$u20$as$u20$pyo3..pycell..impl_..PyClassObjectLayout$LT$T$GT$$GT$17ensure_threadsafe17h10cee4bcf5615e51E', symObjAddr: 0x2E70, symBinAddr: 0x3F94, symSize: 0x30 }
  - { offset: 0xABB9, size: 0x8, addend: 0x0, symName: '__ZN113_$LT$pyo3..pycell..impl_..PyClassObject$LT$T$GT$$u20$as$u20$pyo3..pycell..impl_..PyClassObjectLayout$LT$T$GT$$GT$17ensure_threadsafe17h1e8dc5473088f7a5E', symObjAddr: 0x2EA0, symBinAddr: 0x3FC4, symSize: 0x30 }
  - { offset: 0xABEC, size: 0x8, addend: 0x0, symName: '__ZN113_$LT$pyo3..pycell..impl_..PyClassObject$LT$T$GT$$u20$as$u20$pyo3..pycell..impl_..PyClassObjectLayout$LT$T$GT$$GT$17ensure_threadsafe17h1f7b17349fa732bfE', symObjAddr: 0x2ED0, symBinAddr: 0x3FF4, symSize: 0x30 }
  - { offset: 0xAC1F, size: 0x8, addend: 0x0, symName: '__ZN113_$LT$pyo3..pycell..impl_..PyClassObject$LT$T$GT$$u20$as$u20$pyo3..pycell..impl_..PyClassObjectLayout$LT$T$GT$$GT$17ensure_threadsafe17h22c07dab71e19434E', symObjAddr: 0x2F00, symBinAddr: 0x4024, symSize: 0x30 }
  - { offset: 0xAC52, size: 0x8, addend: 0x0, symName: '__ZN113_$LT$pyo3..pycell..impl_..PyClassObject$LT$T$GT$$u20$as$u20$pyo3..pycell..impl_..PyClassObjectLayout$LT$T$GT$$GT$17ensure_threadsafe17h281415cd1058d1e7E', symObjAddr: 0x2F30, symBinAddr: 0x4054, symSize: 0x30 }
  - { offset: 0xAC85, size: 0x8, addend: 0x0, symName: '__ZN113_$LT$pyo3..pycell..impl_..PyClassObject$LT$T$GT$$u20$as$u20$pyo3..pycell..impl_..PyClassObjectLayout$LT$T$GT$$GT$17ensure_threadsafe17h2a670aeae74ca095E', symObjAddr: 0x2F60, symBinAddr: 0x4084, symSize: 0x30 }
  - { offset: 0xACB8, size: 0x8, addend: 0x0, symName: '__ZN113_$LT$pyo3..pycell..impl_..PyClassObject$LT$T$GT$$u20$as$u20$pyo3..pycell..impl_..PyClassObjectLayout$LT$T$GT$$GT$17ensure_threadsafe17h2dcec6a5bf713004E', symObjAddr: 0x2F90, symBinAddr: 0x40B4, symSize: 0x30 }
  - { offset: 0xACEB, size: 0x8, addend: 0x0, symName: '__ZN113_$LT$pyo3..pycell..impl_..PyClassObject$LT$T$GT$$u20$as$u20$pyo3..pycell..impl_..PyClassObjectLayout$LT$T$GT$$GT$17ensure_threadsafe17h3905a1d28c9fa199E', symObjAddr: 0x2FC0, symBinAddr: 0x40E4, symSize: 0x30 }
  - { offset: 0xAD1E, size: 0x8, addend: 0x0, symName: '__ZN113_$LT$pyo3..pycell..impl_..PyClassObject$LT$T$GT$$u20$as$u20$pyo3..pycell..impl_..PyClassObjectLayout$LT$T$GT$$GT$17ensure_threadsafe17h3c09f6a800f46832E', symObjAddr: 0x2FF0, symBinAddr: 0x4114, symSize: 0x30 }
  - { offset: 0xAD51, size: 0x8, addend: 0x0, symName: '__ZN113_$LT$pyo3..pycell..impl_..PyClassObject$LT$T$GT$$u20$as$u20$pyo3..pycell..impl_..PyClassObjectLayout$LT$T$GT$$GT$17ensure_threadsafe17h3c4808cd6a4d33cdE', symObjAddr: 0x3020, symBinAddr: 0x4144, symSize: 0x30 }
  - { offset: 0xAD84, size: 0x8, addend: 0x0, symName: '__ZN113_$LT$pyo3..pycell..impl_..PyClassObject$LT$T$GT$$u20$as$u20$pyo3..pycell..impl_..PyClassObjectLayout$LT$T$GT$$GT$17ensure_threadsafe17h3eeeb1feee1f6b58E', symObjAddr: 0x3050, symBinAddr: 0x4174, symSize: 0x30 }
  - { offset: 0xADB7, size: 0x8, addend: 0x0, symName: '__ZN113_$LT$pyo3..pycell..impl_..PyClassObject$LT$T$GT$$u20$as$u20$pyo3..pycell..impl_..PyClassObjectLayout$LT$T$GT$$GT$17ensure_threadsafe17h403b0386793ddab2E', symObjAddr: 0x3080, symBinAddr: 0x41A4, symSize: 0x30 }
  - { offset: 0xADEA, size: 0x8, addend: 0x0, symName: '__ZN113_$LT$pyo3..pycell..impl_..PyClassObject$LT$T$GT$$u20$as$u20$pyo3..pycell..impl_..PyClassObjectLayout$LT$T$GT$$GT$17ensure_threadsafe17h42954861381f471eE', symObjAddr: 0x30B0, symBinAddr: 0x41D4, symSize: 0x30 }
  - { offset: 0xAE1D, size: 0x8, addend: 0x0, symName: '__ZN113_$LT$pyo3..pycell..impl_..PyClassObject$LT$T$GT$$u20$as$u20$pyo3..pycell..impl_..PyClassObjectLayout$LT$T$GT$$GT$17ensure_threadsafe17h43401ff9f8f7ab87E', symObjAddr: 0x30E0, symBinAddr: 0x4204, symSize: 0x30 }
  - { offset: 0xAE50, size: 0x8, addend: 0x0, symName: '__ZN113_$LT$pyo3..pycell..impl_..PyClassObject$LT$T$GT$$u20$as$u20$pyo3..pycell..impl_..PyClassObjectLayout$LT$T$GT$$GT$17ensure_threadsafe17h4411f42e0fd229f1E', symObjAddr: 0x3110, symBinAddr: 0x4234, symSize: 0x30 }
  - { offset: 0xAE83, size: 0x8, addend: 0x0, symName: '__ZN113_$LT$pyo3..pycell..impl_..PyClassObject$LT$T$GT$$u20$as$u20$pyo3..pycell..impl_..PyClassObjectLayout$LT$T$GT$$GT$17ensure_threadsafe17h5b9f3c914abedb99E', symObjAddr: 0x3140, symBinAddr: 0x4264, symSize: 0x30 }
  - { offset: 0xAEB6, size: 0x8, addend: 0x0, symName: '__ZN113_$LT$pyo3..pycell..impl_..PyClassObject$LT$T$GT$$u20$as$u20$pyo3..pycell..impl_..PyClassObjectLayout$LT$T$GT$$GT$17ensure_threadsafe17h5ccfdbc51ccfe769E', symObjAddr: 0x3170, symBinAddr: 0x4294, symSize: 0x30 }
  - { offset: 0xAEE9, size: 0x8, addend: 0x0, symName: '__ZN113_$LT$pyo3..pycell..impl_..PyClassObject$LT$T$GT$$u20$as$u20$pyo3..pycell..impl_..PyClassObjectLayout$LT$T$GT$$GT$17ensure_threadsafe17h5d1257e6249e1acbE', symObjAddr: 0x31A0, symBinAddr: 0x42C4, symSize: 0x30 }
  - { offset: 0xAF1C, size: 0x8, addend: 0x0, symName: '__ZN113_$LT$pyo3..pycell..impl_..PyClassObject$LT$T$GT$$u20$as$u20$pyo3..pycell..impl_..PyClassObjectLayout$LT$T$GT$$GT$17ensure_threadsafe17h694803c0e4df5684E', symObjAddr: 0x31D0, symBinAddr: 0x42F4, symSize: 0x30 }
  - { offset: 0xAF4F, size: 0x8, addend: 0x0, symName: '__ZN113_$LT$pyo3..pycell..impl_..PyClassObject$LT$T$GT$$u20$as$u20$pyo3..pycell..impl_..PyClassObjectLayout$LT$T$GT$$GT$17ensure_threadsafe17h6f7aed0eeda9a0dcE', symObjAddr: 0x3200, symBinAddr: 0x4324, symSize: 0x30 }
  - { offset: 0xAF82, size: 0x8, addend: 0x0, symName: '__ZN113_$LT$pyo3..pycell..impl_..PyClassObject$LT$T$GT$$u20$as$u20$pyo3..pycell..impl_..PyClassObjectLayout$LT$T$GT$$GT$17ensure_threadsafe17h733343cd30709c07E', symObjAddr: 0x3230, symBinAddr: 0x4354, symSize: 0x30 }
  - { offset: 0xAFB5, size: 0x8, addend: 0x0, symName: '__ZN113_$LT$pyo3..pycell..impl_..PyClassObject$LT$T$GT$$u20$as$u20$pyo3..pycell..impl_..PyClassObjectLayout$LT$T$GT$$GT$17ensure_threadsafe17h74418bf538ae7b72E', symObjAddr: 0x3260, symBinAddr: 0x4384, symSize: 0x30 }
  - { offset: 0xAFE8, size: 0x8, addend: 0x0, symName: '__ZN113_$LT$pyo3..pycell..impl_..PyClassObject$LT$T$GT$$u20$as$u20$pyo3..pycell..impl_..PyClassObjectLayout$LT$T$GT$$GT$17ensure_threadsafe17h7a7ca204108f6520E', symObjAddr: 0x3290, symBinAddr: 0x43B4, symSize: 0x30 }
  - { offset: 0xB01B, size: 0x8, addend: 0x0, symName: '__ZN113_$LT$pyo3..pycell..impl_..PyClassObject$LT$T$GT$$u20$as$u20$pyo3..pycell..impl_..PyClassObjectLayout$LT$T$GT$$GT$17ensure_threadsafe17h7d44ab85da6ddafbE', symObjAddr: 0x32C0, symBinAddr: 0x43E4, symSize: 0x30 }
  - { offset: 0xB04E, size: 0x8, addend: 0x0, symName: '__ZN113_$LT$pyo3..pycell..impl_..PyClassObject$LT$T$GT$$u20$as$u20$pyo3..pycell..impl_..PyClassObjectLayout$LT$T$GT$$GT$17ensure_threadsafe17h82adff4d48bb4d44E', symObjAddr: 0x32F0, symBinAddr: 0x4414, symSize: 0x30 }
  - { offset: 0xB081, size: 0x8, addend: 0x0, symName: '__ZN113_$LT$pyo3..pycell..impl_..PyClassObject$LT$T$GT$$u20$as$u20$pyo3..pycell..impl_..PyClassObjectLayout$LT$T$GT$$GT$17ensure_threadsafe17h866b82e1e2b6a663E', symObjAddr: 0x3320, symBinAddr: 0x4444, symSize: 0x30 }
  - { offset: 0xB0B4, size: 0x8, addend: 0x0, symName: '__ZN113_$LT$pyo3..pycell..impl_..PyClassObject$LT$T$GT$$u20$as$u20$pyo3..pycell..impl_..PyClassObjectLayout$LT$T$GT$$GT$17ensure_threadsafe17h87329a57c634666fE', symObjAddr: 0x3350, symBinAddr: 0x4474, symSize: 0x30 }
  - { offset: 0xB0E7, size: 0x8, addend: 0x0, symName: '__ZN113_$LT$pyo3..pycell..impl_..PyClassObject$LT$T$GT$$u20$as$u20$pyo3..pycell..impl_..PyClassObjectLayout$LT$T$GT$$GT$17ensure_threadsafe17h9066b43036b05837E', symObjAddr: 0x3380, symBinAddr: 0x44A4, symSize: 0x30 }
  - { offset: 0xB11A, size: 0x8, addend: 0x0, symName: '__ZN113_$LT$pyo3..pycell..impl_..PyClassObject$LT$T$GT$$u20$as$u20$pyo3..pycell..impl_..PyClassObjectLayout$LT$T$GT$$GT$17ensure_threadsafe17h958dac9c56213723E', symObjAddr: 0x33B0, symBinAddr: 0x44D4, symSize: 0x30 }
  - { offset: 0xB14D, size: 0x8, addend: 0x0, symName: '__ZN113_$LT$pyo3..pycell..impl_..PyClassObject$LT$T$GT$$u20$as$u20$pyo3..pycell..impl_..PyClassObjectLayout$LT$T$GT$$GT$17ensure_threadsafe17h9a8a8c45dd54138bE', symObjAddr: 0x33E0, symBinAddr: 0x4504, symSize: 0x30 }
  - { offset: 0xB180, size: 0x8, addend: 0x0, symName: '__ZN113_$LT$pyo3..pycell..impl_..PyClassObject$LT$T$GT$$u20$as$u20$pyo3..pycell..impl_..PyClassObjectLayout$LT$T$GT$$GT$17ensure_threadsafe17h9b2fab047c0ec857E', symObjAddr: 0x3410, symBinAddr: 0x4534, symSize: 0x30 }
  - { offset: 0xB1B3, size: 0x8, addend: 0x0, symName: '__ZN113_$LT$pyo3..pycell..impl_..PyClassObject$LT$T$GT$$u20$as$u20$pyo3..pycell..impl_..PyClassObjectLayout$LT$T$GT$$GT$17ensure_threadsafe17h9b80bf67cd87c7ceE', symObjAddr: 0x3440, symBinAddr: 0x4564, symSize: 0x30 }
  - { offset: 0xB1E6, size: 0x8, addend: 0x0, symName: '__ZN113_$LT$pyo3..pycell..impl_..PyClassObject$LT$T$GT$$u20$as$u20$pyo3..pycell..impl_..PyClassObjectLayout$LT$T$GT$$GT$17ensure_threadsafe17ha16725d5ee03aea1E', symObjAddr: 0x3470, symBinAddr: 0x4594, symSize: 0x30 }
  - { offset: 0xB219, size: 0x8, addend: 0x0, symName: '__ZN113_$LT$pyo3..pycell..impl_..PyClassObject$LT$T$GT$$u20$as$u20$pyo3..pycell..impl_..PyClassObjectLayout$LT$T$GT$$GT$17ensure_threadsafe17ha71aafcd6b59b1fdE', symObjAddr: 0x34A0, symBinAddr: 0x45C4, symSize: 0x30 }
  - { offset: 0xB24C, size: 0x8, addend: 0x0, symName: '__ZN113_$LT$pyo3..pycell..impl_..PyClassObject$LT$T$GT$$u20$as$u20$pyo3..pycell..impl_..PyClassObjectLayout$LT$T$GT$$GT$17ensure_threadsafe17hbe3eacbdc14dc63cE', symObjAddr: 0x34D0, symBinAddr: 0x45F4, symSize: 0x30 }
  - { offset: 0xB27F, size: 0x8, addend: 0x0, symName: '__ZN113_$LT$pyo3..pycell..impl_..PyClassObject$LT$T$GT$$u20$as$u20$pyo3..pycell..impl_..PyClassObjectLayout$LT$T$GT$$GT$17ensure_threadsafe17hc250322a1397b0f4E', symObjAddr: 0x3500, symBinAddr: 0x4624, symSize: 0x30 }
  - { offset: 0xB2B2, size: 0x8, addend: 0x0, symName: '__ZN113_$LT$pyo3..pycell..impl_..PyClassObject$LT$T$GT$$u20$as$u20$pyo3..pycell..impl_..PyClassObjectLayout$LT$T$GT$$GT$17ensure_threadsafe17hc97442715baade00E', symObjAddr: 0x3530, symBinAddr: 0x4654, symSize: 0x30 }
  - { offset: 0xB2E5, size: 0x8, addend: 0x0, symName: '__ZN113_$LT$pyo3..pycell..impl_..PyClassObject$LT$T$GT$$u20$as$u20$pyo3..pycell..impl_..PyClassObjectLayout$LT$T$GT$$GT$17ensure_threadsafe17hca8b4fda27acd5ecE', symObjAddr: 0x3560, symBinAddr: 0x4684, symSize: 0x30 }
  - { offset: 0xB318, size: 0x8, addend: 0x0, symName: '__ZN113_$LT$pyo3..pycell..impl_..PyClassObject$LT$T$GT$$u20$as$u20$pyo3..pycell..impl_..PyClassObjectLayout$LT$T$GT$$GT$17ensure_threadsafe17hcd1cde9ebac8cafaE', symObjAddr: 0x3590, symBinAddr: 0x46B4, symSize: 0x30 }
  - { offset: 0xB34B, size: 0x8, addend: 0x0, symName: '__ZN113_$LT$pyo3..pycell..impl_..PyClassObject$LT$T$GT$$u20$as$u20$pyo3..pycell..impl_..PyClassObjectLayout$LT$T$GT$$GT$17ensure_threadsafe17hd29cbe286b7ead90E', symObjAddr: 0x35C0, symBinAddr: 0x46E4, symSize: 0x30 }
  - { offset: 0xB37E, size: 0x8, addend: 0x0, symName: '__ZN113_$LT$pyo3..pycell..impl_..PyClassObject$LT$T$GT$$u20$as$u20$pyo3..pycell..impl_..PyClassObjectLayout$LT$T$GT$$GT$17ensure_threadsafe17hd4a8f60c3d95ddd8E', symObjAddr: 0x35F0, symBinAddr: 0x4714, symSize: 0x30 }
  - { offset: 0xB3B1, size: 0x8, addend: 0x0, symName: '__ZN113_$LT$pyo3..pycell..impl_..PyClassObject$LT$T$GT$$u20$as$u20$pyo3..pycell..impl_..PyClassObjectLayout$LT$T$GT$$GT$17ensure_threadsafe17hd5bc71c142ba0614E', symObjAddr: 0x3620, symBinAddr: 0x4744, symSize: 0x30 }
  - { offset: 0xB3E4, size: 0x8, addend: 0x0, symName: '__ZN113_$LT$pyo3..pycell..impl_..PyClassObject$LT$T$GT$$u20$as$u20$pyo3..pycell..impl_..PyClassObjectLayout$LT$T$GT$$GT$17ensure_threadsafe17hd91af2392ecc6e98E', symObjAddr: 0x3650, symBinAddr: 0x4774, symSize: 0x30 }
  - { offset: 0xB417, size: 0x8, addend: 0x0, symName: '__ZN113_$LT$pyo3..pycell..impl_..PyClassObject$LT$T$GT$$u20$as$u20$pyo3..pycell..impl_..PyClassObjectLayout$LT$T$GT$$GT$17ensure_threadsafe17hdb887b67c9168388E', symObjAddr: 0x3680, symBinAddr: 0x47A4, symSize: 0x30 }
  - { offset: 0xB44A, size: 0x8, addend: 0x0, symName: '__ZN113_$LT$pyo3..pycell..impl_..PyClassObject$LT$T$GT$$u20$as$u20$pyo3..pycell..impl_..PyClassObjectLayout$LT$T$GT$$GT$17ensure_threadsafe17hdcc2c6dc11ab5c89E', symObjAddr: 0x36B0, symBinAddr: 0x47D4, symSize: 0x30 }
  - { offset: 0xB47D, size: 0x8, addend: 0x0, symName: '__ZN113_$LT$pyo3..pycell..impl_..PyClassObject$LT$T$GT$$u20$as$u20$pyo3..pycell..impl_..PyClassObjectLayout$LT$T$GT$$GT$17ensure_threadsafe17hdcdb7017808698bdE', symObjAddr: 0x36E0, symBinAddr: 0x4804, symSize: 0x30 }
  - { offset: 0xB4B0, size: 0x8, addend: 0x0, symName: '__ZN113_$LT$pyo3..pycell..impl_..PyClassObject$LT$T$GT$$u20$as$u20$pyo3..pycell..impl_..PyClassObjectLayout$LT$T$GT$$GT$17ensure_threadsafe17hdd0a643ce0b251e4E', symObjAddr: 0x3710, symBinAddr: 0x4834, symSize: 0x30 }
  - { offset: 0xB4E3, size: 0x8, addend: 0x0, symName: '__ZN113_$LT$pyo3..pycell..impl_..PyClassObject$LT$T$GT$$u20$as$u20$pyo3..pycell..impl_..PyClassObjectLayout$LT$T$GT$$GT$17ensure_threadsafe17he1ada9cc6e5d361eE', symObjAddr: 0x3740, symBinAddr: 0x4864, symSize: 0x30 }
  - { offset: 0xB516, size: 0x8, addend: 0x0, symName: '__ZN113_$LT$pyo3..pycell..impl_..PyClassObject$LT$T$GT$$u20$as$u20$pyo3..pycell..impl_..PyClassObjectLayout$LT$T$GT$$GT$17ensure_threadsafe17he45ed4b7eb7950f4E', symObjAddr: 0x3770, symBinAddr: 0x4894, symSize: 0x30 }
  - { offset: 0xB549, size: 0x8, addend: 0x0, symName: '__ZN113_$LT$pyo3..pycell..impl_..PyClassObject$LT$T$GT$$u20$as$u20$pyo3..pycell..impl_..PyClassObjectLayout$LT$T$GT$$GT$17ensure_threadsafe17he6f31ce15f6770dbE', symObjAddr: 0x37A0, symBinAddr: 0x48C4, symSize: 0x30 }
  - { offset: 0xB57C, size: 0x8, addend: 0x0, symName: '__ZN113_$LT$pyo3..pycell..impl_..PyClassObject$LT$T$GT$$u20$as$u20$pyo3..pycell..impl_..PyClassObjectLayout$LT$T$GT$$GT$17ensure_threadsafe17hf8a96e6645f99f16E', symObjAddr: 0x37D0, symBinAddr: 0x48F4, symSize: 0x30 }
  - { offset: 0xB5AF, size: 0x8, addend: 0x0, symName: '__ZN113_$LT$pyo3..pycell..impl_..PyClassObject$LT$T$GT$$u20$as$u20$pyo3..pycell..impl_..PyClassObjectLayout$LT$T$GT$$GT$17ensure_threadsafe17hff13821cd445fb01E', symObjAddr: 0x3800, symBinAddr: 0x4924, symSize: 0x30 }
  - { offset: 0xB5E8, size: 0x8, addend: 0x0, symName: '__ZN117_$LT$pyo3..pycell..impl_..PyClassObjectBase$LT$U$GT$$u20$as$u20$pyo3..pycell..impl_..PyClassObjectLayout$LT$T$GT$$GT$10tp_dealloc17h7767a36b5ea2c2d8E', symObjAddr: 0x3830, symBinAddr: 0x4954, symSize: 0x270 }
  - { offset: 0xB6EB, size: 0x8, addend: 0x0, symName: '__ZN117_$LT$pyo3..pycell..impl_..PyClassObjectBase$LT$U$GT$$u20$as$u20$pyo3..pycell..impl_..PyClassObjectLayout$LT$T$GT$$GT$17ensure_threadsafe17h82b36fc158044c06E', symObjAddr: 0x3AA0, symBinAddr: 0x4BC4, symSize: 0x10 }
  - { offset: 0xF7B7, size: 0x8, addend: 0x0, symName: '__ZN4pyo36pycell5impl_22PyClassObject$LT$T$GT$14borrow_checker17h09833f856db1a502E', symObjAddr: 0x3AB0, symBinAddr: 0x4BD4, symSize: 0x24 }
  - { offset: 0xF7F0, size: 0x8, addend: 0x0, symName: '__ZN4pyo36pycell5impl_22PyClassObject$LT$T$GT$14borrow_checker17h0c3c911f23b75897E', symObjAddr: 0x3AD4, symBinAddr: 0x4BF8, symSize: 0x24 }
  - { offset: 0xF829, size: 0x8, addend: 0x0, symName: '__ZN4pyo36pycell5impl_22PyClassObject$LT$T$GT$14borrow_checker17h0d96e9f6c95fad80E', symObjAddr: 0x3AF8, symBinAddr: 0x4C1C, symSize: 0x24 }
  - { offset: 0xF862, size: 0x8, addend: 0x0, symName: '__ZN4pyo36pycell5impl_22PyClassObject$LT$T$GT$14borrow_checker17h129fe9a890d49040E', symObjAddr: 0x3B1C, symBinAddr: 0x4C40, symSize: 0x24 }
  - { offset: 0xF89B, size: 0x8, addend: 0x0, symName: '__ZN4pyo36pycell5impl_22PyClassObject$LT$T$GT$14borrow_checker17h17ca32611bf1768bE', symObjAddr: 0x3B40, symBinAddr: 0x4C64, symSize: 0x24 }
  - { offset: 0xF8D4, size: 0x8, addend: 0x0, symName: '__ZN4pyo36pycell5impl_22PyClassObject$LT$T$GT$14borrow_checker17h17f5d2468440c630E', symObjAddr: 0x3B64, symBinAddr: 0x4C88, symSize: 0x24 }
  - { offset: 0xF90D, size: 0x8, addend: 0x0, symName: '__ZN4pyo36pycell5impl_22PyClassObject$LT$T$GT$14borrow_checker17h246e4e16cf263b89E', symObjAddr: 0x3B88, symBinAddr: 0x4CAC, symSize: 0x24 }
  - { offset: 0xF946, size: 0x8, addend: 0x0, symName: '__ZN4pyo36pycell5impl_22PyClassObject$LT$T$GT$14borrow_checker17h277162ddb426a3ffE', symObjAddr: 0x3BAC, symBinAddr: 0x4CD0, symSize: 0x24 }
  - { offset: 0xF97F, size: 0x8, addend: 0x0, symName: '__ZN4pyo36pycell5impl_22PyClassObject$LT$T$GT$14borrow_checker17h2a9eeb6de0b3aba0E', symObjAddr: 0x3BD0, symBinAddr: 0x4CF4, symSize: 0x24 }
  - { offset: 0xF9B8, size: 0x8, addend: 0x0, symName: '__ZN4pyo36pycell5impl_22PyClassObject$LT$T$GT$14borrow_checker17h2fdc1b2570fb9f6dE', symObjAddr: 0x3BF4, symBinAddr: 0x4D18, symSize: 0x24 }
  - { offset: 0xF9F1, size: 0x8, addend: 0x0, symName: '__ZN4pyo36pycell5impl_22PyClassObject$LT$T$GT$14borrow_checker17h33ce160e0216db1bE', symObjAddr: 0x3C18, symBinAddr: 0x4D3C, symSize: 0x24 }
  - { offset: 0xFA2A, size: 0x8, addend: 0x0, symName: '__ZN4pyo36pycell5impl_22PyClassObject$LT$T$GT$14borrow_checker17h34443d019b61ab3cE', symObjAddr: 0x3C3C, symBinAddr: 0x4D60, symSize: 0x24 }
  - { offset: 0xFA63, size: 0x8, addend: 0x0, symName: '__ZN4pyo36pycell5impl_22PyClassObject$LT$T$GT$14borrow_checker17h3dd60e305e7e4088E', symObjAddr: 0x3C60, symBinAddr: 0x4D84, symSize: 0x24 }
  - { offset: 0xFA9C, size: 0x8, addend: 0x0, symName: '__ZN4pyo36pycell5impl_22PyClassObject$LT$T$GT$14borrow_checker17h431bf4dc629a4ce3E', symObjAddr: 0x3C84, symBinAddr: 0x4DA8, symSize: 0x24 }
  - { offset: 0xFAD5, size: 0x8, addend: 0x0, symName: '__ZN4pyo36pycell5impl_22PyClassObject$LT$T$GT$14borrow_checker17h50b0f0346a8754ebE', symObjAddr: 0x3CA8, symBinAddr: 0x4DCC, symSize: 0x24 }
  - { offset: 0xFB0E, size: 0x8, addend: 0x0, symName: '__ZN4pyo36pycell5impl_22PyClassObject$LT$T$GT$14borrow_checker17h5567797c99148d0aE', symObjAddr: 0x3CCC, symBinAddr: 0x4DF0, symSize: 0x24 }
  - { offset: 0xFB47, size: 0x8, addend: 0x0, symName: '__ZN4pyo36pycell5impl_22PyClassObject$LT$T$GT$14borrow_checker17h59b7d17cb0e8c35bE', symObjAddr: 0x3CF0, symBinAddr: 0x4E14, symSize: 0x24 }
  - { offset: 0xFB80, size: 0x8, addend: 0x0, symName: '__ZN4pyo36pycell5impl_22PyClassObject$LT$T$GT$14borrow_checker17h5fbe27dbfb5a01a5E', symObjAddr: 0x3D14, symBinAddr: 0x4E38, symSize: 0x24 }
  - { offset: 0xFBB9, size: 0x8, addend: 0x0, symName: '__ZN4pyo36pycell5impl_22PyClassObject$LT$T$GT$14borrow_checker17h65b69706a7c04413E', symObjAddr: 0x3D38, symBinAddr: 0x4E5C, symSize: 0x24 }
  - { offset: 0xFBF2, size: 0x8, addend: 0x0, symName: '__ZN4pyo36pycell5impl_22PyClassObject$LT$T$GT$14borrow_checker17h66c40bc4c2d0034eE', symObjAddr: 0x3D5C, symBinAddr: 0x4E80, symSize: 0x24 }
  - { offset: 0xFC2B, size: 0x8, addend: 0x0, symName: '__ZN4pyo36pycell5impl_22PyClassObject$LT$T$GT$14borrow_checker17h6bbf2d7459fdb5a2E', symObjAddr: 0x3D80, symBinAddr: 0x4EA4, symSize: 0x24 }
  - { offset: 0xFC64, size: 0x8, addend: 0x0, symName: '__ZN4pyo36pycell5impl_22PyClassObject$LT$T$GT$14borrow_checker17h71256140406300c6E', symObjAddr: 0x3DA4, symBinAddr: 0x4EC8, symSize: 0x24 }
  - { offset: 0xFD7C, size: 0x8, addend: 0x0, symName: '__ZN4pyo36pycell5impl_22PyClassObject$LT$T$GT$14borrow_checker17h72062d4f8c7ad859E', symObjAddr: 0x3DC8, symBinAddr: 0x4EEC, symSize: 0x24 }
  - { offset: 0xFDB5, size: 0x8, addend: 0x0, symName: '__ZN4pyo36pycell5impl_22PyClassObject$LT$T$GT$14borrow_checker17h7677f6fd4808e145E', symObjAddr: 0x3DEC, symBinAddr: 0x4F10, symSize: 0x24 }
  - { offset: 0xFDEE, size: 0x8, addend: 0x0, symName: '__ZN4pyo36pycell5impl_22PyClassObject$LT$T$GT$14borrow_checker17h79b3486f05cfe610E', symObjAddr: 0x3E10, symBinAddr: 0x4F34, symSize: 0x24 }
  - { offset: 0xFE27, size: 0x8, addend: 0x0, symName: '__ZN4pyo36pycell5impl_22PyClassObject$LT$T$GT$14borrow_checker17h80c9659d8bfcdf06E', symObjAddr: 0x3E34, symBinAddr: 0x4F58, symSize: 0x24 }
  - { offset: 0xFE60, size: 0x8, addend: 0x0, symName: '__ZN4pyo36pycell5impl_22PyClassObject$LT$T$GT$14borrow_checker17h82177a087064fa0fE', symObjAddr: 0x3E58, symBinAddr: 0x4F7C, symSize: 0x24 }
  - { offset: 0xFE99, size: 0x8, addend: 0x0, symName: '__ZN4pyo36pycell5impl_22PyClassObject$LT$T$GT$14borrow_checker17h83c7b16d38dae244E', symObjAddr: 0x3E7C, symBinAddr: 0x4FA0, symSize: 0x24 }
  - { offset: 0xFED2, size: 0x8, addend: 0x0, symName: '__ZN4pyo36pycell5impl_22PyClassObject$LT$T$GT$14borrow_checker17h854e4425582d5840E', symObjAddr: 0x3EA0, symBinAddr: 0x4FC4, symSize: 0x24 }
  - { offset: 0xFF0B, size: 0x8, addend: 0x0, symName: '__ZN4pyo36pycell5impl_22PyClassObject$LT$T$GT$14borrow_checker17h88501f49b743e22dE', symObjAddr: 0x3EC4, symBinAddr: 0x4FE8, symSize: 0x24 }
  - { offset: 0xFF44, size: 0x8, addend: 0x0, symName: '__ZN4pyo36pycell5impl_22PyClassObject$LT$T$GT$14borrow_checker17h89e81e2499546e05E', symObjAddr: 0x3EE8, symBinAddr: 0x500C, symSize: 0x24 }
  - { offset: 0xFF7D, size: 0x8, addend: 0x0, symName: '__ZN4pyo36pycell5impl_22PyClassObject$LT$T$GT$14borrow_checker17h95d4e6dc9f5a4311E', symObjAddr: 0x3F0C, symBinAddr: 0x5030, symSize: 0x24 }
  - { offset: 0xFFB6, size: 0x8, addend: 0x0, symName: '__ZN4pyo36pycell5impl_22PyClassObject$LT$T$GT$14borrow_checker17h9689a67c6a83de63E', symObjAddr: 0x3F30, symBinAddr: 0x5054, symSize: 0x24 }
  - { offset: 0xFFEF, size: 0x8, addend: 0x0, symName: '__ZN4pyo36pycell5impl_22PyClassObject$LT$T$GT$14borrow_checker17h9770623d6133c5d1E', symObjAddr: 0x3F54, symBinAddr: 0x5078, symSize: 0x24 }
  - { offset: 0x10028, size: 0x8, addend: 0x0, symName: '__ZN4pyo36pycell5impl_22PyClassObject$LT$T$GT$14borrow_checker17h98042376da5e30e6E', symObjAddr: 0x3F78, symBinAddr: 0x509C, symSize: 0x24 }
  - { offset: 0x10061, size: 0x8, addend: 0x0, symName: '__ZN4pyo36pycell5impl_22PyClassObject$LT$T$GT$14borrow_checker17h989b0f120f3066c1E', symObjAddr: 0x3F9C, symBinAddr: 0x50C0, symSize: 0x24 }
  - { offset: 0x1009A, size: 0x8, addend: 0x0, symName: '__ZN4pyo36pycell5impl_22PyClassObject$LT$T$GT$14borrow_checker17h9ab365d96a513202E', symObjAddr: 0x3FC0, symBinAddr: 0x50E4, symSize: 0x24 }
  - { offset: 0x100D3, size: 0x8, addend: 0x0, symName: '__ZN4pyo36pycell5impl_22PyClassObject$LT$T$GT$14borrow_checker17h9c4c0983933f2c1eE', symObjAddr: 0x3FE4, symBinAddr: 0x5108, symSize: 0x24 }
  - { offset: 0x1010C, size: 0x8, addend: 0x0, symName: '__ZN4pyo36pycell5impl_22PyClassObject$LT$T$GT$14borrow_checker17h9dc79ef0252101f8E', symObjAddr: 0x4008, symBinAddr: 0x512C, symSize: 0x24 }
  - { offset: 0x10145, size: 0x8, addend: 0x0, symName: '__ZN4pyo36pycell5impl_22PyClassObject$LT$T$GT$14borrow_checker17ha840d17b0d57270fE', symObjAddr: 0x402C, symBinAddr: 0x5150, symSize: 0x24 }
  - { offset: 0x1017E, size: 0x8, addend: 0x0, symName: '__ZN4pyo36pycell5impl_22PyClassObject$LT$T$GT$14borrow_checker17haaa9a29d3b0f06b7E', symObjAddr: 0x4050, symBinAddr: 0x5174, symSize: 0x24 }
  - { offset: 0x101B7, size: 0x8, addend: 0x0, symName: '__ZN4pyo36pycell5impl_22PyClassObject$LT$T$GT$14borrow_checker17haaed60580a5c1fc5E', symObjAddr: 0x4074, symBinAddr: 0x5198, symSize: 0x24 }
  - { offset: 0x101F0, size: 0x8, addend: 0x0, symName: '__ZN4pyo36pycell5impl_22PyClassObject$LT$T$GT$14borrow_checker17hac6329361f2f1bd1E', symObjAddr: 0x4098, symBinAddr: 0x51BC, symSize: 0x24 }
  - { offset: 0x10229, size: 0x8, addend: 0x0, symName: '__ZN4pyo36pycell5impl_22PyClassObject$LT$T$GT$14borrow_checker17had1a4b6b68b7164eE', symObjAddr: 0x40BC, symBinAddr: 0x51E0, symSize: 0x24 }
  - { offset: 0x10262, size: 0x8, addend: 0x0, symName: '__ZN4pyo36pycell5impl_22PyClassObject$LT$T$GT$14borrow_checker17hb2aa549afa3d8e13E', symObjAddr: 0x40E0, symBinAddr: 0x5204, symSize: 0x24 }
  - { offset: 0x1029B, size: 0x8, addend: 0x0, symName: '__ZN4pyo36pycell5impl_22PyClassObject$LT$T$GT$14borrow_checker17hb2ac68bfb7f2e09dE', symObjAddr: 0x4104, symBinAddr: 0x5228, symSize: 0x24 }
  - { offset: 0x102D4, size: 0x8, addend: 0x0, symName: '__ZN4pyo36pycell5impl_22PyClassObject$LT$T$GT$14borrow_checker17hb33b2a3af78387eaE', symObjAddr: 0x4128, symBinAddr: 0x524C, symSize: 0x24 }
  - { offset: 0x1030D, size: 0x8, addend: 0x0, symName: '__ZN4pyo36pycell5impl_22PyClassObject$LT$T$GT$14borrow_checker17hb715c78101bb9b20E', symObjAddr: 0x414C, symBinAddr: 0x5270, symSize: 0x24 }
  - { offset: 0x10346, size: 0x8, addend: 0x0, symName: '__ZN4pyo36pycell5impl_22PyClassObject$LT$T$GT$14borrow_checker17hba30351d0d199734E', symObjAddr: 0x4170, symBinAddr: 0x5294, symSize: 0x24 }
  - { offset: 0x1037F, size: 0x8, addend: 0x0, symName: '__ZN4pyo36pycell5impl_22PyClassObject$LT$T$GT$14borrow_checker17hbefce9b9137b7cd4E', symObjAddr: 0x4194, symBinAddr: 0x52B8, symSize: 0x24 }
  - { offset: 0x103B8, size: 0x8, addend: 0x0, symName: '__ZN4pyo36pycell5impl_22PyClassObject$LT$T$GT$14borrow_checker17hc0733fc190f663caE', symObjAddr: 0x41B8, symBinAddr: 0x52DC, symSize: 0x24 }
  - { offset: 0x103F1, size: 0x8, addend: 0x0, symName: '__ZN4pyo36pycell5impl_22PyClassObject$LT$T$GT$14borrow_checker17hca1dfccfcade4bb3E', symObjAddr: 0x41DC, symBinAddr: 0x5300, symSize: 0x24 }
  - { offset: 0x1042A, size: 0x8, addend: 0x0, symName: '__ZN4pyo36pycell5impl_22PyClassObject$LT$T$GT$14borrow_checker17hccde7cd1d35f5490E', symObjAddr: 0x4200, symBinAddr: 0x5324, symSize: 0x24 }
  - { offset: 0x10463, size: 0x8, addend: 0x0, symName: '__ZN4pyo36pycell5impl_22PyClassObject$LT$T$GT$14borrow_checker17hcf57cdb52374d926E', symObjAddr: 0x4224, symBinAddr: 0x5348, symSize: 0x24 }
  - { offset: 0x1049C, size: 0x8, addend: 0x0, symName: '__ZN4pyo36pycell5impl_22PyClassObject$LT$T$GT$14borrow_checker17hdf05f04aee05b753E', symObjAddr: 0x4248, symBinAddr: 0x536C, symSize: 0x24 }
  - { offset: 0x104D5, size: 0x8, addend: 0x0, symName: '__ZN4pyo36pycell5impl_22PyClassObject$LT$T$GT$14borrow_checker17he6498583bfb6046bE', symObjAddr: 0x426C, symBinAddr: 0x5390, symSize: 0x24 }
  - { offset: 0x1050E, size: 0x8, addend: 0x0, symName: '__ZN4pyo36pycell5impl_22PyClassObject$LT$T$GT$14borrow_checker17heb1b0cca442e688aE', symObjAddr: 0x4290, symBinAddr: 0x53B4, symSize: 0x24 }
  - { offset: 0x10547, size: 0x8, addend: 0x0, symName: '__ZN4pyo36pycell5impl_22PyClassObject$LT$T$GT$14borrow_checker17hf8e03bb7c31125b7E', symObjAddr: 0x42B4, symBinAddr: 0x53D8, symSize: 0x24 }
  - { offset: 0x10580, size: 0x8, addend: 0x0, symName: '__ZN4pyo36pycell5impl_22PyClassObject$LT$T$GT$7get_ptr17h0c3294cdaaf44d26E', symObjAddr: 0x42D8, symBinAddr: 0x53FC, symSize: 0x24 }
  - { offset: 0x105B9, size: 0x8, addend: 0x0, symName: '__ZN4pyo36pycell5impl_22PyClassObject$LT$T$GT$7get_ptr17h0d4cf40ea443ca17E', symObjAddr: 0x42FC, symBinAddr: 0x5420, symSize: 0x24 }
  - { offset: 0x105F2, size: 0x8, addend: 0x0, symName: '__ZN4pyo36pycell5impl_22PyClassObject$LT$T$GT$7get_ptr17h0f828d7ea84dbdecE', symObjAddr: 0x4320, symBinAddr: 0x5444, symSize: 0x24 }
  - { offset: 0x1062B, size: 0x8, addend: 0x0, symName: '__ZN4pyo36pycell5impl_22PyClassObject$LT$T$GT$7get_ptr17h11bbc10c61f95644E', symObjAddr: 0x4344, symBinAddr: 0x5468, symSize: 0x24 }
  - { offset: 0x10664, size: 0x8, addend: 0x0, symName: '__ZN4pyo36pycell5impl_22PyClassObject$LT$T$GT$7get_ptr17h15f0068fc5cc4a04E', symObjAddr: 0x4368, symBinAddr: 0x548C, symSize: 0x24 }
  - { offset: 0x1069D, size: 0x8, addend: 0x0, symName: '__ZN4pyo36pycell5impl_22PyClassObject$LT$T$GT$7get_ptr17h16302478ba0913fbE', symObjAddr: 0x438C, symBinAddr: 0x54B0, symSize: 0x24 }
  - { offset: 0x106D6, size: 0x8, addend: 0x0, symName: '__ZN4pyo36pycell5impl_22PyClassObject$LT$T$GT$7get_ptr17h1c1c1e57847a8234E', symObjAddr: 0x43B0, symBinAddr: 0x54D4, symSize: 0x24 }
  - { offset: 0x1070F, size: 0x8, addend: 0x0, symName: '__ZN4pyo36pycell5impl_22PyClassObject$LT$T$GT$7get_ptr17h1c78becb49d78c99E', symObjAddr: 0x43D4, symBinAddr: 0x54F8, symSize: 0x24 }
  - { offset: 0x10748, size: 0x8, addend: 0x0, symName: '__ZN4pyo36pycell5impl_22PyClassObject$LT$T$GT$7get_ptr17h21aee95489db9359E', symObjAddr: 0x43F8, symBinAddr: 0x551C, symSize: 0x24 }
  - { offset: 0x10781, size: 0x8, addend: 0x0, symName: '__ZN4pyo36pycell5impl_22PyClassObject$LT$T$GT$7get_ptr17h21f8498e2a73dea4E', symObjAddr: 0x441C, symBinAddr: 0x5540, symSize: 0x24 }
  - { offset: 0x107BA, size: 0x8, addend: 0x0, symName: '__ZN4pyo36pycell5impl_22PyClassObject$LT$T$GT$7get_ptr17h23fabbd4129d31f2E', symObjAddr: 0x4440, symBinAddr: 0x5564, symSize: 0x24 }
  - { offset: 0x107F3, size: 0x8, addend: 0x0, symName: '__ZN4pyo36pycell5impl_22PyClassObject$LT$T$GT$7get_ptr17h25b7fb1f8aea43a8E', symObjAddr: 0x4464, symBinAddr: 0x5588, symSize: 0x24 }
  - { offset: 0x1082C, size: 0x8, addend: 0x0, symName: '__ZN4pyo36pycell5impl_22PyClassObject$LT$T$GT$7get_ptr17h2b29d7c616a65221E', symObjAddr: 0x4488, symBinAddr: 0x55AC, symSize: 0x24 }
  - { offset: 0x10865, size: 0x8, addend: 0x0, symName: '__ZN4pyo36pycell5impl_22PyClassObject$LT$T$GT$7get_ptr17h31905d0bcbb6319eE', symObjAddr: 0x44AC, symBinAddr: 0x55D0, symSize: 0x24 }
  - { offset: 0x1089E, size: 0x8, addend: 0x0, symName: '__ZN4pyo36pycell5impl_22PyClassObject$LT$T$GT$7get_ptr17h31b3f08c8a48c4efE', symObjAddr: 0x44D0, symBinAddr: 0x55F4, symSize: 0x24 }
  - { offset: 0x108D7, size: 0x8, addend: 0x0, symName: '__ZN4pyo36pycell5impl_22PyClassObject$LT$T$GT$7get_ptr17h33bbc0a2f6d4eb14E', symObjAddr: 0x44F4, symBinAddr: 0x5618, symSize: 0x24 }
  - { offset: 0x10910, size: 0x8, addend: 0x0, symName: '__ZN4pyo36pycell5impl_22PyClassObject$LT$T$GT$7get_ptr17h390a6b7cfeaeb69bE', symObjAddr: 0x4518, symBinAddr: 0x563C, symSize: 0x24 }
  - { offset: 0x10949, size: 0x8, addend: 0x0, symName: '__ZN4pyo36pycell5impl_22PyClassObject$LT$T$GT$7get_ptr17h46d0712a9bcc858dE', symObjAddr: 0x453C, symBinAddr: 0x5660, symSize: 0x24 }
  - { offset: 0x10982, size: 0x8, addend: 0x0, symName: '__ZN4pyo36pycell5impl_22PyClassObject$LT$T$GT$7get_ptr17h4fd62d34f4f40282E', symObjAddr: 0x4560, symBinAddr: 0x5684, symSize: 0x24 }
  - { offset: 0x109BB, size: 0x8, addend: 0x0, symName: '__ZN4pyo36pycell5impl_22PyClassObject$LT$T$GT$7get_ptr17h50a1943e0d14c072E', symObjAddr: 0x4584, symBinAddr: 0x56A8, symSize: 0x24 }
  - { offset: 0x109F4, size: 0x8, addend: 0x0, symName: '__ZN4pyo36pycell5impl_22PyClassObject$LT$T$GT$7get_ptr17h531d0e802aa183e0E', symObjAddr: 0x45A8, symBinAddr: 0x56CC, symSize: 0x24 }
  - { offset: 0x10A2D, size: 0x8, addend: 0x0, symName: '__ZN4pyo36pycell5impl_22PyClassObject$LT$T$GT$7get_ptr17h571139fff50dd440E', symObjAddr: 0x45CC, symBinAddr: 0x56F0, symSize: 0x24 }
  - { offset: 0x10A66, size: 0x8, addend: 0x0, symName: '__ZN4pyo36pycell5impl_22PyClassObject$LT$T$GT$7get_ptr17h59beebbc20b30e20E', symObjAddr: 0x45F0, symBinAddr: 0x5714, symSize: 0x24 }
  - { offset: 0x10A9F, size: 0x8, addend: 0x0, symName: '__ZN4pyo36pycell5impl_22PyClassObject$LT$T$GT$7get_ptr17h5a9cc76f7a0e18daE', symObjAddr: 0x4614, symBinAddr: 0x5738, symSize: 0x24 }
  - { offset: 0x10AD8, size: 0x8, addend: 0x0, symName: '__ZN4pyo36pycell5impl_22PyClassObject$LT$T$GT$7get_ptr17h5c8b78f435f670c4E', symObjAddr: 0x4638, symBinAddr: 0x575C, symSize: 0x24 }
  - { offset: 0x10B11, size: 0x8, addend: 0x0, symName: '__ZN4pyo36pycell5impl_22PyClassObject$LT$T$GT$7get_ptr17h628922c8c4316e19E', symObjAddr: 0x465C, symBinAddr: 0x5780, symSize: 0x24 }
  - { offset: 0x10B4A, size: 0x8, addend: 0x0, symName: '__ZN4pyo36pycell5impl_22PyClassObject$LT$T$GT$7get_ptr17h644f1ce761b84193E', symObjAddr: 0x4680, symBinAddr: 0x57A4, symSize: 0x24 }
  - { offset: 0x10B83, size: 0x8, addend: 0x0, symName: '__ZN4pyo36pycell5impl_22PyClassObject$LT$T$GT$7get_ptr17h66b40d0b889776a5E', symObjAddr: 0x46A4, symBinAddr: 0x57C8, symSize: 0x24 }
  - { offset: 0x10BBC, size: 0x8, addend: 0x0, symName: '__ZN4pyo36pycell5impl_22PyClassObject$LT$T$GT$7get_ptr17h6f3f980f4f796f40E', symObjAddr: 0x46C8, symBinAddr: 0x57EC, symSize: 0x24 }
  - { offset: 0x10BF5, size: 0x8, addend: 0x0, symName: '__ZN4pyo36pycell5impl_22PyClassObject$LT$T$GT$7get_ptr17h77ec263ca54aa75dE', symObjAddr: 0x46EC, symBinAddr: 0x5810, symSize: 0x24 }
  - { offset: 0x10C2E, size: 0x8, addend: 0x0, symName: '__ZN4pyo36pycell5impl_22PyClassObject$LT$T$GT$7get_ptr17h796ca29623500f44E', symObjAddr: 0x4710, symBinAddr: 0x5834, symSize: 0x24 }
  - { offset: 0x10C67, size: 0x8, addend: 0x0, symName: '__ZN4pyo36pycell5impl_22PyClassObject$LT$T$GT$7get_ptr17h7b8e804ec94acda9E', symObjAddr: 0x4734, symBinAddr: 0x5858, symSize: 0x24 }
  - { offset: 0x10CA0, size: 0x8, addend: 0x0, symName: '__ZN4pyo36pycell5impl_22PyClassObject$LT$T$GT$7get_ptr17h7ca8b33f2c2cc94dE', symObjAddr: 0x4758, symBinAddr: 0x587C, symSize: 0x24 }
  - { offset: 0x10CD9, size: 0x8, addend: 0x0, symName: '__ZN4pyo36pycell5impl_22PyClassObject$LT$T$GT$7get_ptr17h8400ab0d37f7df23E', symObjAddr: 0x477C, symBinAddr: 0x58A0, symSize: 0x24 }
  - { offset: 0x10D12, size: 0x8, addend: 0x0, symName: '__ZN4pyo36pycell5impl_22PyClassObject$LT$T$GT$7get_ptr17h8e365ea83dc1672aE', symObjAddr: 0x47A0, symBinAddr: 0x58C4, symSize: 0x24 }
  - { offset: 0x10D4B, size: 0x8, addend: 0x0, symName: '__ZN4pyo36pycell5impl_22PyClassObject$LT$T$GT$7get_ptr17h9807cdd6ad24d8c5E', symObjAddr: 0x47C4, symBinAddr: 0x58E8, symSize: 0x24 }
  - { offset: 0x10D84, size: 0x8, addend: 0x0, symName: '__ZN4pyo36pycell5impl_22PyClassObject$LT$T$GT$7get_ptr17h98be31b3e57353f5E', symObjAddr: 0x47E8, symBinAddr: 0x590C, symSize: 0x24 }
  - { offset: 0x10DBD, size: 0x8, addend: 0x0, symName: '__ZN4pyo36pycell5impl_22PyClassObject$LT$T$GT$7get_ptr17h9d79bb741566947eE', symObjAddr: 0x480C, symBinAddr: 0x5930, symSize: 0x24 }
  - { offset: 0x10DF6, size: 0x8, addend: 0x0, symName: '__ZN4pyo36pycell5impl_22PyClassObject$LT$T$GT$7get_ptr17h9e123fa7a87df2b8E', symObjAddr: 0x4830, symBinAddr: 0x5954, symSize: 0x24 }
  - { offset: 0x10E2F, size: 0x8, addend: 0x0, symName: '__ZN4pyo36pycell5impl_22PyClassObject$LT$T$GT$7get_ptr17ha6f17a73a548d754E', symObjAddr: 0x4854, symBinAddr: 0x5978, symSize: 0x24 }
  - { offset: 0x10E68, size: 0x8, addend: 0x0, symName: '__ZN4pyo36pycell5impl_22PyClassObject$LT$T$GT$7get_ptr17haf8e70d1a851741bE', symObjAddr: 0x4878, symBinAddr: 0x599C, symSize: 0x24 }
  - { offset: 0x10EA1, size: 0x8, addend: 0x0, symName: '__ZN4pyo36pycell5impl_22PyClassObject$LT$T$GT$7get_ptr17hb1a9249b4d624d49E', symObjAddr: 0x489C, symBinAddr: 0x59C0, symSize: 0x24 }
  - { offset: 0x10EDA, size: 0x8, addend: 0x0, symName: '__ZN4pyo36pycell5impl_22PyClassObject$LT$T$GT$7get_ptr17hb7496144f844f97cE', symObjAddr: 0x48C0, symBinAddr: 0x59E4, symSize: 0x24 }
  - { offset: 0x10F13, size: 0x8, addend: 0x0, symName: '__ZN4pyo36pycell5impl_22PyClassObject$LT$T$GT$7get_ptr17hbbeca5a87661d85aE', symObjAddr: 0x48E4, symBinAddr: 0x5A08, symSize: 0x24 }
  - { offset: 0x10F4C, size: 0x8, addend: 0x0, symName: '__ZN4pyo36pycell5impl_22PyClassObject$LT$T$GT$7get_ptr17hbfe0a61412b95c57E', symObjAddr: 0x4908, symBinAddr: 0x5A2C, symSize: 0x24 }
  - { offset: 0x10F85, size: 0x8, addend: 0x0, symName: '__ZN4pyo36pycell5impl_22PyClassObject$LT$T$GT$7get_ptr17hc00f34c329800707E', symObjAddr: 0x492C, symBinAddr: 0x5A50, symSize: 0x24 }
  - { offset: 0x10FBE, size: 0x8, addend: 0x0, symName: '__ZN4pyo36pycell5impl_22PyClassObject$LT$T$GT$7get_ptr17hc29e588670e4d7f3E', symObjAddr: 0x4950, symBinAddr: 0x5A74, symSize: 0x24 }
  - { offset: 0x10FF7, size: 0x8, addend: 0x0, symName: '__ZN4pyo36pycell5impl_22PyClassObject$LT$T$GT$7get_ptr17hc9f1d2d264e09af3E', symObjAddr: 0x4974, symBinAddr: 0x5A98, symSize: 0x24 }
  - { offset: 0x11030, size: 0x8, addend: 0x0, symName: '__ZN4pyo36pycell5impl_22PyClassObject$LT$T$GT$7get_ptr17hd5f040513f6f2554E', symObjAddr: 0x4998, symBinAddr: 0x5ABC, symSize: 0x24 }
  - { offset: 0x11069, size: 0x8, addend: 0x0, symName: '__ZN4pyo36pycell5impl_22PyClassObject$LT$T$GT$7get_ptr17hd72c46163c6028eaE', symObjAddr: 0x49BC, symBinAddr: 0x5AE0, symSize: 0x24 }
  - { offset: 0x110A2, size: 0x8, addend: 0x0, symName: '__ZN4pyo36pycell5impl_22PyClassObject$LT$T$GT$7get_ptr17hd80c4bac6de6ae8dE', symObjAddr: 0x49E0, symBinAddr: 0x5B04, symSize: 0x24 }
  - { offset: 0x110DB, size: 0x8, addend: 0x0, symName: '__ZN4pyo36pycell5impl_22PyClassObject$LT$T$GT$7get_ptr17hd8f389cf6b47d607E', symObjAddr: 0x4A04, symBinAddr: 0x5B28, symSize: 0x24 }
  - { offset: 0x11114, size: 0x8, addend: 0x0, symName: '__ZN4pyo36pycell5impl_22PyClassObject$LT$T$GT$7get_ptr17hdb0b56da6394bdb1E', symObjAddr: 0x4A28, symBinAddr: 0x5B4C, symSize: 0x24 }
  - { offset: 0x1114D, size: 0x8, addend: 0x0, symName: '__ZN4pyo36pycell5impl_22PyClassObject$LT$T$GT$7get_ptr17hddc8f8bc526e37a8E', symObjAddr: 0x4A4C, symBinAddr: 0x5B70, symSize: 0x24 }
  - { offset: 0x11186, size: 0x8, addend: 0x0, symName: '__ZN4pyo36pycell5impl_22PyClassObject$LT$T$GT$7get_ptr17he11b01a3cf43965cE', symObjAddr: 0x4A70, symBinAddr: 0x5B94, symSize: 0x24 }
  - { offset: 0x111BF, size: 0x8, addend: 0x0, symName: '__ZN4pyo36pycell5impl_22PyClassObject$LT$T$GT$7get_ptr17he24d3a6dccdfe9c8E', symObjAddr: 0x4A94, symBinAddr: 0x5BB8, symSize: 0x24 }
  - { offset: 0x111F8, size: 0x8, addend: 0x0, symName: '__ZN4pyo36pycell5impl_22PyClassObject$LT$T$GT$7get_ptr17he796c191182b8f85E', symObjAddr: 0x4AB8, symBinAddr: 0x5BDC, symSize: 0x24 }
  - { offset: 0x11231, size: 0x8, addend: 0x0, symName: '__ZN4pyo36pycell5impl_22PyClassObject$LT$T$GT$7get_ptr17hf2aedfbfaec32efcE', symObjAddr: 0x4ADC, symBinAddr: 0x5C00, symSize: 0x24 }
  - { offset: 0x115BF, size: 0x8, addend: 0x0, symName: '__ZN108_$LT$core..iter..adapters..filter..Filter$LT$I$C$P$GT$$u20$as$u20$core..iter..traits..iterator..Iterator$GT$8try_fold17hb51882d1dcb3aaf8E', symObjAddr: 0x0, symBinAddr: 0x5C24, symSize: 0x3C }
  - { offset: 0x127DD, size: 0x8, addend: 0x0, symName: '__ZN108_$LT$core..iter..adapters..filter..Filter$LT$I$C$P$GT$$u20$as$u20$core..iter..traits..iterator..Iterator$GT$8try_fold17hb51882d1dcb3aaf8E', symObjAddr: 0x0, symBinAddr: 0x5C24, symSize: 0x3C }
  - { offset: 0x12852, size: 0x8, addend: 0x0, symName: '__ZN108_$LT$core..iter..adapters..filter..Filter$LT$I$C$P$GT$$u20$as$u20$core..iter..traits..iterator..Iterator$GT$9size_hint17h5b504b065b04b138E', symObjAddr: 0x3C, symBinAddr: 0x5C60, symSize: 0x4C }
  - { offset: 0x128B3, size: 0x8, addend: 0x0, symName: '__ZN4core4iter8adapters6filter15filter_try_fold28_$u7b$$u7b$closure$u7d$$u7d$17he190da194023a933E', symObjAddr: 0x118, symBinAddr: 0x5D3C, symSize: 0xF8 }
  - { offset: 0x12981, size: 0x8, addend: 0x0, symName: __ZN4core4iter6traits8iterator8Iterator8find_map17hdc4fe8af27583e3bE, symObjAddr: 0x88, symBinAddr: 0x5CAC, symSize: 0x90 }
  - { offset: 0x131C4, size: 0x8, addend: 0x0, symName: __ZN4pyo36marker6Python8with_gil17h58b0bfe4327a4716E, symObjAddr: 0x0, symBinAddr: 0x5E34, symSize: 0xE8 }
  - { offset: 0x15279, size: 0x8, addend: 0x0, symName: __ZN4pyo36marker6Python8with_gil17h58b0bfe4327a4716E, symObjAddr: 0x0, symBinAddr: 0x5E34, symSize: 0xE8 }
  - { offset: 0x152E2, size: 0x8, addend: 0x0, symName: '__ZN4core3cmp5impls50_$LT$impl$u20$core..cmp..Ord$u20$for$u20$usize$GT$3cmp17hfee28604620786ffE', symObjAddr: 0x0, symBinAddr: 0x5F1C, symSize: 0x38 }
  - { offset: 0x15321, size: 0x8, addend: 0x0, symName: '__ZN4core3cmp5impls50_$LT$impl$u20$core..cmp..Ord$u20$for$u20$usize$GT$3cmp17hfee28604620786ffE', symObjAddr: 0x0, symBinAddr: 0x5F1C, symSize: 0x38 }
  - { offset: 0x1539B, size: 0x8, addend: 0x0, symName: '__ZN4core4cell13Cell$LT$T$GT$3new17h3988624b2353df2eE', symObjAddr: 0x0, symBinAddr: 0x5F54, symSize: 0x10 }
  - { offset: 0x1543D, size: 0x8, addend: 0x0, symName: '__ZN4core4cell13Cell$LT$T$GT$3new17h3988624b2353df2eE', symObjAddr: 0x0, symBinAddr: 0x5F54, symSize: 0x10 }
  - { offset: 0x15487, size: 0x8, addend: 0x0, symName: '__ZN73_$LT$pyo3..types..any..PyAny$u20$as$u20$pyo3..type_object..PyTypeInfo$GT$15type_object_raw17hfe9223e9c05a12e2E', symObjAddr: 0x0, symBinAddr: 0x5F64, symSize: 0x24 }
  - { offset: 0x16539, size: 0x8, addend: 0x0, symName: '__ZN73_$LT$pyo3..types..any..PyAny$u20$as$u20$pyo3..type_object..PyTypeInfo$GT$15type_object_raw17hfe9223e9c05a12e2E', symObjAddr: 0x0, symBinAddr: 0x5F64, symSize: 0x24 }
  - { offset: 0x16A9A, size: 0x8, addend: 0x0, symName: '__ZN110_$LT$core..iter..adapters..enumerate..Enumerate$LT$I$GT$$u20$as$u20$core..iter..traits..iterator..Iterator$GT$4next17hf4af21dad7c1a4c0E', symObjAddr: 0x0, symBinAddr: 0x5F88, symSize: 0xE0 }
  - { offset: 0x1749F, size: 0x8, addend: 0x0, symName: '__ZN110_$LT$core..iter..adapters..enumerate..Enumerate$LT$I$GT$$u20$as$u20$core..iter..traits..iterator..Iterator$GT$4next17hf4af21dad7c1a4c0E', symObjAddr: 0x0, symBinAddr: 0x5F88, symSize: 0xE0 }
  - { offset: 0x175BD, size: 0x8, addend: 0x0, symName: '__ZN63_$LT$I$u20$as$u20$core..iter..traits..collect..IntoIterator$GT$9into_iter17ha3835fe243c71b7aE', symObjAddr: 0xE0, symBinAddr: 0x6068, symSize: 0x18 }
  - { offset: 0x17A29, size: 0x8, addend: 0x0, symName: __ZN4pyo33gil8GILGuard6python17hc591620337871c2eE, symObjAddr: 0x0, symBinAddr: 0x6080, symSize: 0x20 }
  - { offset: 0x17AD9, size: 0x8, addend: 0x0, symName: __ZN4pyo33gil8GILGuard6python17hc591620337871c2eE, symObjAddr: 0x0, symBinAddr: 0x6080, symSize: 0x20 }
  - { offset: 0x17B19, size: 0x8, addend: 0x0, symName: '__ZN4core3str21_$LT$impl$u20$str$GT$12char_indices17h829a9b8bfeaa9376E', symObjAddr: 0x0, symBinAddr: 0x60A0, symSize: 0x3C }
  - { offset: 0x17B35, size: 0x8, addend: 0x0, symName: '__ZN4core3str21_$LT$impl$u20$str$GT$12char_indices17h829a9b8bfeaa9376E', symObjAddr: 0x0, symBinAddr: 0x60A0, symSize: 0x3C }
  - { offset: 0x17B63, size: 0x8, addend: 0x0, symName: '__ZN4core3str21_$LT$impl$u20$str$GT$3len17h7ed6d40d1c196ba5E', symObjAddr: 0x3C, symBinAddr: 0x60DC, symSize: 0x1C }
  - { offset: 0x17B8F, size: 0x8, addend: 0x0, symName: '__ZN4core3str21_$LT$impl$u20$str$GT$5chars17hcb4c089e3fa7bb66E', symObjAddr: 0x58, symBinAddr: 0x60F8, symSize: 0x20 }
  - { offset: 0x17DCE, size: 0x8, addend: 0x0, symName: '__ZN13_typst_syntax5utils17py_split_newlines28_$u7b$$u7b$closure$u7d$$u7d$17h1361ac2efb4d0a8cE', symObjAddr: 0x0, symBinAddr: 0x6118, symSize: 0x38 }
  - { offset: 0x17DEA, size: 0x8, addend: 0x0, symName: '__ZN13_typst_syntax5utils17py_split_newlines28_$u7b$$u7b$closure$u7d$$u7d$17h1361ac2efb4d0a8cE', symObjAddr: 0x0, symBinAddr: 0x6118, symSize: 0x38 }
  - { offset: 0x18007, size: 0x8, addend: 0x0, symName: __ZN4pyo311type_object10PyTypeInfo16is_type_of_bound17hd03420ac64de2a96E, symObjAddr: 0x0, symBinAddr: 0x6150, symSize: 0x50 }
  - { offset: 0x187DB, size: 0x8, addend: 0x0, symName: '__ZN50_$LT$T$u20$as$u20$core..convert..Into$LT$U$GT$$GT$4into17ha6020fc508c0d31fE', symObjAddr: 0x80, symBinAddr: 0x61D0, symSize: 0x20 }
  - { offset: 0x19855, size: 0x8, addend: 0x0, symName: __ZN4pyo311type_object10PyTypeInfo16is_type_of_bound17hd03420ac64de2a96E, symObjAddr: 0x0, symBinAddr: 0x6150, symSize: 0x50 }
  - { offset: 0x19890, size: 0x8, addend: 0x0, symName: '__ZN52_$LT$T$u20$as$u20$pyo3..type_object..PyTypeCheck$GT$10type_check17ha5cd5a1325f46900E', symObjAddr: 0xA0, symBinAddr: 0x61F0, symSize: 0x24 }
  - { offset: 0x198D6, size: 0x8, addend: 0x0, symName: __ZN4pyo35impl_7pyclass11PyClassImpl11dict_offset17hdff6b30b0ca9c645E, symObjAddr: 0x50, symBinAddr: 0x61A0, symSize: 0x18 }
  - { offset: 0x198FD, size: 0x8, addend: 0x0, symName: __ZN4pyo35impl_7pyclass11PyClassImpl15weaklist_offset17he5eb62effcb468ecE, symObjAddr: 0x68, symBinAddr: 0x61B8, symSize: 0x18 }
  - { offset: 0x1994E, size: 0x8, addend: 0x0, symName: '__ZN56_$LT$T$u20$as$u20$pyo3..impl_..wrap..OkWrap$LT$T$GT$$GT$4wrap17h44da2927e112405cE', symObjAddr: 0xC4, symBinAddr: 0x6214, symSize: 0x18 }
  - { offset: 0x19D3A, size: 0x8, addend: 0x0, symName: '__ZN94_$LT$_typst_syntax..syntax_kind..PySyntaxKind$u20$as$u20$pyo3..impl_..pyclass..PyClassImpl$GT$3doc28_$u7b$$u7b$closure$u7d$$u7d$17hf80881a941f27c31E', symObjAddr: 0xDC, symBinAddr: 0x622C, symSize: 0x58 }
  - { offset: 0x19DA1, size: 0x8, addend: 0x0, symName: '__ZN13_typst_syntax11syntax_kind200_$LT$impl$u20$pyo3..impl_..pyclass..PyMethods$LT$_typst_syntax..syntax_kind..PySyntaxKind$GT$$u20$for$u20$pyo3..impl_..pyclass..PyClassImplCollector$LT$_typst_syntax..syntax_kind..PySyntaxKind$GT$$GT$10py_methods5ITEMS58_$LT$impl$u20$_typst_syntax..syntax_kind..PySyntaxKind$GT$24__pymethod___richcmp____28_$u7b$$u7b$closure$u7d$$u7d$17h0fafe3e6da7377a7E', symObjAddr: 0x134, symBinAddr: 0x6284, symSize: 0x144 }
  - { offset: 0x1A44D, size: 0x8, addend: 0x0, symName: '__ZN106_$LT$core..ops..range..Range$LT$usize$GT$$u20$as$u20$core..slice..index..SliceIndex$LT$$u5b$T$u5d$$GT$$GT$9index_mut17h1a2d52d6ac259cc7E', symObjAddr: 0x0, symBinAddr: 0x63C8, symSize: 0xC0 }
  - { offset: 0x1B649, size: 0x8, addend: 0x0, symName: '__ZN106_$LT$core..ops..range..Range$LT$usize$GT$$u20$as$u20$core..slice..index..SliceIndex$LT$$u5b$T$u5d$$GT$$GT$9index_mut17h1a2d52d6ac259cc7E', symObjAddr: 0x0, symBinAddr: 0x63C8, symSize: 0xC0 }
  - { offset: 0x1B743, size: 0x8, addend: 0x0, symName: '__ZN108_$LT$core..ops..range..RangeTo$LT$usize$GT$$u20$as$u20$core..slice..index..SliceIndex$LT$$u5b$T$u5d$$GT$$GT$9index_mut17he246d98fbb354572E', symObjAddr: 0xC0, symBinAddr: 0x6488, symSize: 0x54 }
  - { offset: 0x1B7C3, size: 0x8, addend: 0x0, symName: '__ZN110_$LT$core..ops..range..RangeFrom$LT$usize$GT$$u20$as$u20$core..slice..index..SliceIndex$LT$$u5b$T$u5d$$GT$$GT$5index17hf87c563d215483efE', symObjAddr: 0x114, symBinAddr: 0x64DC, symSize: 0x90 }
  - { offset: 0x1BB1E, size: 0x8, addend: 0x0, symName: __ZN4core3ops5range11RangeBounds8contains17hed82625a2d51759dE, symObjAddr: 0x1A4, symBinAddr: 0x656C, symSize: 0x204 }
  - { offset: 0x1BED4, size: 0x8, addend: 0x0, symName: __ZN4core4iter6traits8iterator8Iterator3map17h8ce8bfa1e1d5d05eE, symObjAddr: 0x3D4, symBinAddr: 0x679C, symSize: 0x28 }
  - { offset: 0x1BF41, size: 0x8, addend: 0x0, symName: __ZN4core4iter6traits8iterator8Iterator4fold17hbd833f2b7d46056cE, symObjAddr: 0x3FC, symBinAddr: 0x67C4, symSize: 0xDC }
  - { offset: 0x1CB59, size: 0x8, addend: 0x0, symName: '__ZN4core3ops5range16Range$LT$Idx$GT$8contains17hec42b4fcdab45083E', symObjAddr: 0x3A8, symBinAddr: 0x6770, symSize: 0x2C }
  - { offset: 0x1D002, size: 0x8, addend: 0x0, symName: __ZN4pyo311type_object10PyTypeInfo16is_type_of_bound17h2622b38f51aafe00E, symObjAddr: 0x0, symBinAddr: 0x68A0, symSize: 0x50 }
  - { offset: 0x1D7D6, size: 0x8, addend: 0x0, symName: '__ZN50_$LT$T$u20$as$u20$core..convert..Into$LT$U$GT$$GT$4into17h00900ec901cc5db7E', symObjAddr: 0x700, symBinAddr: 0x6FA0, symSize: 0x14 }
  - { offset: 0x1D817, size: 0x8, addend: 0x0, symName: '__ZN50_$LT$T$u20$as$u20$core..convert..Into$LT$U$GT$$GT$4into17h0e36b53ed1bd32d6E', symObjAddr: 0x714, symBinAddr: 0x6FB4, symSize: 0x14 }
  - { offset: 0x1D858, size: 0x8, addend: 0x0, symName: '__ZN50_$LT$T$u20$as$u20$core..convert..Into$LT$U$GT$$GT$4into17h23633f03a6c0d3abE', symObjAddr: 0x728, symBinAddr: 0x6FC8, symSize: 0x14 }
  - { offset: 0x1D899, size: 0x8, addend: 0x0, symName: '__ZN50_$LT$T$u20$as$u20$core..convert..Into$LT$U$GT$$GT$4into17h26fa4d3cc36b1bccE', symObjAddr: 0x73C, symBinAddr: 0x6FDC, symSize: 0x14 }
  - { offset: 0x1D8DA, size: 0x8, addend: 0x0, symName: '__ZN50_$LT$T$u20$as$u20$core..convert..Into$LT$U$GT$$GT$4into17h4ced980523e311f6E', symObjAddr: 0x750, symBinAddr: 0x6FF0, symSize: 0x14 }
  - { offset: 0x1D91B, size: 0x8, addend: 0x0, symName: '__ZN50_$LT$T$u20$as$u20$core..convert..Into$LT$U$GT$$GT$4into17h60e19f0adeed64a2E', symObjAddr: 0x764, symBinAddr: 0x7004, symSize: 0x14 }
  - { offset: 0x1D95C, size: 0x8, addend: 0x0, symName: '__ZN50_$LT$T$u20$as$u20$core..convert..Into$LT$U$GT$$GT$4into17h61ab16f778cb3e51E', symObjAddr: 0x778, symBinAddr: 0x7018, symSize: 0x14 }
  - { offset: 0x1D99D, size: 0x8, addend: 0x0, symName: '__ZN50_$LT$T$u20$as$u20$core..convert..Into$LT$U$GT$$GT$4into17h800d515215125e02E', symObjAddr: 0x78C, symBinAddr: 0x702C, symSize: 0x14 }
  - { offset: 0x1D9DE, size: 0x8, addend: 0x0, symName: '__ZN50_$LT$T$u20$as$u20$core..convert..Into$LT$U$GT$$GT$4into17h852bf9dd72eb4f24E', symObjAddr: 0x7A0, symBinAddr: 0x7040, symSize: 0x14 }
  - { offset: 0x1DA1F, size: 0x8, addend: 0x0, symName: '__ZN50_$LT$T$u20$as$u20$core..convert..Into$LT$U$GT$$GT$4into17h9f515a57825ed205E', symObjAddr: 0x7B4, symBinAddr: 0x7054, symSize: 0x14 }
  - { offset: 0x1DA60, size: 0x8, addend: 0x0, symName: '__ZN50_$LT$T$u20$as$u20$core..convert..Into$LT$U$GT$$GT$4into17h9fbd2e47b9aef4c7E', symObjAddr: 0x7C8, symBinAddr: 0x7068, symSize: 0x14 }
  - { offset: 0x1DAA1, size: 0x8, addend: 0x0, symName: '__ZN50_$LT$T$u20$as$u20$core..convert..Into$LT$U$GT$$GT$4into17haaa043aa12606613E', symObjAddr: 0x7DC, symBinAddr: 0x707C, symSize: 0x14 }
  - { offset: 0x1DAE2, size: 0x8, addend: 0x0, symName: '__ZN50_$LT$T$u20$as$u20$core..convert..Into$LT$U$GT$$GT$4into17hcbc0e51c2253ce8aE', symObjAddr: 0x7F0, symBinAddr: 0x7090, symSize: 0x14 }
  - { offset: 0x1DB23, size: 0x8, addend: 0x0, symName: '__ZN50_$LT$T$u20$as$u20$core..convert..Into$LT$U$GT$$GT$4into17he776248476110026E', symObjAddr: 0x804, symBinAddr: 0x70A4, symSize: 0x14 }
  - { offset: 0x1FD34, size: 0x8, addend: 0x0, symName: __ZN4pyo311type_object10PyTypeInfo16is_type_of_bound17h2622b38f51aafe00E, symObjAddr: 0x0, symBinAddr: 0x68A0, symSize: 0x50 }
  - { offset: 0x1FD69, size: 0x8, addend: 0x0, symName: __ZN4pyo311type_object10PyTypeInfo16is_type_of_bound17h38b644cfa0805d1aE, symObjAddr: 0x50, symBinAddr: 0x68F0, symSize: 0x50 }
  - { offset: 0x1FD9E, size: 0x8, addend: 0x0, symName: __ZN4pyo311type_object10PyTypeInfo16is_type_of_bound17h39b8845e2f70be2cE, symObjAddr: 0xA0, symBinAddr: 0x6940, symSize: 0x50 }
  - { offset: 0x1FDD3, size: 0x8, addend: 0x0, symName: __ZN4pyo311type_object10PyTypeInfo16is_type_of_bound17h508af9e2c6df6002E, symObjAddr: 0xF0, symBinAddr: 0x6990, symSize: 0x50 }
  - { offset: 0x1FE08, size: 0x8, addend: 0x0, symName: __ZN4pyo311type_object10PyTypeInfo16is_type_of_bound17h656da03b2edbb049E, symObjAddr: 0x140, symBinAddr: 0x69E0, symSize: 0x50 }
  - { offset: 0x1FE3D, size: 0x8, addend: 0x0, symName: __ZN4pyo311type_object10PyTypeInfo16is_type_of_bound17h6b78bfb0dc1a80c6E, symObjAddr: 0x190, symBinAddr: 0x6A30, symSize: 0x50 }
  - { offset: 0x1FE72, size: 0x8, addend: 0x0, symName: __ZN4pyo311type_object10PyTypeInfo16is_type_of_bound17h765c87f0aeb91750E, symObjAddr: 0x1E0, symBinAddr: 0x6A80, symSize: 0x50 }
  - { offset: 0x1FEA7, size: 0x8, addend: 0x0, symName: __ZN4pyo311type_object10PyTypeInfo16is_type_of_bound17h862ed0aa3777732dE, symObjAddr: 0x230, symBinAddr: 0x6AD0, symSize: 0x50 }
  - { offset: 0x1FEDC, size: 0x8, addend: 0x0, symName: __ZN4pyo311type_object10PyTypeInfo16is_type_of_bound17h89ce2d07111dc287E, symObjAddr: 0x280, symBinAddr: 0x6B20, symSize: 0x50 }
  - { offset: 0x1FF11, size: 0x8, addend: 0x0, symName: __ZN4pyo311type_object10PyTypeInfo16is_type_of_bound17h9ec842e0a9549480E, symObjAddr: 0x2D0, symBinAddr: 0x6B70, symSize: 0x50 }
  - { offset: 0x1FF46, size: 0x8, addend: 0x0, symName: __ZN4pyo311type_object10PyTypeInfo16is_type_of_bound17hbeacbf15a894684cE, symObjAddr: 0x320, symBinAddr: 0x6BC0, symSize: 0x50 }
  - { offset: 0x1FF7B, size: 0x8, addend: 0x0, symName: __ZN4pyo311type_object10PyTypeInfo16is_type_of_bound17hc0e750d3e07f92a8E, symObjAddr: 0x370, symBinAddr: 0x6C10, symSize: 0x50 }
  - { offset: 0x1FFB0, size: 0x8, addend: 0x0, symName: __ZN4pyo311type_object10PyTypeInfo16is_type_of_bound17he1d7b58af96bf37fE, symObjAddr: 0x3C0, symBinAddr: 0x6C60, symSize: 0x50 }
  - { offset: 0x1FFE5, size: 0x8, addend: 0x0, symName: __ZN4pyo311type_object10PyTypeInfo16is_type_of_bound17hfa7edf25286883a8E, symObjAddr: 0x410, symBinAddr: 0x6CB0, symSize: 0x50 }
  - { offset: 0x20020, size: 0x8, addend: 0x0, symName: '__ZN52_$LT$T$u20$as$u20$pyo3..type_object..PyTypeCheck$GT$10type_check17h02617e6e809145c0E', symObjAddr: 0x818, symBinAddr: 0x70B8, symSize: 0x24 }
  - { offset: 0x20055, size: 0x8, addend: 0x0, symName: '__ZN52_$LT$T$u20$as$u20$pyo3..type_object..PyTypeCheck$GT$10type_check17h0ea3beaaa46ccbefE', symObjAddr: 0x83C, symBinAddr: 0x70DC, symSize: 0x24 }
  - { offset: 0x2008A, size: 0x8, addend: 0x0, symName: '__ZN52_$LT$T$u20$as$u20$pyo3..type_object..PyTypeCheck$GT$10type_check17h196ec6de55151822E', symObjAddr: 0x860, symBinAddr: 0x7100, symSize: 0x24 }
  - { offset: 0x200BF, size: 0x8, addend: 0x0, symName: '__ZN52_$LT$T$u20$as$u20$pyo3..type_object..PyTypeCheck$GT$10type_check17h2be76cfae916d62eE', symObjAddr: 0x884, symBinAddr: 0x7124, symSize: 0x24 }
  - { offset: 0x200F4, size: 0x8, addend: 0x0, symName: '__ZN52_$LT$T$u20$as$u20$pyo3..type_object..PyTypeCheck$GT$10type_check17h7547da626585d163E', symObjAddr: 0x8A8, symBinAddr: 0x7148, symSize: 0x24 }
  - { offset: 0x20129, size: 0x8, addend: 0x0, symName: '__ZN52_$LT$T$u20$as$u20$pyo3..type_object..PyTypeCheck$GT$10type_check17haff7303377469074E', symObjAddr: 0x8CC, symBinAddr: 0x716C, symSize: 0x24 }
  - { offset: 0x2015E, size: 0x8, addend: 0x0, symName: '__ZN52_$LT$T$u20$as$u20$pyo3..type_object..PyTypeCheck$GT$10type_check17hb14be47a5895aa26E', symObjAddr: 0x8F0, symBinAddr: 0x7190, symSize: 0x24 }
  - { offset: 0x20193, size: 0x8, addend: 0x0, symName: '__ZN52_$LT$T$u20$as$u20$pyo3..type_object..PyTypeCheck$GT$10type_check17hb540643be61ae601E', symObjAddr: 0x914, symBinAddr: 0x71B4, symSize: 0x24 }
  - { offset: 0x201C8, size: 0x8, addend: 0x0, symName: '__ZN52_$LT$T$u20$as$u20$pyo3..type_object..PyTypeCheck$GT$10type_check17hc49ee1d7f0f8e97eE', symObjAddr: 0x938, symBinAddr: 0x71D8, symSize: 0x24 }
  - { offset: 0x201FD, size: 0x8, addend: 0x0, symName: '__ZN52_$LT$T$u20$as$u20$pyo3..type_object..PyTypeCheck$GT$10type_check17hccb54630e2e7dc43E', symObjAddr: 0x95C, symBinAddr: 0x71FC, symSize: 0x24 }
  - { offset: 0x20232, size: 0x8, addend: 0x0, symName: '__ZN52_$LT$T$u20$as$u20$pyo3..type_object..PyTypeCheck$GT$10type_check17hd773444e5e153ed7E', symObjAddr: 0x980, symBinAddr: 0x7220, symSize: 0x24 }
  - { offset: 0x20267, size: 0x8, addend: 0x0, symName: '__ZN52_$LT$T$u20$as$u20$pyo3..type_object..PyTypeCheck$GT$10type_check17hec614b335c49affbE', symObjAddr: 0x9A4, symBinAddr: 0x7244, symSize: 0x24 }
  - { offset: 0x2029C, size: 0x8, addend: 0x0, symName: '__ZN52_$LT$T$u20$as$u20$pyo3..type_object..PyTypeCheck$GT$10type_check17hfcec3d29fe9435b8E', symObjAddr: 0x9C8, symBinAddr: 0x7268, symSize: 0x24 }
  - { offset: 0x202D1, size: 0x8, addend: 0x0, symName: '__ZN52_$LT$T$u20$as$u20$pyo3..type_object..PyTypeCheck$GT$10type_check17hff79a16d53190080E', symObjAddr: 0x9EC, symBinAddr: 0x728C, symSize: 0x24 }
  - { offset: 0x20317, size: 0x8, addend: 0x0, symName: __ZN4pyo35impl_7pyclass11PyClassImpl11dict_offset17h06bd6f2e56785d74E, symObjAddr: 0x460, symBinAddr: 0x6D00, symSize: 0x18 }
  - { offset: 0x2033E, size: 0x8, addend: 0x0, symName: __ZN4pyo35impl_7pyclass11PyClassImpl11dict_offset17h0b80cfe22eb03705E, symObjAddr: 0x478, symBinAddr: 0x6D18, symSize: 0x18 }
  - { offset: 0x20365, size: 0x8, addend: 0x0, symName: __ZN4pyo35impl_7pyclass11PyClassImpl11dict_offset17h0b8c34cce4238edfE, symObjAddr: 0x490, symBinAddr: 0x6D30, symSize: 0x18 }
  - { offset: 0x2038C, size: 0x8, addend: 0x0, symName: __ZN4pyo35impl_7pyclass11PyClassImpl11dict_offset17h1b411fbdbffa60f5E, symObjAddr: 0x4A8, symBinAddr: 0x6D48, symSize: 0x18 }
  - { offset: 0x203B3, size: 0x8, addend: 0x0, symName: __ZN4pyo35impl_7pyclass11PyClassImpl11dict_offset17h26e81f14faf2fd0cE, symObjAddr: 0x4C0, symBinAddr: 0x6D60, symSize: 0x18 }
  - { offset: 0x203DA, size: 0x8, addend: 0x0, symName: __ZN4pyo35impl_7pyclass11PyClassImpl11dict_offset17h2e5809ce7162b8b3E, symObjAddr: 0x4D8, symBinAddr: 0x6D78, symSize: 0x18 }
  - { offset: 0x20401, size: 0x8, addend: 0x0, symName: __ZN4pyo35impl_7pyclass11PyClassImpl11dict_offset17h39f69a8d46119a74E, symObjAddr: 0x4F0, symBinAddr: 0x6D90, symSize: 0x18 }
  - { offset: 0x20428, size: 0x8, addend: 0x0, symName: __ZN4pyo35impl_7pyclass11PyClassImpl11dict_offset17h40734bf9a4c65501E, symObjAddr: 0x508, symBinAddr: 0x6DA8, symSize: 0x18 }
  - { offset: 0x2044F, size: 0x8, addend: 0x0, symName: __ZN4pyo35impl_7pyclass11PyClassImpl11dict_offset17h4fa4bf6e6d1713acE, symObjAddr: 0x520, symBinAddr: 0x6DC0, symSize: 0x18 }
  - { offset: 0x20476, size: 0x8, addend: 0x0, symName: __ZN4pyo35impl_7pyclass11PyClassImpl11dict_offset17h72283d7560a084fbE, symObjAddr: 0x538, symBinAddr: 0x6DD8, symSize: 0x18 }
  - { offset: 0x2049D, size: 0x8, addend: 0x0, symName: __ZN4pyo35impl_7pyclass11PyClassImpl11dict_offset17h7d7cd8c07b786630E, symObjAddr: 0x550, symBinAddr: 0x6DF0, symSize: 0x18 }
  - { offset: 0x204C4, size: 0x8, addend: 0x0, symName: __ZN4pyo35impl_7pyclass11PyClassImpl11dict_offset17hb5d208f45ecf2db5E, symObjAddr: 0x568, symBinAddr: 0x6E08, symSize: 0x18 }
  - { offset: 0x204EB, size: 0x8, addend: 0x0, symName: __ZN4pyo35impl_7pyclass11PyClassImpl11dict_offset17hc72371104346c728E, symObjAddr: 0x580, symBinAddr: 0x6E20, symSize: 0x18 }
  - { offset: 0x20512, size: 0x8, addend: 0x0, symName: __ZN4pyo35impl_7pyclass11PyClassImpl11dict_offset17he895fbfb84e06210E, symObjAddr: 0x598, symBinAddr: 0x6E38, symSize: 0x18 }
  - { offset: 0x20539, size: 0x8, addend: 0x0, symName: __ZN4pyo35impl_7pyclass11PyClassImpl15weaklist_offset17h2a692dbd86bbfa30E, symObjAddr: 0x5B0, symBinAddr: 0x6E50, symSize: 0x18 }
  - { offset: 0x20560, size: 0x8, addend: 0x0, symName: __ZN4pyo35impl_7pyclass11PyClassImpl15weaklist_offset17h385fcb8419f25411E, symObjAddr: 0x5C8, symBinAddr: 0x6E68, symSize: 0x18 }
  - { offset: 0x20587, size: 0x8, addend: 0x0, symName: __ZN4pyo35impl_7pyclass11PyClassImpl15weaklist_offset17h3c36b76310876a72E, symObjAddr: 0x5E0, symBinAddr: 0x6E80, symSize: 0x18 }
  - { offset: 0x205AE, size: 0x8, addend: 0x0, symName: __ZN4pyo35impl_7pyclass11PyClassImpl15weaklist_offset17h3e51843170889c8dE, symObjAddr: 0x5F8, symBinAddr: 0x6E98, symSize: 0x18 }
  - { offset: 0x205D5, size: 0x8, addend: 0x0, symName: __ZN4pyo35impl_7pyclass11PyClassImpl15weaklist_offset17h4b07ea46a217e864E, symObjAddr: 0x610, symBinAddr: 0x6EB0, symSize: 0x18 }
  - { offset: 0x205FC, size: 0x8, addend: 0x0, symName: __ZN4pyo35impl_7pyclass11PyClassImpl15weaklist_offset17h66eb0ec62cb21f01E, symObjAddr: 0x628, symBinAddr: 0x6EC8, symSize: 0x18 }
  - { offset: 0x20623, size: 0x8, addend: 0x0, symName: __ZN4pyo35impl_7pyclass11PyClassImpl15weaklist_offset17h9dabbbdffee577b5E, symObjAddr: 0x640, symBinAddr: 0x6EE0, symSize: 0x18 }
  - { offset: 0x2064A, size: 0x8, addend: 0x0, symName: __ZN4pyo35impl_7pyclass11PyClassImpl15weaklist_offset17ha8954376aaaab82bE, symObjAddr: 0x658, symBinAddr: 0x6EF8, symSize: 0x18 }
  - { offset: 0x20671, size: 0x8, addend: 0x0, symName: __ZN4pyo35impl_7pyclass11PyClassImpl15weaklist_offset17ha93fae94d34683acE, symObjAddr: 0x670, symBinAddr: 0x6F10, symSize: 0x18 }
  - { offset: 0x20698, size: 0x8, addend: 0x0, symName: __ZN4pyo35impl_7pyclass11PyClassImpl15weaklist_offset17hae5b93008d979b34E, symObjAddr: 0x688, symBinAddr: 0x6F28, symSize: 0x18 }
  - { offset: 0x206BF, size: 0x8, addend: 0x0, symName: __ZN4pyo35impl_7pyclass11PyClassImpl15weaklist_offset17hafd2bbadc1665122E, symObjAddr: 0x6A0, symBinAddr: 0x6F40, symSize: 0x18 }
  - { offset: 0x206E6, size: 0x8, addend: 0x0, symName: __ZN4pyo35impl_7pyclass11PyClassImpl15weaklist_offset17hd49892df1643294eE, symObjAddr: 0x6B8, symBinAddr: 0x6F58, symSize: 0x18 }
  - { offset: 0x2070D, size: 0x8, addend: 0x0, symName: __ZN4pyo35impl_7pyclass11PyClassImpl15weaklist_offset17hed6e6e1fa4e0896cE, symObjAddr: 0x6D0, symBinAddr: 0x6F70, symSize: 0x18 }
  - { offset: 0x20734, size: 0x8, addend: 0x0, symName: __ZN4pyo35impl_7pyclass11PyClassImpl15weaklist_offset17hfcaff4b2adafc4b5E, symObjAddr: 0x6E8, symBinAddr: 0x6F88, symSize: 0x18 }
  - { offset: 0x2167D, size: 0x8, addend: 0x0, symName: __ZN13_typst_syntax3ast6markup7untyped17h3058ea5ee1d88ba5E, symObjAddr: 0xA10, symBinAddr: 0x72B0, symSize: 0x44 }
  - { offset: 0x216B2, size: 0x8, addend: 0x0, symName: __ZN13_typst_syntax3ast6markup7untyped17h6a214676978a3f77E, symObjAddr: 0xA54, symBinAddr: 0x72F4, symSize: 0x44 }
  - { offset: 0x216E7, size: 0x8, addend: 0x0, symName: __ZN13_typst_syntax3ast6markup7untyped17h9b6489c25d6d4170E, symObjAddr: 0xA98, symBinAddr: 0x7338, symSize: 0x48 }
  - { offset: 0x21726, size: 0x8, addend: 0x0, symName: '__ZN90_$LT$_typst_syntax..ast..markup..PyMarkup$u20$as$u20$pyo3..impl_..pyclass..PyClassImpl$GT$3doc28_$u7b$$u7b$closure$u7d$$u7d$17hf8fcac4638d264f3E', symObjAddr: 0xAE0, symBinAddr: 0x7380, symSize: 0x58 }
  - { offset: 0x2177E, size: 0x8, addend: 0x0, symName: '__ZN13_typst_syntax3ast6markup8PyMarkup5exprs28_$u7b$$u7b$closure$u7d$$u7d$17hfc5a87edcc9f7f4aE', symObjAddr: 0xB38, symBinAddr: 0x73D8, symSize: 0x4C }
  - { offset: 0x217B9, size: 0x8, addend: 0x0, symName: '__ZN13_typst_syntax3ast6markup8PyMarkup5exprs28_$u7b$$u7b$closure$u7d$$u7d$28_$u7b$$u7b$closure$u7d$$u7d$17hf8eb0800f36e8b5fE', symObjAddr: 0xB84, symBinAddr: 0x7424, symSize: 0x38 }
  - { offset: 0x2180A, size: 0x8, addend: 0x0, symName: '__ZN91_$LT$_typst_syntax..ast..markup..PyHeading$u20$as$u20$pyo3..impl_..pyclass..PyClassImpl$GT$3doc28_$u7b$$u7b$closure$u7d$$u7d$17hed9294a8d7705d83E', symObjAddr: 0xBBC, symBinAddr: 0x745C, symSize: 0x58 }
  - { offset: 0x21862, size: 0x8, addend: 0x0, symName: '__ZN13_typst_syntax3ast6markup9PyHeading5depth28_$u7b$$u7b$closure$u7d$$u7d$17h1ddfaa0ac1d4f69eE', symObjAddr: 0xC14, symBinAddr: 0x74B4, symSize: 0x28 }
  - { offset: 0x218A5, size: 0x8, addend: 0x0, symName: '__ZN13_typst_syntax3ast6markup9PyHeading4body28_$u7b$$u7b$closure$u7d$$u7d$17h7ee7810f4d68b786E', symObjAddr: 0xC3C, symBinAddr: 0x74DC, symSize: 0x30 }
  - { offset: 0x218DB, size: 0x8, addend: 0x0, symName: '__ZN13_typst_syntax3ast6markup9PyHeading4body28_$u7b$$u7b$closure$u7d$$u7d$17hb5a8103e4dad6d35E', symObjAddr: 0xC6C, symBinAddr: 0x750C, symSize: 0x24 }
  - { offset: 0x2191C, size: 0x8, addend: 0x0, symName: '__ZN90_$LT$_typst_syntax..ast..markup..PyStrong$u20$as$u20$pyo3..impl_..pyclass..PyClassImpl$GT$3doc28_$u7b$$u7b$closure$u7d$$u7d$17h4411198322ef9fa0E', symObjAddr: 0xC90, symBinAddr: 0x7530, symSize: 0x58 }
  - { offset: 0x21974, size: 0x8, addend: 0x0, symName: '__ZN13_typst_syntax3ast6markup8PyStrong4body28_$u7b$$u7b$closure$u7d$$u7d$17h95d4d87a7e8f3c8bE', symObjAddr: 0xCE8, symBinAddr: 0x7588, symSize: 0x30 }
  - { offset: 0x219AA, size: 0x8, addend: 0x0, symName: '__ZN13_typst_syntax3ast6markup8PyStrong4body28_$u7b$$u7b$closure$u7d$$u7d$17h86c1934c98313704E', symObjAddr: 0xD18, symBinAddr: 0x75B8, symSize: 0x24 }
  - { offset: 0x219EB, size: 0x8, addend: 0x0, symName: '__ZN88_$LT$_typst_syntax..ast..markup..PyEmph$u20$as$u20$pyo3..impl_..pyclass..PyClassImpl$GT$3doc28_$u7b$$u7b$closure$u7d$$u7d$17hf64f3c0e24401e63E', symObjAddr: 0xD3C, symBinAddr: 0x75DC, symSize: 0x58 }
  - { offset: 0x21A43, size: 0x8, addend: 0x0, symName: '__ZN13_typst_syntax3ast6markup6PyEmph4body28_$u7b$$u7b$closure$u7d$$u7d$17ha6990da20429919aE', symObjAddr: 0xD94, symBinAddr: 0x7634, symSize: 0x30 }
  - { offset: 0x21A79, size: 0x8, addend: 0x0, symName: '__ZN13_typst_syntax3ast6markup6PyEmph4body28_$u7b$$u7b$closure$u7d$$u7d$17h352e51e71e373b81E', symObjAddr: 0xDC4, symBinAddr: 0x7664, symSize: 0x24 }
  - { offset: 0x21ABA, size: 0x8, addend: 0x0, symName: '__ZN87_$LT$_typst_syntax..ast..markup..PyRaw$u20$as$u20$pyo3..impl_..pyclass..PyClassImpl$GT$3doc28_$u7b$$u7b$closure$u7d$$u7d$17h07f425cbf46990a9E', symObjAddr: 0xDE8, symBinAddr: 0x7688, symSize: 0x58 }
  - { offset: 0x21B12, size: 0x8, addend: 0x0, symName: '__ZN13_typst_syntax3ast6markup5PyRaw4lang28_$u7b$$u7b$closure$u7d$$u7d$17h5eadff90e4dcfd00E', symObjAddr: 0xE40, symBinAddr: 0x76E0, symSize: 0x24 }
  - { offset: 0x21B48, size: 0x8, addend: 0x0, symName: '__ZN13_typst_syntax3ast6markup5PyRaw4lang28_$u7b$$u7b$closure$u7d$$u7d$17h2a082cdd354b0fe3E', symObjAddr: 0xE64, symBinAddr: 0x7704, symSize: 0x30 }
  - { offset: 0x21B92, size: 0x8, addend: 0x0, symName: '__ZN13_typst_syntax3ast6markup5PyRaw5block28_$u7b$$u7b$closure$u7d$$u7d$17h6e565cef6b5f7703E', symObjAddr: 0xE94, symBinAddr: 0x7734, symSize: 0x24 }
  - { offset: 0x21BD5, size: 0x8, addend: 0x0, symName: '__ZN13_typst_syntax3ast6markup5PyRaw4text28_$u7b$$u7b$closure$u7d$$u7d$17h91f9f7830473a05dE', symObjAddr: 0xEB8, symBinAddr: 0x7758, symSize: 0xA0 }
  - { offset: 0x21C10, size: 0x8, addend: 0x0, symName: '__ZN13_typst_syntax3ast6markup5PyRaw4text28_$u7b$$u7b$closure$u7d$$u7d$28_$u7b$$u7b$closure$u7d$$u7d$17h4a2b1b2a41ac354fE', symObjAddr: 0xF58, symBinAddr: 0x77F8, symSize: 0x3C }
  - { offset: 0x21C61, size: 0x8, addend: 0x0, symName: '__ZN88_$LT$_typst_syntax..ast..markup..PyLink$u20$as$u20$pyo3..impl_..pyclass..PyClassImpl$GT$3doc28_$u7b$$u7b$closure$u7d$$u7d$17hc29271254919eff3E', symObjAddr: 0xF94, symBinAddr: 0x7834, symSize: 0x58 }
  - { offset: 0x21CB9, size: 0x8, addend: 0x0, symName: '__ZN13_typst_syntax3ast6markup6PyLink4dest28_$u7b$$u7b$closure$u7d$$u7d$17h894eb5b665a3077dE', symObjAddr: 0xFEC, symBinAddr: 0x788C, symSize: 0x30 }
  - { offset: 0x21D02, size: 0x8, addend: 0x0, symName: '__ZN89_$LT$_typst_syntax..ast..markup..PyLabel$u20$as$u20$pyo3..impl_..pyclass..PyClassImpl$GT$3doc28_$u7b$$u7b$closure$u7d$$u7d$17h7ddfda6ed216d0c9E', symObjAddr: 0x101C, symBinAddr: 0x78BC, symSize: 0x58 }
  - { offset: 0x21D5A, size: 0x8, addend: 0x0, symName: '__ZN13_typst_syntax3ast6markup7PyLabel6as_str28_$u7b$$u7b$closure$u7d$$u7d$17h88c33243d5225f40E', symObjAddr: 0x1074, symBinAddr: 0x7914, symSize: 0x30 }
  - { offset: 0x21DA3, size: 0x8, addend: 0x0, symName: '__ZN87_$LT$_typst_syntax..ast..markup..PyRef$u20$as$u20$pyo3..impl_..pyclass..PyClassImpl$GT$3doc28_$u7b$$u7b$closure$u7d$$u7d$17h639dfc5db4546483E', symObjAddr: 0x10A4, symBinAddr: 0x7944, symSize: 0x58 }
  - { offset: 0x21DFB, size: 0x8, addend: 0x0, symName: '__ZN13_typst_syntax3ast6markup5PyRef6target28_$u7b$$u7b$closure$u7d$$u7d$17hcd562447fb3f007fE', symObjAddr: 0x10FC, symBinAddr: 0x799C, symSize: 0x30 }
  - { offset: 0x21E3E, size: 0x8, addend: 0x0, symName: '__ZN13_typst_syntax3ast6markup5PyRef10supplement28_$u7b$$u7b$closure$u7d$$u7d$17hfa8799aea0826f23E', symObjAddr: 0x112C, symBinAddr: 0x79CC, symSize: 0x24 }
  - { offset: 0x21E74, size: 0x8, addend: 0x0, symName: '__ZN13_typst_syntax3ast6markup5PyRef10supplement28_$u7b$$u7b$closure$u7d$$u7d$17hb365065ffd63b967E', symObjAddr: 0x1150, symBinAddr: 0x79F0, symSize: 0x24 }
  - { offset: 0x21EC4, size: 0x8, addend: 0x0, symName: '__ZN92_$LT$_typst_syntax..ast..markup..PyListItem$u20$as$u20$pyo3..impl_..pyclass..PyClassImpl$GT$3doc28_$u7b$$u7b$closure$u7d$$u7d$17h530b8847e0bf01bcE', symObjAddr: 0x1174, symBinAddr: 0x7A14, symSize: 0x58 }
  - { offset: 0x21F1C, size: 0x8, addend: 0x0, symName: '__ZN13_typst_syntax3ast6markup10PyListItem4body28_$u7b$$u7b$closure$u7d$$u7d$17hf609c3bcb3597fcaE', symObjAddr: 0x11CC, symBinAddr: 0x7A6C, symSize: 0x30 }
  - { offset: 0x21F52, size: 0x8, addend: 0x0, symName: '__ZN13_typst_syntax3ast6markup10PyListItem4body28_$u7b$$u7b$closure$u7d$$u7d$17hcc34751dbc59e880E', symObjAddr: 0x11FC, symBinAddr: 0x7A9C, symSize: 0x24 }
  - { offset: 0x21F93, size: 0x8, addend: 0x0, symName: '__ZN92_$LT$_typst_syntax..ast..markup..PyEnumItem$u20$as$u20$pyo3..impl_..pyclass..PyClassImpl$GT$3doc28_$u7b$$u7b$closure$u7d$$u7d$17h491d3ad4344d17ceE', symObjAddr: 0x1220, symBinAddr: 0x7AC0, symSize: 0x58 }
  - { offset: 0x21FEB, size: 0x8, addend: 0x0, symName: '__ZN13_typst_syntax3ast6markup10PyEnumItem6number28_$u7b$$u7b$closure$u7d$$u7d$17h6f64eb254c5dd715E', symObjAddr: 0x1278, symBinAddr: 0x7B18, symSize: 0x24 }
  - { offset: 0x2202E, size: 0x8, addend: 0x0, symName: '__ZN13_typst_syntax3ast6markup10PyEnumItem4body28_$u7b$$u7b$closure$u7d$$u7d$17h0ccb846965137695E', symObjAddr: 0x129C, symBinAddr: 0x7B3C, symSize: 0x30 }
  - { offset: 0x22064, size: 0x8, addend: 0x0, symName: '__ZN13_typst_syntax3ast6markup10PyEnumItem4body28_$u7b$$u7b$closure$u7d$$u7d$17h27a1b975a57f01a1E', symObjAddr: 0x12CC, symBinAddr: 0x7B6C, symSize: 0x24 }
  - { offset: 0x220A5, size: 0x8, addend: 0x0, symName: '__ZN92_$LT$_typst_syntax..ast..markup..PyTermItem$u20$as$u20$pyo3..impl_..pyclass..PyClassImpl$GT$3doc28_$u7b$$u7b$closure$u7d$$u7d$17ha57c09e2f5f9067bE', symObjAddr: 0x12F0, symBinAddr: 0x7B90, symSize: 0x58 }
  - { offset: 0x220FD, size: 0x8, addend: 0x0, symName: '__ZN13_typst_syntax3ast6markup10PyTermItem4term28_$u7b$$u7b$closure$u7d$$u7d$17hef4772b5e72135afE', symObjAddr: 0x1348, symBinAddr: 0x7BE8, symSize: 0x30 }
  - { offset: 0x22133, size: 0x8, addend: 0x0, symName: '__ZN13_typst_syntax3ast6markup10PyTermItem4term28_$u7b$$u7b$closure$u7d$$u7d$17h9ae2671f084097fcE', symObjAddr: 0x1378, symBinAddr: 0x7C18, symSize: 0x24 }
  - { offset: 0x2216E, size: 0x8, addend: 0x0, symName: '__ZN13_typst_syntax3ast6markup10PyTermItem11description28_$u7b$$u7b$closure$u7d$$u7d$17h1b4bd6690cb901c9E', symObjAddr: 0x139C, symBinAddr: 0x7C3C, symSize: 0x30 }
  - { offset: 0x221A4, size: 0x8, addend: 0x0, symName: '__ZN13_typst_syntax3ast6markup10PyTermItem11description28_$u7b$$u7b$closure$u7d$$u7d$17hae8a8f58603de9dcE', symObjAddr: 0x13CC, symBinAddr: 0x7C6C, symSize: 0x24 }
  - { offset: 0x221E5, size: 0x8, addend: 0x0, symName: '__ZN94_$LT$_typst_syntax..ast..markup..PySmartQuote$u20$as$u20$pyo3..impl_..pyclass..PyClassImpl$GT$3doc28_$u7b$$u7b$closure$u7d$$u7d$17hdba433b88f0f5463E', symObjAddr: 0x13F0, symBinAddr: 0x7C90, symSize: 0x58 }
  - { offset: 0x2223D, size: 0x8, addend: 0x0, symName: '__ZN13_typst_syntax3ast6markup12PySmartQuote6double28_$u7b$$u7b$closure$u7d$$u7d$17h85d8ddae893698e4E', symObjAddr: 0x1448, symBinAddr: 0x7CE8, symSize: 0x24 }
  - { offset: 0x22286, size: 0x8, addend: 0x0, symName: '__ZN90_$LT$_typst_syntax..ast..markup..PyEscape$u20$as$u20$pyo3..impl_..pyclass..PyClassImpl$GT$3doc28_$u7b$$u7b$closure$u7d$$u7d$17h010949fddf36eb9dE', symObjAddr: 0x146C, symBinAddr: 0x7D0C, symSize: 0x58 }
  - { offset: 0x222E1, size: 0x8, addend: 0x0, symName: '__ZN13_typst_syntax3ast6markup8PyEscape3get28_$u7b$$u7b$closure$u7d$$u7d$17hd64aa175cbfd54b5E', symObjAddr: 0x14C4, symBinAddr: 0x7D64, symSize: 0x3C }
  - { offset: 0x2232D, size: 0x8, addend: 0x0, symName: '__ZN93_$LT$_typst_syntax..ast..markup..PyShorthand$u20$as$u20$pyo3..impl_..pyclass..PyClassImpl$GT$3doc28_$u7b$$u7b$closure$u7d$$u7d$17h320d61da5e120b5fE', symObjAddr: 0x1500, symBinAddr: 0x7DA0, symSize: 0x58 }
  - { offset: 0x22388, size: 0x8, addend: 0x0, symName: '__ZN13_typst_syntax3ast6markup11PyShorthand3get28_$u7b$$u7b$closure$u7d$$u7d$17h83cb24556b336cb9E', symObjAddr: 0x1558, symBinAddr: 0x7DF8, symSize: 0x3C }
  - { offset: 0x22EDC, size: 0x8, addend: 0x0, symName: '__ZN104_$LT$T$u20$as$u20$pyo3..callback..IntoPyCallbackOutput$LT$$BP$mut$u20$pyo3_ffi..object..PyObject$GT$$GT$7convert17hd8035183a0026862E', symObjAddr: 0x0, symBinAddr: 0x7E34, symSize: 0x30 }
  - { offset: 0x25159, size: 0x8, addend: 0x0, symName: '__ZN104_$LT$T$u20$as$u20$pyo3..callback..IntoPyCallbackOutput$LT$$BP$mut$u20$pyo3_ffi..object..PyObject$GT$$GT$7convert17hd8035183a0026862E', symObjAddr: 0x0, symBinAddr: 0x7E34, symSize: 0x30 }
  - { offset: 0x251B9, size: 0x8, addend: 0x0, symName: '__ZN4pyo35types5tuple127_$LT$impl$u20$pyo3..conversion..IntoPy$LT$pyo3..instance..Py$LT$pyo3..types..any..PyAny$GT$$GT$$u20$for$u20$$LP$T0$C$T1$RP$$GT$7into_py17h8f9f69484e208073E', symObjAddr: 0x284, symBinAddr: 0x80B8, symSize: 0xF4 }
  - { offset: 0x25278, size: 0x8, addend: 0x0, symName: '__ZN56_$LT$T$u20$as$u20$pyo3..impl_..wrap..OkWrap$LT$T$GT$$GT$4wrap17h46e8fec61b034fe2E', symObjAddr: 0x378, symBinAddr: 0x81AC, symSize: 0x14 }
  - { offset: 0x252AD, size: 0x8, addend: 0x0, symName: '__ZN56_$LT$T$u20$as$u20$pyo3..impl_..wrap..OkWrap$LT$T$GT$$GT$4wrap17hfd05b330d17c6b19E', symObjAddr: 0x38C, symBinAddr: 0x81C0, symSize: 0x18 }
  - { offset: 0x255C9, size: 0x8, addend: 0x0, symName: '__ZN106_$LT$alloc..string..String$u20$as$u20$core..iter..traits..collect..Extend$LT$alloc..string..String$GT$$GT$6extend28_$u7b$$u7b$closure$u7d$$u7d$17h555929b7fed5f3b9E', symObjAddr: 0x30, symBinAddr: 0x7E64, symSize: 0x104 }
  - { offset: 0x258E1, size: 0x8, addend: 0x0, symName: '__ZN112_$LT$alloc..string..String$u20$as$u20$core..iter..traits..collect..FromIterator$LT$alloc..string..String$GT$$GT$9from_iter17hf5aa45616b7902a6E', symObjAddr: 0x134, symBinAddr: 0x7F68, symSize: 0x12C }
  - { offset: 0x2599B, size: 0x8, addend: 0x0, symName: '__ZN45_$LT$T$u20$as$u20$alloc..string..ToString$GT$9to_string17h44963ab9f7d6f257E', symObjAddr: 0x260, symBinAddr: 0x8094, symSize: 0x24 }
  - { offset: 0x259D8, size: 0x8, addend: 0x0, symName: '__ZN89_$LT$alloc..string..String$u20$as$u20$core..iter..traits..collect..Extend$LT$char$GT$$GT$6extend17h91d8f643c845745aE', symObjAddr: 0x720, symBinAddr: 0x8554, symSize: 0xB4 }
  - { offset: 0x25A7A, size: 0x8, addend: 0x0, symName: '__ZN89_$LT$alloc..string..String$u20$as$u20$core..iter..traits..collect..Extend$LT$char$GT$$GT$6extend28_$u7b$$u7b$closure$u7d$$u7d$17hc6e571bb6097c7eeE', symObjAddr: 0x7D4, symBinAddr: 0x8608, symSize: 0x34 }
  - { offset: 0x25AC5, size: 0x8, addend: 0x0, symName: '__ZN95_$LT$alloc..string..String$u20$as$u20$core..iter..traits..collect..FromIterator$LT$char$GT$$GT$9from_iter17he21e92ed44273085E', symObjAddr: 0x808, symBinAddr: 0x863C, symSize: 0x88 }
  - { offset: 0x26076, size: 0x8, addend: 0x0, symName: '__ZN87_$LT$T$u20$as$u20$alloc..slice..$LT$impl$u20$$u5b$T$u5d$$GT$..to_vec_in..ConvertVec$GT$6to_vec17h84a4261cdac5ff76E', symObjAddr: 0x3A4, symBinAddr: 0x81D8, symSize: 0x37C }
  - { offset: 0x2724C, size: 0x8, addend: 0x0, symName: __ZN4pyo33err5PyErr3new17h3e2313e6e7af45f8E, symObjAddr: 0x0, symBinAddr: 0x86C4, symSize: 0x6C }
  - { offset: 0x2728E, size: 0x8, addend: 0x0, symName: '__ZN4pyo33err5PyErr3new28_$u7b$$u7b$closure$u7d$$u7d$17haaee5cd50cebc19dE', symObjAddr: 0x6C, symBinAddr: 0x8730, symSize: 0xB0 }
  - { offset: 0x28866, size: 0x8, addend: 0x0, symName: '__ZN50_$LT$T$u20$as$u20$core..convert..Into$LT$U$GT$$GT$4into17hf04b64a9f27f9c18E', symObjAddr: 0x11C, symBinAddr: 0x87E0, symSize: 0x14 }
  - { offset: 0x28897, size: 0x8, addend: 0x0, symName: '__ZN50_$LT$T$u20$as$u20$core..convert..Into$LT$U$GT$$GT$4into17hf04b64a9f27f9c18E', symObjAddr: 0x11C, symBinAddr: 0x87E0, symSize: 0x14 }
  - { offset: 0x28DAD, size: 0x8, addend: 0x0, symName: __ZN4pyo33err5PyErr3new17h3e2313e6e7af45f8E, symObjAddr: 0x0, symBinAddr: 0x86C4, symSize: 0x6C }
  - { offset: 0x28E4B, size: 0x8, addend: 0x0, symName: '__ZN96_$LT$pyo3..pycell..impl_..BorrowChecker$u20$as$u20$pyo3..pycell..impl_..PyClassBorrowChecker$GT$3new17had1121e6dacd3edbE', symObjAddr: 0x0, symBinAddr: 0x87F4, symSize: 0x18 }
  - { offset: 0x28E6C, size: 0x8, addend: 0x0, symName: '__ZN96_$LT$pyo3..pycell..impl_..BorrowChecker$u20$as$u20$pyo3..pycell..impl_..PyClassBorrowChecker$GT$3new17had1121e6dacd3edbE', symObjAddr: 0x0, symBinAddr: 0x87F4, symSize: 0x18 }
  - { offset: 0x28F24, size: 0x8, addend: 0x0, symName: '__ZN42_$LT$$RF$T$u20$as$u20$core..fmt..Debug$GT$3fmt17hb4af9a110fc6d9d2E', symObjAddr: 0x0, symBinAddr: 0x880C, symSize: 0x30 }
  - { offset: 0x28F40, size: 0x8, addend: 0x0, symName: '__ZN42_$LT$$RF$T$u20$as$u20$core..fmt..Debug$GT$3fmt17hb4af9a110fc6d9d2E', symObjAddr: 0x0, symBinAddr: 0x880C, symSize: 0x30 }
  - { offset: 0x29123, size: 0x8, addend: 0x0, symName: __ZN4core3ptr19copy_nonoverlapping18precondition_check17hc5654e947f751772E, symObjAddr: 0x0, symBinAddr: 0x883C, symSize: 0x36C }
  - { offset: 0x29441, size: 0x8, addend: 0x0, symName: __ZN4core3ptr19copy_nonoverlapping18precondition_check17hc5654e947f751772E, symObjAddr: 0x0, symBinAddr: 0x883C, symSize: 0x36C }
  - { offset: 0x29A49, size: 0x8, addend: 0x0, symName: __ZN8pyo3_ffi10boolobject7Py_True17h8dd3b09d5720a505E, symObjAddr: 0x0, symBinAddr: 0x8BA8, symSize: 0xC }
  - { offset: 0x29AC6, size: 0x8, addend: 0x0, symName: __ZN8pyo3_ffi10boolobject7Py_True17h8dd3b09d5720a505E, symObjAddr: 0x0, symBinAddr: 0x8BA8, symSize: 0xC }
  - { offset: 0x29AE3, size: 0x8, addend: 0x0, symName: __ZN8pyo3_ffi10boolobject8Py_False17hb3024a8cc8da964bE, symObjAddr: 0xC, symBinAddr: 0x8BB4, symSize: 0xC }
  - { offset: 0x2AF3A, size: 0x8, addend: 0x0, symName: '__ZN103_$LT$alloc..vec..into_iter..IntoIter$LT$T$C$A$GT$$u20$as$u20$core..iter..traits..iterator..Iterator$GT$10advance_by17h8bfb161c372a8a8fE', symObjAddr: 0x0, symBinAddr: 0x8BC0, symSize: 0xA8 }
  - { offset: 0x2BC53, size: 0x8, addend: 0x0, symName: __ZN4core4iter6traits10exact_size17ExactSizeIterator3len17h13d94656994c0ba5E, symObjAddr: 0x106C, symBinAddr: 0x9C2C, symSize: 0xC4 }
  - { offset: 0x2BD4E, size: 0x8, addend: 0x0, symName: __ZN4core4iter6traits10exact_size17ExactSizeIterator3len17h432c0fc9cb3cef2aE, symObjAddr: 0x1130, symBinAddr: 0x9CF0, symSize: 0xC4 }
  - { offset: 0x2BE49, size: 0x8, addend: 0x0, symName: __ZN4core4iter6traits10exact_size17ExactSizeIterator3len17h5b2b116bac18b31aE, symObjAddr: 0x11F4, symBinAddr: 0x9DB4, symSize: 0xC4 }
  - { offset: 0x2BF44, size: 0x8, addend: 0x0, symName: __ZN4core4iter6traits10exact_size17ExactSizeIterator3len17h5b62b8850e212497E, symObjAddr: 0x12B8, symBinAddr: 0x9E78, symSize: 0xC4 }
  - { offset: 0x2C03F, size: 0x8, addend: 0x0, symName: __ZN4core4iter6traits10exact_size17ExactSizeIterator3len17hc7b8b4155db4d143E, symObjAddr: 0x137C, symBinAddr: 0x9F3C, symSize: 0xC4 }
  - { offset: 0x2C146, size: 0x8, addend: 0x0, symName: __ZN4core4iter6traits8iterator8Iterator3map17h0d4d36f49dda2324E, symObjAddr: 0x1440, symBinAddr: 0xA000, symSize: 0x28 }
  - { offset: 0x2C1B3, size: 0x8, addend: 0x0, symName: __ZN4core4iter6traits8iterator8Iterator3map17h377ea85deebf1050E, symObjAddr: 0x1468, symBinAddr: 0xA028, symSize: 0x1C }
  - { offset: 0x2C220, size: 0x8, addend: 0x0, symName: __ZN4core4iter6traits8iterator8Iterator3map17h4a5632da45714e1dE, symObjAddr: 0x1484, symBinAddr: 0xA044, symSize: 0x28 }
  - { offset: 0x2C28D, size: 0x8, addend: 0x0, symName: __ZN4core4iter6traits8iterator8Iterator3map17h5273d863f261afb1E, symObjAddr: 0x14AC, symBinAddr: 0xA06C, symSize: 0x28 }
  - { offset: 0x2C2FA, size: 0x8, addend: 0x0, symName: __ZN4core4iter6traits8iterator8Iterator3map17h5493768c29760a32E, symObjAddr: 0x14D4, symBinAddr: 0xA094, symSize: 0x28 }
  - { offset: 0x2C367, size: 0x8, addend: 0x0, symName: __ZN4core4iter6traits8iterator8Iterator3nth17h07f41a01530f0329E, symObjAddr: 0x14FC, symBinAddr: 0xA0BC, symSize: 0x80 }
  - { offset: 0x2EB5B, size: 0x8, addend: 0x0, symName: '__ZN103_$LT$alloc..vec..into_iter..IntoIter$LT$T$C$A$GT$$u20$as$u20$core..iter..traits..iterator..Iterator$GT$10advance_by17h8bfb161c372a8a8fE', symObjAddr: 0x0, symBinAddr: 0x8BC0, symSize: 0xA8 }
  - { offset: 0x2EC7A, size: 0x8, addend: 0x0, symName: '__ZN103_$LT$alloc..vec..into_iter..IntoIter$LT$T$C$A$GT$$u20$as$u20$core..iter..traits..iterator..Iterator$GT$4fold17hdaea5cc16c7a46fdE', symObjAddr: 0xA8, symBinAddr: 0x8C68, symSize: 0x124 }
  - { offset: 0x2EE46, size: 0x8, addend: 0x0, symName: '__ZN103_$LT$alloc..vec..into_iter..IntoIter$LT$T$C$A$GT$$u20$as$u20$core..iter..traits..iterator..Iterator$GT$4next17h1bc9829cd99d58a9E', symObjAddr: 0x1CC, symBinAddr: 0x8D8C, symSize: 0xD0 }
  - { offset: 0x2EFC1, size: 0x8, addend: 0x0, symName: '__ZN103_$LT$alloc..vec..into_iter..IntoIter$LT$T$C$A$GT$$u20$as$u20$core..iter..traits..iterator..Iterator$GT$4next17h46286fdee6287d1aE', symObjAddr: 0x29C, symBinAddr: 0x8E5C, symSize: 0xDC }
  - { offset: 0x2F133, size: 0x8, addend: 0x0, symName: '__ZN103_$LT$alloc..vec..into_iter..IntoIter$LT$T$C$A$GT$$u20$as$u20$core..iter..traits..iterator..Iterator$GT$4next17h5fe326029b8e75dfE', symObjAddr: 0x378, symBinAddr: 0x8F38, symSize: 0xCC }
  - { offset: 0x2F2AE, size: 0x8, addend: 0x0, symName: '__ZN103_$LT$alloc..vec..into_iter..IntoIter$LT$T$C$A$GT$$u20$as$u20$core..iter..traits..iterator..Iterator$GT$4next17ha122e4f8ef93f0c4E', symObjAddr: 0x444, symBinAddr: 0x9004, symSize: 0xDC }
  - { offset: 0x2F420, size: 0x8, addend: 0x0, symName: '__ZN103_$LT$alloc..vec..into_iter..IntoIter$LT$T$C$A$GT$$u20$as$u20$core..iter..traits..iterator..Iterator$GT$4next17heba803e2be80b8f3E', symObjAddr: 0x520, symBinAddr: 0x90E0, symSize: 0xD0 }
  - { offset: 0x2F59B, size: 0x8, addend: 0x0, symName: '__ZN103_$LT$alloc..vec..into_iter..IntoIter$LT$T$C$A$GT$$u20$as$u20$core..iter..traits..iterator..Iterator$GT$8try_fold17h4154f93d8d44ff4bE', symObjAddr: 0x5F0, symBinAddr: 0x91B0, symSize: 0x1BC }
  - { offset: 0x2F792, size: 0x8, addend: 0x0, symName: '__ZN103_$LT$alloc..vec..into_iter..IntoIter$LT$T$C$A$GT$$u20$as$u20$core..iter..traits..iterator..Iterator$GT$8try_fold17h55541ab67fcfcccdE', symObjAddr: 0x7AC, symBinAddr: 0x936C, symSize: 0x1CC }
  - { offset: 0x2F989, size: 0x8, addend: 0x0, symName: '__ZN103_$LT$alloc..vec..into_iter..IntoIter$LT$T$C$A$GT$$u20$as$u20$core..iter..traits..iterator..Iterator$GT$8try_fold17hd4d3ac785d3d2b81E', symObjAddr: 0x978, symBinAddr: 0x9538, symSize: 0x1BC }
  - { offset: 0x2FB80, size: 0x8, addend: 0x0, symName: '__ZN103_$LT$alloc..vec..into_iter..IntoIter$LT$T$C$A$GT$$u20$as$u20$core..iter..traits..iterator..Iterator$GT$8try_fold17hf2f8da7592731ecbE', symObjAddr: 0xB34, symBinAddr: 0x96F4, symSize: 0x1CC }
  - { offset: 0x2FD77, size: 0x8, addend: 0x0, symName: '__ZN103_$LT$alloc..vec..into_iter..IntoIter$LT$T$C$A$GT$$u20$as$u20$core..iter..traits..iterator..Iterator$GT$9size_hint17h678e4c984728a0d8E', symObjAddr: 0xD00, symBinAddr: 0x98C0, symSize: 0x6C }
  - { offset: 0x2FDD2, size: 0x8, addend: 0x0, symName: '__ZN103_$LT$alloc..vec..into_iter..IntoIter$LT$T$C$A$GT$$u20$as$u20$core..iter..traits..iterator..Iterator$GT$9size_hint17h8f6a0b3a7e1e474eE', symObjAddr: 0xD6C, symBinAddr: 0x992C, symSize: 0x6C }
  - { offset: 0x2FE2D, size: 0x8, addend: 0x0, symName: '__ZN103_$LT$alloc..vec..into_iter..IntoIter$LT$T$C$A$GT$$u20$as$u20$core..iter..traits..iterator..Iterator$GT$9size_hint17h975bb648412d68fdE', symObjAddr: 0xDD8, symBinAddr: 0x9998, symSize: 0x6C }
  - { offset: 0x2FE88, size: 0x8, addend: 0x0, symName: '__ZN103_$LT$alloc..vec..into_iter..IntoIter$LT$T$C$A$GT$$u20$as$u20$core..iter..traits..iterator..Iterator$GT$9size_hint17h9efcfec1ae21091eE', symObjAddr: 0xE44, symBinAddr: 0x9A04, symSize: 0x6C }
  - { offset: 0x2FEE3, size: 0x8, addend: 0x0, symName: '__ZN103_$LT$alloc..vec..into_iter..IntoIter$LT$T$C$A$GT$$u20$as$u20$core..iter..traits..iterator..Iterator$GT$9size_hint17hc52a7ca46969a032E', symObjAddr: 0xEB0, symBinAddr: 0x9A70, symSize: 0x6C }
  - { offset: 0x2FF44, size: 0x8, addend: 0x0, symName: '__ZN114_$LT$alloc..vec..into_iter..IntoIter$LT$T$C$A$GT$$u20$as$u20$core..iter..traits..exact_size..ExactSizeIterator$GT$8is_empty17h694c7a808c533935E', symObjAddr: 0xF1C, symBinAddr: 0x9ADC, symSize: 0x54 }
  - { offset: 0x2FFBF, size: 0x8, addend: 0x0, symName: '__ZN114_$LT$alloc..vec..into_iter..IntoIter$LT$T$C$A$GT$$u20$as$u20$core..iter..traits..exact_size..ExactSizeIterator$GT$8is_empty17h6af637eb13e0b695E', symObjAddr: 0xF70, symBinAddr: 0x9B30, symSize: 0x54 }
  - { offset: 0x3003A, size: 0x8, addend: 0x0, symName: '__ZN114_$LT$alloc..vec..into_iter..IntoIter$LT$T$C$A$GT$$u20$as$u20$core..iter..traits..exact_size..ExactSizeIterator$GT$8is_empty17h88916cf432df69a1E', symObjAddr: 0xFC4, symBinAddr: 0x9B84, symSize: 0x54 }
  - { offset: 0x300B5, size: 0x8, addend: 0x0, symName: '__ZN114_$LT$alloc..vec..into_iter..IntoIter$LT$T$C$A$GT$$u20$as$u20$core..iter..traits..exact_size..ExactSizeIterator$GT$8is_empty17hae00cc87b637a362E', symObjAddr: 0x1018, symBinAddr: 0x9BD8, symSize: 0x54 }
  - { offset: 0x31642, size: 0x8, addend: 0x0, symName: '__ZN4core3fmt3num50_$LT$impl$u20$core..fmt..Debug$u20$for$u20$u64$GT$3fmt17h39958d6969e2a6deE', symObjAddr: 0x0, symBinAddr: 0xA13C, symSize: 0x90 }
  - { offset: 0x316DD, size: 0x8, addend: 0x0, symName: '__ZN4core3fmt3num50_$LT$impl$u20$core..fmt..Debug$u20$for$u20$u64$GT$3fmt17h39958d6969e2a6deE', symObjAddr: 0x0, symBinAddr: 0xA13C, symSize: 0x90 }
  - { offset: 0x318CE, size: 0x8, addend: 0x0, symName: __ZN4pyo33err5PyErr10from_state17h13def95a9f573ca0E, symObjAddr: 0x0, symBinAddr: 0xA1CC, symSize: 0x3C }
  - { offset: 0x333CF, size: 0x8, addend: 0x0, symName: __ZN4pyo33err5PyErr10from_state17h13def95a9f573ca0E, symObjAddr: 0x0, symBinAddr: 0xA1CC, symSize: 0x3C }
  - { offset: 0x33455, size: 0x8, addend: 0x0, symName: __ZN4pyo33err5PyErr22write_unraisable_bound17ha56acdb623529c35E, symObjAddr: 0x3C, symBinAddr: 0xA208, symSize: 0x34 }
  - { offset: 0x334BF, size: 0x8, addend: 0x0, symName: __ZN4pyo33err5PyErr7restore17h9ea64f9a8ace38ebE, symObjAddr: 0x70, symBinAddr: 0xA23C, symSize: 0x68 }
  - { offset: 0x3353A, size: 0x8, addend: 0x0, symName: '__ZN4pyo35types10boolobject116_$LT$impl$u20$pyo3..conversion..IntoPy$LT$pyo3..instance..Py$LT$pyo3..types..any..PyAny$GT$$GT$$u20$for$u20$bool$GT$7into_py17h19761b9089e62adbE', symObjAddr: 0x0, symBinAddr: 0xA2A4, symSize: 0x24 }
  - { offset: 0x34670, size: 0x8, addend: 0x0, symName: '__ZN4pyo35types10boolobject116_$LT$impl$u20$pyo3..conversion..IntoPy$LT$pyo3..instance..Py$LT$pyo3..types..any..PyAny$GT$$GT$$u20$for$u20$bool$GT$7into_py17h19761b9089e62adbE', symObjAddr: 0x0, symBinAddr: 0xA2A4, symSize: 0x24 }
  - { offset: 0x34CB9, size: 0x8, addend: 0x0, symName: __ZN4pyo35types10boolobject6PyBool9new_bound17hd688a6862d5c80e5E, symObjAddr: 0x24, symBinAddr: 0xA2C8, symSize: 0x50 }
  - { offset: 0x34D12, size: 0x8, addend: 0x0, symName: '__ZN104_$LT$T$u20$as$u20$pyo3..callback..IntoPyCallbackOutput$LT$$BP$mut$u20$pyo3_ffi..object..PyObject$GT$$GT$7convert17h1559836ad1db9e6bE', symObjAddr: 0x0, symBinAddr: 0xA318, symSize: 0x30 }
  - { offset: 0x38644, size: 0x8, addend: 0x0, symName: '__ZN111_$LT$alloc..vec..Vec$LT$T$GT$$u20$as$u20$alloc..vec..spec_from_iter_nested..SpecFromIterNested$LT$T$C$I$GT$$GT$9from_iter17h0638aaa1e6ed1185E', symObjAddr: 0x30, symBinAddr: 0xA348, symSize: 0x164 }
  - { offset: 0x3871A, size: 0x8, addend: 0x0, symName: '__ZN111_$LT$alloc..vec..Vec$LT$T$GT$$u20$as$u20$alloc..vec..spec_from_iter_nested..SpecFromIterNested$LT$T$C$I$GT$$GT$9from_iter17h169c1fc8a6d931fbE', symObjAddr: 0x194, symBinAddr: 0xA4AC, symSize: 0x164 }
  - { offset: 0x387F0, size: 0x8, addend: 0x0, symName: '__ZN111_$LT$alloc..vec..Vec$LT$T$GT$$u20$as$u20$alloc..vec..spec_from_iter_nested..SpecFromIterNested$LT$T$C$I$GT$$GT$9from_iter17h5a6c09682e05983aE', symObjAddr: 0x2F8, symBinAddr: 0xA610, symSize: 0x168 }
  - { offset: 0x388C7, size: 0x8, addend: 0x0, symName: '__ZN111_$LT$alloc..vec..Vec$LT$T$GT$$u20$as$u20$alloc..vec..spec_from_iter_nested..SpecFromIterNested$LT$T$C$I$GT$$GT$9from_iter17hc64048ba5686b2f7E', symObjAddr: 0xA94, symBinAddr: 0xADAC, symSize: 0x164 }
  - { offset: 0x3899D, size: 0x8, addend: 0x0, symName: '__ZN111_$LT$alloc..vec..Vec$LT$T$GT$$u20$as$u20$alloc..vec..spec_from_iter_nested..SpecFromIterNested$LT$T$C$I$GT$$GT$9from_iter17hddafca32489d0d7dE', symObjAddr: 0xE28, symBinAddr: 0xB140, symSize: 0x170 }
  - { offset: 0x38A7A, size: 0x8, addend: 0x0, symName: '__ZN111_$LT$alloc..vec..Vec$LT$T$GT$$u20$as$u20$alloc..vec..spec_from_iter_nested..SpecFromIterNested$LT$T$C$I$GT$$GT$9from_iter17h68718f9d633ff07fE', symObjAddr: 0x460, symBinAddr: 0xA778, symSize: 0x210 }
  - { offset: 0x38C98, size: 0x8, addend: 0x0, symName: '__ZN111_$LT$alloc..vec..Vec$LT$T$GT$$u20$as$u20$alloc..vec..spec_from_iter_nested..SpecFromIterNested$LT$T$C$I$GT$$GT$9from_iter17h958890b4a32a510cE', symObjAddr: 0x670, symBinAddr: 0xA988, symSize: 0x210 }
  - { offset: 0x38EB6, size: 0x8, addend: 0x0, symName: '__ZN111_$LT$alloc..vec..Vec$LT$T$GT$$u20$as$u20$alloc..vec..spec_from_iter_nested..SpecFromIterNested$LT$T$C$I$GT$$GT$9from_iter17hbb7a8b1e935f4d64E', symObjAddr: 0x880, symBinAddr: 0xAB98, symSize: 0x214 }
  - { offset: 0x390D4, size: 0x8, addend: 0x0, symName: '__ZN111_$LT$alloc..vec..Vec$LT$T$GT$$u20$as$u20$alloc..vec..spec_from_iter_nested..SpecFromIterNested$LT$T$C$I$GT$$GT$9from_iter17hcc406624ac57193aE', symObjAddr: 0xBF8, symBinAddr: 0xAF10, symSize: 0x230 }
  - { offset: 0x392F3, size: 0x8, addend: 0x0, symName: '__ZN111_$LT$alloc..vec..Vec$LT$T$GT$$u20$as$u20$alloc..vec..spec_from_iter_nested..SpecFromIterNested$LT$T$C$I$GT$$GT$9from_iter17hfde11e823905d130E', symObjAddr: 0xF98, symBinAddr: 0xB2B0, symSize: 0x214 }
  - { offset: 0x39B23, size: 0x8, addend: 0x0, symName: '__ZN5alloc3vec16Vec$LT$T$C$A$GT$14extend_trusted28_$u7b$$u7b$closure$u7d$$u7d$17h0e08b5c4bce6a7adE', symObjAddr: 0x1C78, symBinAddr: 0xBF90, symSize: 0x54 }
  - { offset: 0x39BE1, size: 0x8, addend: 0x0, symName: '__ZN5alloc3vec16Vec$LT$T$C$A$GT$14extend_trusted28_$u7b$$u7b$closure$u7d$$u7d$17h371276492bd1d28cE', symObjAddr: 0x1CCC, symBinAddr: 0xBFE4, symSize: 0x3C }
  - { offset: 0x39C96, size: 0x8, addend: 0x0, symName: '__ZN5alloc3vec16Vec$LT$T$C$A$GT$14extend_trusted28_$u7b$$u7b$closure$u7d$$u7d$17h8bce8e75d389bd73E', symObjAddr: 0x1D08, symBinAddr: 0xC020, symSize: 0x44 }
  - { offset: 0x39D43, size: 0x8, addend: 0x0, symName: '__ZN5alloc3vec16Vec$LT$T$C$A$GT$14extend_trusted28_$u7b$$u7b$closure$u7d$$u7d$17hb6258f12b93b4f9dE', symObjAddr: 0x1D4C, symBinAddr: 0xC064, symSize: 0x54 }
  - { offset: 0x39E01, size: 0x8, addend: 0x0, symName: '__ZN5alloc3vec16Vec$LT$T$C$A$GT$14extend_trusted28_$u7b$$u7b$closure$u7d$$u7d$17he7efbe9d5d12620cE', symObjAddr: 0x1DA0, symBinAddr: 0xC0B8, symSize: 0x44 }
  - { offset: 0x39F98, size: 0x8, addend: 0x0, symName: '__ZN5alloc3vec16in_place_collect108_$LT$impl$u20$alloc..vec..spec_from_iter..SpecFromIter$LT$T$C$I$GT$$u20$for$u20$alloc..vec..Vec$LT$T$GT$$GT$9from_iter17h7c1116976180134dE', symObjAddr: 0x2C1C, symBinAddr: 0xCF34, symSize: 0x28 }
  - { offset: 0x3A05B, size: 0x8, addend: 0x0, symName: '__ZN72_$LT$alloc..vec..Vec$LT$T$C$A$GT$$u20$as$u20$core..ops..deref..Deref$GT$5deref17h5d126cee7887b5d3E', symObjAddr: 0x2D74, symBinAddr: 0xD08C, symSize: 0x24 }
  - { offset: 0x3A09B, size: 0x8, addend: 0x0, symName: '__ZN72_$LT$alloc..vec..Vec$LT$T$C$A$GT$$u20$as$u20$core..ops..deref..Deref$GT$5deref17haee050e0713f8071E', symObjAddr: 0x2D98, symBinAddr: 0xD0B0, symSize: 0x24 }
  - { offset: 0x3A0DB, size: 0x8, addend: 0x0, symName: '__ZN72_$LT$alloc..vec..Vec$LT$T$C$A$GT$$u20$as$u20$core..ops..deref..Deref$GT$5deref17hd204f30a2b7d2de6E', symObjAddr: 0x2DBC, symBinAddr: 0xD0D4, symSize: 0x24 }
  - { offset: 0x3A151, size: 0x8, addend: 0x0, symName: '__ZN67_$LT$alloc..vec..Vec$LT$T$C$A$GT$$u20$as$u20$core..clone..Clone$GT$5clone17h08f543c3b764b0c9E', symObjAddr: 0x2C44, symBinAddr: 0xCF5C, symSize: 0x90 }
  - { offset: 0x3A322, size: 0x8, addend: 0x0, symName: '__ZN67_$LT$alloc..vec..Vec$LT$T$C$A$GT$$u20$as$u20$core..clone..Clone$GT$5clone17h46a4bc623ee65918E', symObjAddr: 0x2CD4, symBinAddr: 0xCFEC, symSize: 0x8C }
  - { offset: 0x3A4F9, size: 0x8, addend: 0x0, symName: '__ZN67_$LT$alloc..vec..Vec$LT$T$GT$$u20$as$u20$core..default..Default$GT$7default17h514d83a1358b2154E', symObjAddr: 0x2D60, symBinAddr: 0xD078, symSize: 0x14 }
  - { offset: 0x3A51B, size: 0x8, addend: 0x0, symName: '__ZN67_$LT$alloc..vec..Vec$LT$T$GT$$u20$as$u20$core..default..Default$GT$7default17h514d83a1358b2154E', symObjAddr: 0x2D60, symBinAddr: 0xD078, symSize: 0x14 }
  - { offset: 0x3A53C, size: 0x8, addend: 0x0, symName: '__ZN75_$LT$alloc..vec..Vec$LT$T$C$A$GT$$u20$as$u20$core..ops..deref..DerefMut$GT$9deref_mut17h7c5f89ae502ef5edE', symObjAddr: 0x2DE0, symBinAddr: 0xD0F8, symSize: 0x24 }
  - { offset: 0x3A582, size: 0x8, addend: 0x0, symName: '__ZN90_$LT$alloc..vec..Vec$LT$T$C$A$GT$$u20$as$u20$core..iter..traits..collect..IntoIterator$GT$9into_iter17h1441c51409ca6482E', symObjAddr: 0x2E04, symBinAddr: 0xD11C, symSize: 0xDC }
  - { offset: 0x3A814, size: 0x8, addend: 0x0, symName: '__ZN90_$LT$alloc..vec..Vec$LT$T$C$A$GT$$u20$as$u20$core..iter..traits..collect..IntoIterator$GT$9into_iter17h3a673c2f38924469E', symObjAddr: 0x2EE0, symBinAddr: 0xD1F8, symSize: 0xDC }
  - { offset: 0x3AAA6, size: 0x8, addend: 0x0, symName: '__ZN90_$LT$alloc..vec..Vec$LT$T$C$A$GT$$u20$as$u20$core..iter..traits..collect..IntoIterator$GT$9into_iter17h8eac1358636b6df3E', symObjAddr: 0x2FBC, symBinAddr: 0xD2D4, symSize: 0xE4 }
  - { offset: 0x3AD38, size: 0x8, addend: 0x0, symName: '__ZN90_$LT$alloc..vec..Vec$LT$T$C$A$GT$$u20$as$u20$core..iter..traits..collect..IntoIterator$GT$9into_iter17ha41e5e67c5e59d5dE', symObjAddr: 0x30A0, symBinAddr: 0xD3B8, symSize: 0xE4 }
  - { offset: 0x3AFCA, size: 0x8, addend: 0x0, symName: '__ZN90_$LT$alloc..vec..Vec$LT$T$C$A$GT$$u20$as$u20$core..iter..traits..collect..IntoIterator$GT$9into_iter17hcf220c390366eaa2E', symObjAddr: 0x3184, symBinAddr: 0xD49C, symSize: 0xE4 }
  - { offset: 0x3B262, size: 0x8, addend: 0x0, symName: '__ZN94_$LT$$RF$alloc..vec..Vec$LT$T$C$A$GT$$u20$as$u20$core..iter..traits..collect..IntoIterator$GT$9into_iter17ha8bca86396ba3203E', symObjAddr: 0x3268, symBinAddr: 0xD580, symSize: 0xA0 }
  - { offset: 0x3B4A6, size: 0x8, addend: 0x0, symName: '__ZN95_$LT$alloc..vec..Vec$LT$T$GT$$u20$as$u20$core..iter..traits..collect..FromIterator$LT$T$GT$$GT$9from_iter17h1ea0d80c1548dfd5E', symObjAddr: 0x3308, symBinAddr: 0xD620, symSize: 0x3C }
  - { offset: 0x3B4E7, size: 0x8, addend: 0x0, symName: '__ZN95_$LT$alloc..vec..Vec$LT$T$GT$$u20$as$u20$core..iter..traits..collect..FromIterator$LT$T$GT$$GT$9from_iter17h2152085dc5804405E', symObjAddr: 0x3344, symBinAddr: 0xD65C, symSize: 0x40 }
  - { offset: 0x3B527, size: 0x8, addend: 0x0, symName: '__ZN95_$LT$alloc..vec..Vec$LT$T$GT$$u20$as$u20$core..iter..traits..collect..FromIterator$LT$T$GT$$GT$9from_iter17h2f7724daae3d1597E', symObjAddr: 0x3384, symBinAddr: 0xD69C, symSize: 0x3C }
  - { offset: 0x3B568, size: 0x8, addend: 0x0, symName: '__ZN95_$LT$alloc..vec..Vec$LT$T$GT$$u20$as$u20$core..iter..traits..collect..FromIterator$LT$T$GT$$GT$9from_iter17h4cd4e764731c41e6E', symObjAddr: 0x33C0, symBinAddr: 0xD6D8, symSize: 0x40 }
  - { offset: 0x3B5A8, size: 0x8, addend: 0x0, symName: '__ZN95_$LT$alloc..vec..Vec$LT$T$GT$$u20$as$u20$core..iter..traits..collect..FromIterator$LT$T$GT$$GT$9from_iter17h55d0d11bebb5edddE', symObjAddr: 0x3400, symBinAddr: 0xD718, symSize: 0x40 }
  - { offset: 0x3B5E8, size: 0x8, addend: 0x0, symName: '__ZN95_$LT$alloc..vec..Vec$LT$T$GT$$u20$as$u20$core..iter..traits..collect..FromIterator$LT$T$GT$$GT$9from_iter17h9614486e3fe94eddE', symObjAddr: 0x3440, symBinAddr: 0xD758, symSize: 0x3C }
  - { offset: 0x3B629, size: 0x8, addend: 0x0, symName: '__ZN95_$LT$alloc..vec..Vec$LT$T$GT$$u20$as$u20$core..iter..traits..collect..FromIterator$LT$T$GT$$GT$9from_iter17ha69658a78c785e0dE', symObjAddr: 0x347C, symBinAddr: 0xD794, symSize: 0x40 }
  - { offset: 0x3B669, size: 0x8, addend: 0x0, symName: '__ZN95_$LT$alloc..vec..Vec$LT$T$GT$$u20$as$u20$core..iter..traits..collect..FromIterator$LT$T$GT$$GT$9from_iter17hba381e614b5f511cE', symObjAddr: 0x34BC, symBinAddr: 0xD7D4, symSize: 0x3C }
  - { offset: 0x3B6AA, size: 0x8, addend: 0x0, symName: '__ZN95_$LT$alloc..vec..Vec$LT$T$GT$$u20$as$u20$core..iter..traits..collect..FromIterator$LT$T$GT$$GT$9from_iter17hcbd5e6a0b5443852E', symObjAddr: 0x34F8, symBinAddr: 0xD810, symSize: 0x40 }
  - { offset: 0x3B6EA, size: 0x8, addend: 0x0, symName: '__ZN95_$LT$alloc..vec..Vec$LT$T$GT$$u20$as$u20$core..iter..traits..collect..FromIterator$LT$T$GT$$GT$9from_iter17hfc54507f6473d399E', symObjAddr: 0x3538, symBinAddr: 0xD850, symSize: 0x40 }
  - { offset: 0x3B735, size: 0x8, addend: 0x0, symName: '__ZN97_$LT$alloc..vec..Vec$LT$T$C$A$GT$$u20$as$u20$alloc..vec..spec_extend..SpecExtend$LT$T$C$I$GT$$GT$11spec_extend17h03e81dd63eeb2ad7E', symObjAddr: 0x3578, symBinAddr: 0xD890, symSize: 0x24 }
  - { offset: 0x3B787, size: 0x8, addend: 0x0, symName: '__ZN97_$LT$alloc..vec..Vec$LT$T$C$A$GT$$u20$as$u20$alloc..vec..spec_extend..SpecExtend$LT$T$C$I$GT$$GT$11spec_extend17h16db042e3ff6702dE', symObjAddr: 0x35C0, symBinAddr: 0xD8D8, symSize: 0x34 }
  - { offset: 0x3B7D8, size: 0x8, addend: 0x0, symName: '__ZN97_$LT$alloc..vec..Vec$LT$T$C$A$GT$$u20$as$u20$alloc..vec..spec_extend..SpecExtend$LT$T$C$I$GT$$GT$11spec_extend17h1ea99aeb6068c63bE', symObjAddr: 0x35F4, symBinAddr: 0xD90C, symSize: 0x34 }
  - { offset: 0x3B829, size: 0x8, addend: 0x0, symName: '__ZN97_$LT$alloc..vec..Vec$LT$T$C$A$GT$$u20$as$u20$alloc..vec..spec_extend..SpecExtend$LT$T$C$I$GT$$GT$11spec_extend17h697e854fc6a972a2E', symObjAddr: 0x36B4, symBinAddr: 0xD9CC, symSize: 0x24 }
  - { offset: 0x3B87B, size: 0x8, addend: 0x0, symName: '__ZN97_$LT$alloc..vec..Vec$LT$T$C$A$GT$$u20$as$u20$alloc..vec..spec_extend..SpecExtend$LT$T$C$I$GT$$GT$11spec_extend17h9bd40ecb3068cbe4E', symObjAddr: 0x36D8, symBinAddr: 0xD9F0, symSize: 0x34 }
  - { offset: 0x3B8D2, size: 0x8, addend: 0x0, symName: '__ZN97_$LT$alloc..vec..Vec$LT$T$C$A$GT$$u20$as$u20$alloc..vec..spec_extend..SpecExtend$LT$T$C$I$GT$$GT$11spec_extend17h10f693a76947944cE', symObjAddr: 0x359C, symBinAddr: 0xD8B4, symSize: 0x24 }
  - { offset: 0x3B924, size: 0x8, addend: 0x0, symName: '__ZN97_$LT$alloc..vec..Vec$LT$T$C$A$GT$$u20$as$u20$alloc..vec..spec_extend..SpecExtend$LT$T$C$I$GT$$GT$11spec_extend17h264215d08c9c55feE', symObjAddr: 0x3628, symBinAddr: 0xD940, symSize: 0x34 }
  - { offset: 0x3B975, size: 0x8, addend: 0x0, symName: '__ZN97_$LT$alloc..vec..Vec$LT$T$C$A$GT$$u20$as$u20$alloc..vec..spec_extend..SpecExtend$LT$T$C$I$GT$$GT$11spec_extend17h317035b0e4437c5cE', symObjAddr: 0x365C, symBinAddr: 0xD974, symSize: 0x34 }
  - { offset: 0x3B9C6, size: 0x8, addend: 0x0, symName: '__ZN97_$LT$alloc..vec..Vec$LT$T$C$A$GT$$u20$as$u20$alloc..vec..spec_extend..SpecExtend$LT$T$C$I$GT$$GT$11spec_extend17h462705b5fe506e8aE', symObjAddr: 0x3690, symBinAddr: 0xD9A8, symSize: 0x24 }
  - { offset: 0x3BA18, size: 0x8, addend: 0x0, symName: '__ZN97_$LT$alloc..vec..Vec$LT$T$C$A$GT$$u20$as$u20$alloc..vec..spec_extend..SpecExtend$LT$T$C$I$GT$$GT$11spec_extend17hb00f65ae99fff855E', symObjAddr: 0x370C, symBinAddr: 0xDA24, symSize: 0x34 }
  - { offset: 0x3BA75, size: 0x8, addend: 0x0, symName: '__ZN98_$LT$alloc..vec..Vec$LT$T$GT$$u20$as$u20$alloc..vec..spec_from_iter..SpecFromIter$LT$T$C$I$GT$$GT$9from_iter17h108063d59d43ee93E', symObjAddr: 0x3740, symBinAddr: 0xDA58, symSize: 0x14 }
  - { offset: 0x3BAB4, size: 0x8, addend: 0x0, symName: '__ZN98_$LT$alloc..vec..Vec$LT$T$GT$$u20$as$u20$alloc..vec..spec_from_iter..SpecFromIter$LT$T$C$I$GT$$GT$9from_iter17h77f4bb41dace3ddcE', symObjAddr: 0x3754, symBinAddr: 0xDA6C, symSize: 0x2C }
  - { offset: 0x3BAF2, size: 0x8, addend: 0x0, symName: '__ZN98_$LT$alloc..vec..Vec$LT$T$GT$$u20$as$u20$alloc..vec..spec_from_iter..SpecFromIter$LT$T$C$I$GT$$GT$9from_iter17h7cb969efea936eefE', symObjAddr: 0x3780, symBinAddr: 0xDA98, symSize: 0x2C }
  - { offset: 0x3BB30, size: 0x8, addend: 0x0, symName: '__ZN98_$LT$alloc..vec..Vec$LT$T$GT$$u20$as$u20$alloc..vec..spec_from_iter..SpecFromIter$LT$T$C$I$GT$$GT$9from_iter17h88e95048348e57caE', symObjAddr: 0x37AC, symBinAddr: 0xDAC4, symSize: 0x2C }
  - { offset: 0x3BB6E, size: 0x8, addend: 0x0, symName: '__ZN98_$LT$alloc..vec..Vec$LT$T$GT$$u20$as$u20$alloc..vec..spec_from_iter..SpecFromIter$LT$T$C$I$GT$$GT$9from_iter17h8ea790dbc3504f1bE', symObjAddr: 0x37D8, symBinAddr: 0xDAF0, symSize: 0x2C }
  - { offset: 0x3BBAC, size: 0x8, addend: 0x0, symName: '__ZN98_$LT$alloc..vec..Vec$LT$T$GT$$u20$as$u20$alloc..vec..spec_from_iter..SpecFromIter$LT$T$C$I$GT$$GT$9from_iter17hde1e78799d5496e2E', symObjAddr: 0x3804, symBinAddr: 0xDB1C, symSize: 0x2C }
  - { offset: 0x3BBEA, size: 0x8, addend: 0x0, symName: '__ZN98_$LT$alloc..vec..Vec$LT$T$GT$$u20$as$u20$alloc..vec..spec_from_iter..SpecFromIter$LT$T$C$I$GT$$GT$9from_iter17he44d589b6c5a60acE', symObjAddr: 0x3830, symBinAddr: 0xDB48, symSize: 0x14 }
  - { offset: 0x3BC29, size: 0x8, addend: 0x0, symName: '__ZN98_$LT$alloc..vec..Vec$LT$T$GT$$u20$as$u20$alloc..vec..spec_from_iter..SpecFromIter$LT$T$C$I$GT$$GT$9from_iter17hedee353d4b8a3b18E', symObjAddr: 0x3844, symBinAddr: 0xDB5C, symSize: 0x14 }
  - { offset: 0x3BC68, size: 0x8, addend: 0x0, symName: '__ZN98_$LT$alloc..vec..Vec$LT$T$GT$$u20$as$u20$alloc..vec..spec_from_iter..SpecFromIter$LT$T$C$I$GT$$GT$9from_iter17hfd66fd2085662df9E', symObjAddr: 0x3858, symBinAddr: 0xDB70, symSize: 0x2C }
  - { offset: 0x3DF81, size: 0x8, addend: 0x0, symName: '__ZN4pyo311conversions3std3vec136_$LT$impl$u20$pyo3..conversion..IntoPy$LT$pyo3..instance..Py$LT$pyo3..types..any..PyAny$GT$$GT$$u20$for$u20$alloc..vec..Vec$LT$T$GT$$GT$7into_py17h586b2a6e94e1fa0aE', symObjAddr: 0x11AC, symBinAddr: 0xB4C4, symSize: 0xAC }
  - { offset: 0x3E002, size: 0x8, addend: 0x0, symName: '__ZN4pyo311conversions3std3vec136_$LT$impl$u20$pyo3..conversion..IntoPy$LT$pyo3..instance..Py$LT$pyo3..types..any..PyAny$GT$$GT$$u20$for$u20$alloc..vec..Vec$LT$T$GT$$GT$7into_py17h5dde28dffa7c2723E', symObjAddr: 0x1258, symBinAddr: 0xB570, symSize: 0xAC }
  - { offset: 0x3E083, size: 0x8, addend: 0x0, symName: '__ZN4pyo311conversions3std3vec136_$LT$impl$u20$pyo3..conversion..IntoPy$LT$pyo3..instance..Py$LT$pyo3..types..any..PyAny$GT$$GT$$u20$for$u20$alloc..vec..Vec$LT$T$GT$$GT$7into_py17hb128a104023cada3E', symObjAddr: 0x1304, symBinAddr: 0xB61C, symSize: 0xAC }
  - { offset: 0x3E104, size: 0x8, addend: 0x0, symName: '__ZN4pyo311conversions3std3vec136_$LT$impl$u20$pyo3..conversion..IntoPy$LT$pyo3..instance..Py$LT$pyo3..types..any..PyAny$GT$$GT$$u20$for$u20$alloc..vec..Vec$LT$T$GT$$GT$7into_py17hd2ffd6f00d3680ccE', symObjAddr: 0x13B0, symBinAddr: 0xB6C8, symSize: 0xAC }
  - { offset: 0x3E222, size: 0x8, addend: 0x0, symName: '__ZN56_$LT$T$u20$as$u20$pyo3..impl_..wrap..OkWrap$LT$T$GT$$GT$4wrap17h0253bb45fe51d14eE', symObjAddr: 0x145C, symBinAddr: 0xB774, symSize: 0x18 }
  - { offset: 0x3E257, size: 0x8, addend: 0x0, symName: '__ZN56_$LT$T$u20$as$u20$pyo3..impl_..wrap..OkWrap$LT$T$GT$$GT$4wrap17h3b6207675cb496c3E', symObjAddr: 0x1474, symBinAddr: 0xB78C, symSize: 0x18 }
  - { offset: 0x3E28C, size: 0x8, addend: 0x0, symName: '__ZN56_$LT$T$u20$as$u20$pyo3..impl_..wrap..OkWrap$LT$T$GT$$GT$4wrap17h3b8222671e425cf6E', symObjAddr: 0x148C, symBinAddr: 0xB7A4, symSize: 0x18 }
  - { offset: 0x3E2C1, size: 0x8, addend: 0x0, symName: '__ZN56_$LT$T$u20$as$u20$pyo3..impl_..wrap..OkWrap$LT$T$GT$$GT$4wrap17hf656cdecb8f64decE', symObjAddr: 0x14A4, symBinAddr: 0xB7BC, symSize: 0x18 }
  - { offset: 0x3E303, size: 0x8, addend: 0x0, symName: '__ZN104_$LT$T$u20$as$u20$pyo3..callback..IntoPyCallbackOutput$LT$$BP$mut$u20$pyo3_ffi..object..PyObject$GT$$GT$7convert17h1559836ad1db9e6bE', symObjAddr: 0x0, symBinAddr: 0xA318, symSize: 0x30 }
  - { offset: 0x3F8D9, size: 0x8, addend: 0x0, symName: '__ZN5alloc3vec12Vec$LT$T$GT$3new17hae4c1dc81e36c054E', symObjAddr: 0x14BC, symBinAddr: 0xB7D4, symSize: 0x14 }
  - { offset: 0x3F9D1, size: 0x8, addend: 0x0, symName: '__ZN5alloc3vec16Vec$LT$T$C$A$GT$12as_mut_slice17heed5e64de9ac9841E', symObjAddr: 0x14D0, symBinAddr: 0xB7E8, symSize: 0x68 }
  - { offset: 0x3FBE3, size: 0x8, addend: 0x0, symName: '__ZN5alloc3vec16Vec$LT$T$C$A$GT$14extend_trusted17h35e25d41945dac85E', symObjAddr: 0x1538, symBinAddr: 0xB850, symSize: 0x16C }
  - { offset: 0x3FEA5, size: 0x8, addend: 0x0, symName: '__ZN5alloc3vec16Vec$LT$T$C$A$GT$14extend_trusted17h3fa9a4c8de769679E', symObjAddr: 0x16A4, symBinAddr: 0xB9BC, symSize: 0x16C }
  - { offset: 0x4018E, size: 0x8, addend: 0x0, symName: '__ZN5alloc3vec16Vec$LT$T$C$A$GT$14extend_trusted17h4f73f7f9dc92b42fE', symObjAddr: 0x1810, symBinAddr: 0xBB28, symSize: 0x178 }
  - { offset: 0x40451, size: 0x8, addend: 0x0, symName: '__ZN5alloc3vec16Vec$LT$T$C$A$GT$14extend_trusted17h89a3ad365d7efd22E', symObjAddr: 0x1988, symBinAddr: 0xBCA0, symSize: 0x16C }
  - { offset: 0x40713, size: 0x8, addend: 0x0, symName: '__ZN5alloc3vec16Vec$LT$T$C$A$GT$14extend_trusted17hbfcd4efea966257bE', symObjAddr: 0x1AF4, symBinAddr: 0xBE0C, symSize: 0x184 }
  - { offset: 0x40AC3, size: 0x8, addend: 0x0, symName: '__ZN5alloc3vec16Vec$LT$T$C$A$GT$16extend_desugared17h02e9935522d9e3deE', symObjAddr: 0x1DE4, symBinAddr: 0xC0FC, symSize: 0x1D0 }
  - { offset: 0x40E7E, size: 0x8, addend: 0x0, symName: '__ZN5alloc3vec16Vec$LT$T$C$A$GT$16extend_desugared17h80ad8db8be4c6df4E', symObjAddr: 0x1FB4, symBinAddr: 0xC2CC, symSize: 0x1C0 }
  - { offset: 0x4122B, size: 0x8, addend: 0x0, symName: '__ZN5alloc3vec16Vec$LT$T$C$A$GT$16extend_desugared17hb49ad17ff909e499E', symObjAddr: 0x2174, symBinAddr: 0xC48C, symSize: 0x1C0 }
  - { offset: 0x415E5, size: 0x8, addend: 0x0, symName: '__ZN5alloc3vec16Vec$LT$T$C$A$GT$16extend_desugared17hbd26632de4bb5b28E', symObjAddr: 0x2334, symBinAddr: 0xC64C, symSize: 0x1CC }
  - { offset: 0x41992, size: 0x8, addend: 0x0, symName: '__ZN5alloc3vec16Vec$LT$T$C$A$GT$16extend_desugared17hc07f3335361f1fa1E', symObjAddr: 0x2500, symBinAddr: 0xC818, symSize: 0x1BC }
  - { offset: 0x41BDB, size: 0x8, addend: 0x0, symName: '__ZN5alloc3vec16Vec$LT$T$C$A$GT$3len17h21ecdfd4670d4fa1E', symObjAddr: 0x26BC, symBinAddr: 0xC9D4, symSize: 0x18 }
  - { offset: 0x41D40, size: 0x8, addend: 0x0, symName: '__ZN5alloc3vec16Vec$LT$T$C$A$GT$7reserve17h2e6f7ffe5bfbd587E', symObjAddr: 0x26D4, symBinAddr: 0xC9EC, symSize: 0xC8 }
  - { offset: 0x41FBD, size: 0x8, addend: 0x0, symName: '__ZN5alloc3vec16Vec$LT$T$C$A$GT$7reserve17h4cc028144f4965e1E', symObjAddr: 0x279C, symBinAddr: 0xCAB4, symSize: 0xC8 }
  - { offset: 0x4223A, size: 0x8, addend: 0x0, symName: '__ZN5alloc3vec16Vec$LT$T$C$A$GT$7reserve17h62915f313f1a2fe9E', symObjAddr: 0x2864, symBinAddr: 0xCB7C, symSize: 0xC8 }
  - { offset: 0x424B7, size: 0x8, addend: 0x0, symName: '__ZN5alloc3vec16Vec$LT$T$C$A$GT$7reserve17h948264d45c82ab86E', symObjAddr: 0x292C, symBinAddr: 0xCC44, symSize: 0xC8 }
  - { offset: 0x42734, size: 0x8, addend: 0x0, symName: '__ZN5alloc3vec16Vec$LT$T$C$A$GT$7reserve17hbb6916dffe1eb913E', symObjAddr: 0x29F4, symBinAddr: 0xCD0C, symSize: 0xC8 }
  - { offset: 0x42936, size: 0x8, addend: 0x0, symName: '__ZN5alloc3vec16Vec$LT$T$C$A$GT$8as_slice17h43e6dc1abcfa9cbbE', symObjAddr: 0x2ABC, symBinAddr: 0xCDD4, symSize: 0x68 }
  - { offset: 0x42A87, size: 0x8, addend: 0x0, symName: '__ZN5alloc3vec16Vec$LT$T$C$A$GT$8as_slice17h4daace6828762726E', symObjAddr: 0x2B24, symBinAddr: 0xCE3C, symSize: 0x6C }
  - { offset: 0x42BFF, size: 0x8, addend: 0x0, symName: '__ZN5alloc3vec16Vec$LT$T$C$A$GT$8as_slice17h9c9c6b5018606c83E', symObjAddr: 0x2B90, symBinAddr: 0xCEA8, symSize: 0x6C }
  - { offset: 0x42CDE, size: 0x8, addend: 0x0, symName: '__ZN5alloc3vec16Vec$LT$T$C$A$GT$8is_empty17h946ce0395e0f18cbE', symObjAddr: 0x2BFC, symBinAddr: 0xCF14, symSize: 0x20 }
  - { offset: 0x43BA7, size: 0x8, addend: 0x0, symName: '__ZN118_$LT$pyo3..impl_..pyclass..SendablePyClass$LT$T$GT$$u20$as$u20$pyo3..impl_..pyclass..PyClassThreadChecker$LT$T$GT$$GT$3new17h081efde7c0570f64E', symObjAddr: 0x0, symBinAddr: 0xDB9C, symSize: 0x4 }
  - { offset: 0x45C53, size: 0x8, addend: 0x0, symName: '__ZN118_$LT$pyo3..impl_..pyclass..SendablePyClass$LT$T$GT$$u20$as$u20$pyo3..impl_..pyclass..PyClassThreadChecker$LT$T$GT$$GT$3new17h081efde7c0570f64E', symObjAddr: 0x0, symBinAddr: 0xDB9C, symSize: 0x4 }
  - { offset: 0x45C77, size: 0x8, addend: 0x0, symName: '__ZN118_$LT$pyo3..impl_..pyclass..SendablePyClass$LT$T$GT$$u20$as$u20$pyo3..impl_..pyclass..PyClassThreadChecker$LT$T$GT$$GT$3new17h09f7475d96886827E', symObjAddr: 0x4, symBinAddr: 0xDBA0, symSize: 0x4 }
  - { offset: 0x45C9B, size: 0x8, addend: 0x0, symName: '__ZN118_$LT$pyo3..impl_..pyclass..SendablePyClass$LT$T$GT$$u20$as$u20$pyo3..impl_..pyclass..PyClassThreadChecker$LT$T$GT$$GT$3new17h0bdf9968d8e86b25E', symObjAddr: 0x8, symBinAddr: 0xDBA4, symSize: 0x4 }
  - { offset: 0x45CBF, size: 0x8, addend: 0x0, symName: '__ZN118_$LT$pyo3..impl_..pyclass..SendablePyClass$LT$T$GT$$u20$as$u20$pyo3..impl_..pyclass..PyClassThreadChecker$LT$T$GT$$GT$3new17h0c3417f88b527415E', symObjAddr: 0xC, symBinAddr: 0xDBA8, symSize: 0x4 }
  - { offset: 0x45CE3, size: 0x8, addend: 0x0, symName: '__ZN118_$LT$pyo3..impl_..pyclass..SendablePyClass$LT$T$GT$$u20$as$u20$pyo3..impl_..pyclass..PyClassThreadChecker$LT$T$GT$$GT$3new17h0d1ea5ac2bc98b3fE', symObjAddr: 0x10, symBinAddr: 0xDBAC, symSize: 0x4 }
  - { offset: 0x45D07, size: 0x8, addend: 0x0, symName: '__ZN118_$LT$pyo3..impl_..pyclass..SendablePyClass$LT$T$GT$$u20$as$u20$pyo3..impl_..pyclass..PyClassThreadChecker$LT$T$GT$$GT$3new17h0db24be308f759eeE', symObjAddr: 0x14, symBinAddr: 0xDBB0, symSize: 0x4 }
  - { offset: 0x45D2B, size: 0x8, addend: 0x0, symName: '__ZN118_$LT$pyo3..impl_..pyclass..SendablePyClass$LT$T$GT$$u20$as$u20$pyo3..impl_..pyclass..PyClassThreadChecker$LT$T$GT$$GT$3new17h0dfd413725db8b47E', symObjAddr: 0x18, symBinAddr: 0xDBB4, symSize: 0x4 }
  - { offset: 0x45D4F, size: 0x8, addend: 0x0, symName: '__ZN118_$LT$pyo3..impl_..pyclass..SendablePyClass$LT$T$GT$$u20$as$u20$pyo3..impl_..pyclass..PyClassThreadChecker$LT$T$GT$$GT$3new17h14342b806d5a85a8E', symObjAddr: 0x1C, symBinAddr: 0xDBB8, symSize: 0x4 }
  - { offset: 0x45D73, size: 0x8, addend: 0x0, symName: '__ZN118_$LT$pyo3..impl_..pyclass..SendablePyClass$LT$T$GT$$u20$as$u20$pyo3..impl_..pyclass..PyClassThreadChecker$LT$T$GT$$GT$3new17h1654bd4046638586E', symObjAddr: 0x20, symBinAddr: 0xDBBC, symSize: 0x4 }
  - { offset: 0x45D97, size: 0x8, addend: 0x0, symName: '__ZN118_$LT$pyo3..impl_..pyclass..SendablePyClass$LT$T$GT$$u20$as$u20$pyo3..impl_..pyclass..PyClassThreadChecker$LT$T$GT$$GT$3new17h1e7674745b629ca9E', symObjAddr: 0x24, symBinAddr: 0xDBC0, symSize: 0x4 }
  - { offset: 0x45DBB, size: 0x8, addend: 0x0, symName: '__ZN118_$LT$pyo3..impl_..pyclass..SendablePyClass$LT$T$GT$$u20$as$u20$pyo3..impl_..pyclass..PyClassThreadChecker$LT$T$GT$$GT$3new17h1f2c414e28270ed6E', symObjAddr: 0x28, symBinAddr: 0xDBC4, symSize: 0x4 }
  - { offset: 0x45DDF, size: 0x8, addend: 0x0, symName: '__ZN118_$LT$pyo3..impl_..pyclass..SendablePyClass$LT$T$GT$$u20$as$u20$pyo3..impl_..pyclass..PyClassThreadChecker$LT$T$GT$$GT$3new17h290a4431d4194a36E', symObjAddr: 0x2C, symBinAddr: 0xDBC8, symSize: 0x4 }
  - { offset: 0x45E03, size: 0x8, addend: 0x0, symName: '__ZN118_$LT$pyo3..impl_..pyclass..SendablePyClass$LT$T$GT$$u20$as$u20$pyo3..impl_..pyclass..PyClassThreadChecker$LT$T$GT$$GT$3new17h291e93b1f7b23563E', symObjAddr: 0x30, symBinAddr: 0xDBCC, symSize: 0x4 }
  - { offset: 0x45E27, size: 0x8, addend: 0x0, symName: '__ZN118_$LT$pyo3..impl_..pyclass..SendablePyClass$LT$T$GT$$u20$as$u20$pyo3..impl_..pyclass..PyClassThreadChecker$LT$T$GT$$GT$3new17h30526982cc4a7819E', symObjAddr: 0x34, symBinAddr: 0xDBD0, symSize: 0x4 }
  - { offset: 0x45E4B, size: 0x8, addend: 0x0, symName: '__ZN118_$LT$pyo3..impl_..pyclass..SendablePyClass$LT$T$GT$$u20$as$u20$pyo3..impl_..pyclass..PyClassThreadChecker$LT$T$GT$$GT$3new17h3649fa84b99f8945E', symObjAddr: 0x38, symBinAddr: 0xDBD4, symSize: 0x4 }
  - { offset: 0x45E6F, size: 0x8, addend: 0x0, symName: '__ZN118_$LT$pyo3..impl_..pyclass..SendablePyClass$LT$T$GT$$u20$as$u20$pyo3..impl_..pyclass..PyClassThreadChecker$LT$T$GT$$GT$3new17h3a0c8f99fb36f7e3E', symObjAddr: 0x3C, symBinAddr: 0xDBD8, symSize: 0x4 }
  - { offset: 0x45E93, size: 0x8, addend: 0x0, symName: '__ZN118_$LT$pyo3..impl_..pyclass..SendablePyClass$LT$T$GT$$u20$as$u20$pyo3..impl_..pyclass..PyClassThreadChecker$LT$T$GT$$GT$3new17h43f0e8cf6906a80bE', symObjAddr: 0x40, symBinAddr: 0xDBDC, symSize: 0x4 }
  - { offset: 0x45EB7, size: 0x8, addend: 0x0, symName: '__ZN118_$LT$pyo3..impl_..pyclass..SendablePyClass$LT$T$GT$$u20$as$u20$pyo3..impl_..pyclass..PyClassThreadChecker$LT$T$GT$$GT$3new17h4bc0ff2c8ae23b45E', symObjAddr: 0x44, symBinAddr: 0xDBE0, symSize: 0x4 }
  - { offset: 0x45EDB, size: 0x8, addend: 0x0, symName: '__ZN118_$LT$pyo3..impl_..pyclass..SendablePyClass$LT$T$GT$$u20$as$u20$pyo3..impl_..pyclass..PyClassThreadChecker$LT$T$GT$$GT$3new17h4c505e7c97f39743E', symObjAddr: 0x48, symBinAddr: 0xDBE4, symSize: 0x4 }
  - { offset: 0x45EFF, size: 0x8, addend: 0x0, symName: '__ZN118_$LT$pyo3..impl_..pyclass..SendablePyClass$LT$T$GT$$u20$as$u20$pyo3..impl_..pyclass..PyClassThreadChecker$LT$T$GT$$GT$3new17h4f30c9fddd83da34E', symObjAddr: 0x4C, symBinAddr: 0xDBE8, symSize: 0x4 }
  - { offset: 0x45F23, size: 0x8, addend: 0x0, symName: '__ZN118_$LT$pyo3..impl_..pyclass..SendablePyClass$LT$T$GT$$u20$as$u20$pyo3..impl_..pyclass..PyClassThreadChecker$LT$T$GT$$GT$3new17h62d0fa79ca71b597E', symObjAddr: 0x50, symBinAddr: 0xDBEC, symSize: 0x4 }
  - { offset: 0x45F47, size: 0x8, addend: 0x0, symName: '__ZN118_$LT$pyo3..impl_..pyclass..SendablePyClass$LT$T$GT$$u20$as$u20$pyo3..impl_..pyclass..PyClassThreadChecker$LT$T$GT$$GT$3new17h67d3735643fc00f2E', symObjAddr: 0x54, symBinAddr: 0xDBF0, symSize: 0x4 }
  - { offset: 0x45F6B, size: 0x8, addend: 0x0, symName: '__ZN118_$LT$pyo3..impl_..pyclass..SendablePyClass$LT$T$GT$$u20$as$u20$pyo3..impl_..pyclass..PyClassThreadChecker$LT$T$GT$$GT$3new17h6a3da3a8ade938b5E', symObjAddr: 0x58, symBinAddr: 0xDBF4, symSize: 0x4 }
  - { offset: 0x45F8F, size: 0x8, addend: 0x0, symName: '__ZN118_$LT$pyo3..impl_..pyclass..SendablePyClass$LT$T$GT$$u20$as$u20$pyo3..impl_..pyclass..PyClassThreadChecker$LT$T$GT$$GT$3new17h71c2c8f4ea1cf5fdE', symObjAddr: 0x5C, symBinAddr: 0xDBF8, symSize: 0x4 }
  - { offset: 0x45FB3, size: 0x8, addend: 0x0, symName: '__ZN118_$LT$pyo3..impl_..pyclass..SendablePyClass$LT$T$GT$$u20$as$u20$pyo3..impl_..pyclass..PyClassThreadChecker$LT$T$GT$$GT$3new17h748e3de4e0ddf173E', symObjAddr: 0x60, symBinAddr: 0xDBFC, symSize: 0x4 }
  - { offset: 0x45FD7, size: 0x8, addend: 0x0, symName: '__ZN118_$LT$pyo3..impl_..pyclass..SendablePyClass$LT$T$GT$$u20$as$u20$pyo3..impl_..pyclass..PyClassThreadChecker$LT$T$GT$$GT$3new17h7c242d32c2c551d5E', symObjAddr: 0x64, symBinAddr: 0xDC00, symSize: 0x4 }
  - { offset: 0x45FFB, size: 0x8, addend: 0x0, symName: '__ZN118_$LT$pyo3..impl_..pyclass..SendablePyClass$LT$T$GT$$u20$as$u20$pyo3..impl_..pyclass..PyClassThreadChecker$LT$T$GT$$GT$3new17h808df57803948796E', symObjAddr: 0x68, symBinAddr: 0xDC04, symSize: 0x4 }
  - { offset: 0x4601F, size: 0x8, addend: 0x0, symName: '__ZN118_$LT$pyo3..impl_..pyclass..SendablePyClass$LT$T$GT$$u20$as$u20$pyo3..impl_..pyclass..PyClassThreadChecker$LT$T$GT$$GT$3new17h80cedccae443959bE', symObjAddr: 0x6C, symBinAddr: 0xDC08, symSize: 0x4 }
  - { offset: 0x46043, size: 0x8, addend: 0x0, symName: '__ZN118_$LT$pyo3..impl_..pyclass..SendablePyClass$LT$T$GT$$u20$as$u20$pyo3..impl_..pyclass..PyClassThreadChecker$LT$T$GT$$GT$3new17h80fb6fa33d865795E', symObjAddr: 0x70, symBinAddr: 0xDC0C, symSize: 0x4 }
  - { offset: 0x46067, size: 0x8, addend: 0x0, symName: '__ZN118_$LT$pyo3..impl_..pyclass..SendablePyClass$LT$T$GT$$u20$as$u20$pyo3..impl_..pyclass..PyClassThreadChecker$LT$T$GT$$GT$3new17h86c6d1120868aa3fE', symObjAddr: 0x74, symBinAddr: 0xDC10, symSize: 0x4 }
  - { offset: 0x4608B, size: 0x8, addend: 0x0, symName: '__ZN118_$LT$pyo3..impl_..pyclass..SendablePyClass$LT$T$GT$$u20$as$u20$pyo3..impl_..pyclass..PyClassThreadChecker$LT$T$GT$$GT$3new17h87ed46311cba24eeE', symObjAddr: 0x78, symBinAddr: 0xDC14, symSize: 0x4 }
  - { offset: 0x460AF, size: 0x8, addend: 0x0, symName: '__ZN118_$LT$pyo3..impl_..pyclass..SendablePyClass$LT$T$GT$$u20$as$u20$pyo3..impl_..pyclass..PyClassThreadChecker$LT$T$GT$$GT$3new17h94cb4b70b5f035d7E', symObjAddr: 0x7C, symBinAddr: 0xDC18, symSize: 0x4 }
  - { offset: 0x460D3, size: 0x8, addend: 0x0, symName: '__ZN118_$LT$pyo3..impl_..pyclass..SendablePyClass$LT$T$GT$$u20$as$u20$pyo3..impl_..pyclass..PyClassThreadChecker$LT$T$GT$$GT$3new17h9745e1566158274cE', symObjAddr: 0x80, symBinAddr: 0xDC1C, symSize: 0x4 }
  - { offset: 0x460F7, size: 0x8, addend: 0x0, symName: '__ZN118_$LT$pyo3..impl_..pyclass..SendablePyClass$LT$T$GT$$u20$as$u20$pyo3..impl_..pyclass..PyClassThreadChecker$LT$T$GT$$GT$3new17h9899b8f1e5382908E', symObjAddr: 0x84, symBinAddr: 0xDC20, symSize: 0x4 }
  - { offset: 0x4611B, size: 0x8, addend: 0x0, symName: '__ZN118_$LT$pyo3..impl_..pyclass..SendablePyClass$LT$T$GT$$u20$as$u20$pyo3..impl_..pyclass..PyClassThreadChecker$LT$T$GT$$GT$3new17had7fb64c107831bbE', symObjAddr: 0x88, symBinAddr: 0xDC24, symSize: 0x4 }
  - { offset: 0x4613F, size: 0x8, addend: 0x0, symName: '__ZN118_$LT$pyo3..impl_..pyclass..SendablePyClass$LT$T$GT$$u20$as$u20$pyo3..impl_..pyclass..PyClassThreadChecker$LT$T$GT$$GT$3new17hb0da183c04195490E', symObjAddr: 0x8C, symBinAddr: 0xDC28, symSize: 0x4 }
  - { offset: 0x46163, size: 0x8, addend: 0x0, symName: '__ZN118_$LT$pyo3..impl_..pyclass..SendablePyClass$LT$T$GT$$u20$as$u20$pyo3..impl_..pyclass..PyClassThreadChecker$LT$T$GT$$GT$3new17hb3da2aa6e2b91f53E', symObjAddr: 0x90, symBinAddr: 0xDC2C, symSize: 0x4 }
  - { offset: 0x46187, size: 0x8, addend: 0x0, symName: '__ZN118_$LT$pyo3..impl_..pyclass..SendablePyClass$LT$T$GT$$u20$as$u20$pyo3..impl_..pyclass..PyClassThreadChecker$LT$T$GT$$GT$3new17hb44e8fedbfc965d5E', symObjAddr: 0x94, symBinAddr: 0xDC30, symSize: 0x4 }
  - { offset: 0x461AB, size: 0x8, addend: 0x0, symName: '__ZN118_$LT$pyo3..impl_..pyclass..SendablePyClass$LT$T$GT$$u20$as$u20$pyo3..impl_..pyclass..PyClassThreadChecker$LT$T$GT$$GT$3new17hb6905b9c14dd6003E', symObjAddr: 0x98, symBinAddr: 0xDC34, symSize: 0x4 }
  - { offset: 0x461CF, size: 0x8, addend: 0x0, symName: '__ZN118_$LT$pyo3..impl_..pyclass..SendablePyClass$LT$T$GT$$u20$as$u20$pyo3..impl_..pyclass..PyClassThreadChecker$LT$T$GT$$GT$3new17hbfcef994f6f8ae36E', symObjAddr: 0x9C, symBinAddr: 0xDC38, symSize: 0x4 }
  - { offset: 0x461F3, size: 0x8, addend: 0x0, symName: '__ZN118_$LT$pyo3..impl_..pyclass..SendablePyClass$LT$T$GT$$u20$as$u20$pyo3..impl_..pyclass..PyClassThreadChecker$LT$T$GT$$GT$3new17hc1dd77be501dd5e6E', symObjAddr: 0xA0, symBinAddr: 0xDC3C, symSize: 0x4 }
  - { offset: 0x46217, size: 0x8, addend: 0x0, symName: '__ZN118_$LT$pyo3..impl_..pyclass..SendablePyClass$LT$T$GT$$u20$as$u20$pyo3..impl_..pyclass..PyClassThreadChecker$LT$T$GT$$GT$3new17hc23712c3197c4d99E', symObjAddr: 0xA4, symBinAddr: 0xDC40, symSize: 0x4 }
  - { offset: 0x4623B, size: 0x8, addend: 0x0, symName: '__ZN118_$LT$pyo3..impl_..pyclass..SendablePyClass$LT$T$GT$$u20$as$u20$pyo3..impl_..pyclass..PyClassThreadChecker$LT$T$GT$$GT$3new17hc49ba201eeb2fffdE', symObjAddr: 0xA8, symBinAddr: 0xDC44, symSize: 0x4 }
  - { offset: 0x4625F, size: 0x8, addend: 0x0, symName: '__ZN118_$LT$pyo3..impl_..pyclass..SendablePyClass$LT$T$GT$$u20$as$u20$pyo3..impl_..pyclass..PyClassThreadChecker$LT$T$GT$$GT$3new17hc4b93a9bbbceec31E', symObjAddr: 0xAC, symBinAddr: 0xDC48, symSize: 0x4 }
  - { offset: 0x46283, size: 0x8, addend: 0x0, symName: '__ZN118_$LT$pyo3..impl_..pyclass..SendablePyClass$LT$T$GT$$u20$as$u20$pyo3..impl_..pyclass..PyClassThreadChecker$LT$T$GT$$GT$3new17hc847d8be0c60791fE', symObjAddr: 0xB0, symBinAddr: 0xDC4C, symSize: 0x4 }
  - { offset: 0x462A7, size: 0x8, addend: 0x0, symName: '__ZN118_$LT$pyo3..impl_..pyclass..SendablePyClass$LT$T$GT$$u20$as$u20$pyo3..impl_..pyclass..PyClassThreadChecker$LT$T$GT$$GT$3new17hca5d3d0095a0a410E', symObjAddr: 0xB4, symBinAddr: 0xDC50, symSize: 0x4 }
  - { offset: 0x462CB, size: 0x8, addend: 0x0, symName: '__ZN118_$LT$pyo3..impl_..pyclass..SendablePyClass$LT$T$GT$$u20$as$u20$pyo3..impl_..pyclass..PyClassThreadChecker$LT$T$GT$$GT$3new17hd4eefc948cc285fdE', symObjAddr: 0xB8, symBinAddr: 0xDC54, symSize: 0x4 }
  - { offset: 0x462EF, size: 0x8, addend: 0x0, symName: '__ZN118_$LT$pyo3..impl_..pyclass..SendablePyClass$LT$T$GT$$u20$as$u20$pyo3..impl_..pyclass..PyClassThreadChecker$LT$T$GT$$GT$3new17he08df84717a53a2eE', symObjAddr: 0xBC, symBinAddr: 0xDC58, symSize: 0x4 }
  - { offset: 0x46313, size: 0x8, addend: 0x0, symName: '__ZN118_$LT$pyo3..impl_..pyclass..SendablePyClass$LT$T$GT$$u20$as$u20$pyo3..impl_..pyclass..PyClassThreadChecker$LT$T$GT$$GT$3new17he17370c57419a82aE', symObjAddr: 0xC0, symBinAddr: 0xDC5C, symSize: 0x4 }
  - { offset: 0x46337, size: 0x8, addend: 0x0, symName: '__ZN118_$LT$pyo3..impl_..pyclass..SendablePyClass$LT$T$GT$$u20$as$u20$pyo3..impl_..pyclass..PyClassThreadChecker$LT$T$GT$$GT$3new17he363e179b49a255bE', symObjAddr: 0xC4, symBinAddr: 0xDC60, symSize: 0x4 }
  - { offset: 0x4635B, size: 0x8, addend: 0x0, symName: '__ZN118_$LT$pyo3..impl_..pyclass..SendablePyClass$LT$T$GT$$u20$as$u20$pyo3..impl_..pyclass..PyClassThreadChecker$LT$T$GT$$GT$3new17he3fa953ceb1e43feE', symObjAddr: 0xC8, symBinAddr: 0xDC64, symSize: 0x4 }
  - { offset: 0x4637F, size: 0x8, addend: 0x0, symName: '__ZN118_$LT$pyo3..impl_..pyclass..SendablePyClass$LT$T$GT$$u20$as$u20$pyo3..impl_..pyclass..PyClassThreadChecker$LT$T$GT$$GT$3new17he4c8b4c61c0387f0E', symObjAddr: 0xCC, symBinAddr: 0xDC68, symSize: 0x4 }
  - { offset: 0x463A3, size: 0x8, addend: 0x0, symName: '__ZN118_$LT$pyo3..impl_..pyclass..SendablePyClass$LT$T$GT$$u20$as$u20$pyo3..impl_..pyclass..PyClassThreadChecker$LT$T$GT$$GT$3new17he4ee896b2fd3c031E', symObjAddr: 0xD0, symBinAddr: 0xDC6C, symSize: 0x4 }
  - { offset: 0x463C7, size: 0x8, addend: 0x0, symName: '__ZN118_$LT$pyo3..impl_..pyclass..SendablePyClass$LT$T$GT$$u20$as$u20$pyo3..impl_..pyclass..PyClassThreadChecker$LT$T$GT$$GT$3new17he889ab181edb27a7E', symObjAddr: 0xD4, symBinAddr: 0xDC70, symSize: 0x4 }
  - { offset: 0x463EB, size: 0x8, addend: 0x0, symName: '__ZN118_$LT$pyo3..impl_..pyclass..SendablePyClass$LT$T$GT$$u20$as$u20$pyo3..impl_..pyclass..PyClassThreadChecker$LT$T$GT$$GT$3new17hee1b9dee0f54a320E', symObjAddr: 0xD8, symBinAddr: 0xDC74, symSize: 0x4 }
  - { offset: 0x4640F, size: 0x8, addend: 0x0, symName: '__ZN118_$LT$pyo3..impl_..pyclass..SendablePyClass$LT$T$GT$$u20$as$u20$pyo3..impl_..pyclass..PyClassThreadChecker$LT$T$GT$$GT$3new17heed73df81df38e54E', symObjAddr: 0xDC, symBinAddr: 0xDC78, symSize: 0x4 }
  - { offset: 0x46433, size: 0x8, addend: 0x0, symName: '__ZN118_$LT$pyo3..impl_..pyclass..SendablePyClass$LT$T$GT$$u20$as$u20$pyo3..impl_..pyclass..PyClassThreadChecker$LT$T$GT$$GT$3new17hef1f08815617cc9eE', symObjAddr: 0xE0, symBinAddr: 0xDC7C, symSize: 0x4 }
  - { offset: 0x46457, size: 0x8, addend: 0x0, symName: '__ZN118_$LT$pyo3..impl_..pyclass..SendablePyClass$LT$T$GT$$u20$as$u20$pyo3..impl_..pyclass..PyClassThreadChecker$LT$T$GT$$GT$3new17hfa33180334d2f32cE', symObjAddr: 0xE4, symBinAddr: 0xDC80, symSize: 0x4 }
  - { offset: 0x4647B, size: 0x8, addend: 0x0, symName: '__ZN118_$LT$pyo3..impl_..pyclass..SendablePyClass$LT$T$GT$$u20$as$u20$pyo3..impl_..pyclass..PyClassThreadChecker$LT$T$GT$$GT$6ensure17h0d7c226dfc66b08bE', symObjAddr: 0xE8, symBinAddr: 0xDC84, symSize: 0x10 }
  - { offset: 0x464AE, size: 0x8, addend: 0x0, symName: '__ZN118_$LT$pyo3..impl_..pyclass..SendablePyClass$LT$T$GT$$u20$as$u20$pyo3..impl_..pyclass..PyClassThreadChecker$LT$T$GT$$GT$6ensure17h116863fd8624e652E', symObjAddr: 0xF8, symBinAddr: 0xDC94, symSize: 0x10 }
  - { offset: 0x464E1, size: 0x8, addend: 0x0, symName: '__ZN118_$LT$pyo3..impl_..pyclass..SendablePyClass$LT$T$GT$$u20$as$u20$pyo3..impl_..pyclass..PyClassThreadChecker$LT$T$GT$$GT$6ensure17h12e18fefe2294f57E', symObjAddr: 0x108, symBinAddr: 0xDCA4, symSize: 0x10 }
  - { offset: 0x46514, size: 0x8, addend: 0x0, symName: '__ZN118_$LT$pyo3..impl_..pyclass..SendablePyClass$LT$T$GT$$u20$as$u20$pyo3..impl_..pyclass..PyClassThreadChecker$LT$T$GT$$GT$6ensure17h1561b60f78de5371E', symObjAddr: 0x118, symBinAddr: 0xDCB4, symSize: 0x10 }
  - { offset: 0x46547, size: 0x8, addend: 0x0, symName: '__ZN118_$LT$pyo3..impl_..pyclass..SendablePyClass$LT$T$GT$$u20$as$u20$pyo3..impl_..pyclass..PyClassThreadChecker$LT$T$GT$$GT$6ensure17h25ee94e34bce13e4E', symObjAddr: 0x128, symBinAddr: 0xDCC4, symSize: 0x10 }
  - { offset: 0x4657A, size: 0x8, addend: 0x0, symName: '__ZN118_$LT$pyo3..impl_..pyclass..SendablePyClass$LT$T$GT$$u20$as$u20$pyo3..impl_..pyclass..PyClassThreadChecker$LT$T$GT$$GT$6ensure17h28a582d7cd18e5b8E', symObjAddr: 0x138, symBinAddr: 0xDCD4, symSize: 0x10 }
  - { offset: 0x465AD, size: 0x8, addend: 0x0, symName: '__ZN118_$LT$pyo3..impl_..pyclass..SendablePyClass$LT$T$GT$$u20$as$u20$pyo3..impl_..pyclass..PyClassThreadChecker$LT$T$GT$$GT$6ensure17h336aa5b24adbf77cE', symObjAddr: 0x148, symBinAddr: 0xDCE4, symSize: 0x10 }
  - { offset: 0x465E0, size: 0x8, addend: 0x0, symName: '__ZN118_$LT$pyo3..impl_..pyclass..SendablePyClass$LT$T$GT$$u20$as$u20$pyo3..impl_..pyclass..PyClassThreadChecker$LT$T$GT$$GT$6ensure17h363fc5c8d19eaf83E', symObjAddr: 0x158, symBinAddr: 0xDCF4, symSize: 0x10 }
  - { offset: 0x46613, size: 0x8, addend: 0x0, symName: '__ZN118_$LT$pyo3..impl_..pyclass..SendablePyClass$LT$T$GT$$u20$as$u20$pyo3..impl_..pyclass..PyClassThreadChecker$LT$T$GT$$GT$6ensure17h39027a69a8e4b437E', symObjAddr: 0x168, symBinAddr: 0xDD04, symSize: 0x10 }
  - { offset: 0x46646, size: 0x8, addend: 0x0, symName: '__ZN118_$LT$pyo3..impl_..pyclass..SendablePyClass$LT$T$GT$$u20$as$u20$pyo3..impl_..pyclass..PyClassThreadChecker$LT$T$GT$$GT$6ensure17h3dbb9d8c5384e16cE', symObjAddr: 0x178, symBinAddr: 0xDD14, symSize: 0x10 }
  - { offset: 0x46679, size: 0x8, addend: 0x0, symName: '__ZN118_$LT$pyo3..impl_..pyclass..SendablePyClass$LT$T$GT$$u20$as$u20$pyo3..impl_..pyclass..PyClassThreadChecker$LT$T$GT$$GT$6ensure17h4460038339b5e9c2E', symObjAddr: 0x188, symBinAddr: 0xDD24, symSize: 0x10 }
  - { offset: 0x466AC, size: 0x8, addend: 0x0, symName: '__ZN118_$LT$pyo3..impl_..pyclass..SendablePyClass$LT$T$GT$$u20$as$u20$pyo3..impl_..pyclass..PyClassThreadChecker$LT$T$GT$$GT$6ensure17h45e64d51776b9da6E', symObjAddr: 0x198, symBinAddr: 0xDD34, symSize: 0x10 }
  - { offset: 0x466DF, size: 0x8, addend: 0x0, symName: '__ZN118_$LT$pyo3..impl_..pyclass..SendablePyClass$LT$T$GT$$u20$as$u20$pyo3..impl_..pyclass..PyClassThreadChecker$LT$T$GT$$GT$6ensure17h4a67f4545d5c1e79E', symObjAddr: 0x1A8, symBinAddr: 0xDD44, symSize: 0x10 }
  - { offset: 0x46712, size: 0x8, addend: 0x0, symName: '__ZN118_$LT$pyo3..impl_..pyclass..SendablePyClass$LT$T$GT$$u20$as$u20$pyo3..impl_..pyclass..PyClassThreadChecker$LT$T$GT$$GT$6ensure17h615a9d9a9ce7baa7E', symObjAddr: 0x1B8, symBinAddr: 0xDD54, symSize: 0x10 }
  - { offset: 0x46745, size: 0x8, addend: 0x0, symName: '__ZN118_$LT$pyo3..impl_..pyclass..SendablePyClass$LT$T$GT$$u20$as$u20$pyo3..impl_..pyclass..PyClassThreadChecker$LT$T$GT$$GT$6ensure17h663a5cbd5244ceb8E', symObjAddr: 0x1C8, symBinAddr: 0xDD64, symSize: 0x10 }
  - { offset: 0x46778, size: 0x8, addend: 0x0, symName: '__ZN118_$LT$pyo3..impl_..pyclass..SendablePyClass$LT$T$GT$$u20$as$u20$pyo3..impl_..pyclass..PyClassThreadChecker$LT$T$GT$$GT$6ensure17h67a8da617304465aE', symObjAddr: 0x1D8, symBinAddr: 0xDD74, symSize: 0x10 }
  - { offset: 0x467AB, size: 0x8, addend: 0x0, symName: '__ZN118_$LT$pyo3..impl_..pyclass..SendablePyClass$LT$T$GT$$u20$as$u20$pyo3..impl_..pyclass..PyClassThreadChecker$LT$T$GT$$GT$6ensure17h6ae62031a04affd1E', symObjAddr: 0x1E8, symBinAddr: 0xDD84, symSize: 0x10 }
  - { offset: 0x467DE, size: 0x8, addend: 0x0, symName: '__ZN118_$LT$pyo3..impl_..pyclass..SendablePyClass$LT$T$GT$$u20$as$u20$pyo3..impl_..pyclass..PyClassThreadChecker$LT$T$GT$$GT$6ensure17h6f7e32cd9dfd2373E', symObjAddr: 0x1F8, symBinAddr: 0xDD94, symSize: 0x10 }
  - { offset: 0x46811, size: 0x8, addend: 0x0, symName: '__ZN118_$LT$pyo3..impl_..pyclass..SendablePyClass$LT$T$GT$$u20$as$u20$pyo3..impl_..pyclass..PyClassThreadChecker$LT$T$GT$$GT$6ensure17h7b21cf708530b0bbE', symObjAddr: 0x208, symBinAddr: 0xDDA4, symSize: 0x10 }
  - { offset: 0x46844, size: 0x8, addend: 0x0, symName: '__ZN118_$LT$pyo3..impl_..pyclass..SendablePyClass$LT$T$GT$$u20$as$u20$pyo3..impl_..pyclass..PyClassThreadChecker$LT$T$GT$$GT$6ensure17h80e503ed589c6816E', symObjAddr: 0x218, symBinAddr: 0xDDB4, symSize: 0x10 }
  - { offset: 0x46877, size: 0x8, addend: 0x0, symName: '__ZN118_$LT$pyo3..impl_..pyclass..SendablePyClass$LT$T$GT$$u20$as$u20$pyo3..impl_..pyclass..PyClassThreadChecker$LT$T$GT$$GT$6ensure17h8748b03aca920aacE', symObjAddr: 0x228, symBinAddr: 0xDDC4, symSize: 0x10 }
  - { offset: 0x468AA, size: 0x8, addend: 0x0, symName: '__ZN118_$LT$pyo3..impl_..pyclass..SendablePyClass$LT$T$GT$$u20$as$u20$pyo3..impl_..pyclass..PyClassThreadChecker$LT$T$GT$$GT$6ensure17h8a9f736241de8522E', symObjAddr: 0x238, symBinAddr: 0xDDD4, symSize: 0x10 }
  - { offset: 0x468DD, size: 0x8, addend: 0x0, symName: '__ZN118_$LT$pyo3..impl_..pyclass..SendablePyClass$LT$T$GT$$u20$as$u20$pyo3..impl_..pyclass..PyClassThreadChecker$LT$T$GT$$GT$6ensure17h8d5dd70f4aafdf8cE', symObjAddr: 0x248, symBinAddr: 0xDDE4, symSize: 0x10 }
  - { offset: 0x46910, size: 0x8, addend: 0x0, symName: '__ZN118_$LT$pyo3..impl_..pyclass..SendablePyClass$LT$T$GT$$u20$as$u20$pyo3..impl_..pyclass..PyClassThreadChecker$LT$T$GT$$GT$6ensure17h927bf1b8d29b847aE', symObjAddr: 0x258, symBinAddr: 0xDDF4, symSize: 0x10 }
  - { offset: 0x46943, size: 0x8, addend: 0x0, symName: '__ZN118_$LT$pyo3..impl_..pyclass..SendablePyClass$LT$T$GT$$u20$as$u20$pyo3..impl_..pyclass..PyClassThreadChecker$LT$T$GT$$GT$6ensure17h932540b774285c43E', symObjAddr: 0x268, symBinAddr: 0xDE04, symSize: 0x10 }
  - { offset: 0x46976, size: 0x8, addend: 0x0, symName: '__ZN118_$LT$pyo3..impl_..pyclass..SendablePyClass$LT$T$GT$$u20$as$u20$pyo3..impl_..pyclass..PyClassThreadChecker$LT$T$GT$$GT$6ensure17h96b7d42e335713c5E', symObjAddr: 0x278, symBinAddr: 0xDE14, symSize: 0x10 }
  - { offset: 0x469A9, size: 0x8, addend: 0x0, symName: '__ZN118_$LT$pyo3..impl_..pyclass..SendablePyClass$LT$T$GT$$u20$as$u20$pyo3..impl_..pyclass..PyClassThreadChecker$LT$T$GT$$GT$6ensure17h97cb55d15fdce4c6E', symObjAddr: 0x288, symBinAddr: 0xDE24, symSize: 0x10 }
  - { offset: 0x469DC, size: 0x8, addend: 0x0, symName: '__ZN118_$LT$pyo3..impl_..pyclass..SendablePyClass$LT$T$GT$$u20$as$u20$pyo3..impl_..pyclass..PyClassThreadChecker$LT$T$GT$$GT$6ensure17h99e25278ce5f20c1E', symObjAddr: 0x298, symBinAddr: 0xDE34, symSize: 0x10 }
  - { offset: 0x46A0F, size: 0x8, addend: 0x0, symName: '__ZN118_$LT$pyo3..impl_..pyclass..SendablePyClass$LT$T$GT$$u20$as$u20$pyo3..impl_..pyclass..PyClassThreadChecker$LT$T$GT$$GT$6ensure17ha02f8127ee90695fE', symObjAddr: 0x2A8, symBinAddr: 0xDE44, symSize: 0x10 }
  - { offset: 0x46A42, size: 0x8, addend: 0x0, symName: '__ZN118_$LT$pyo3..impl_..pyclass..SendablePyClass$LT$T$GT$$u20$as$u20$pyo3..impl_..pyclass..PyClassThreadChecker$LT$T$GT$$GT$6ensure17ha27d9bb081f0281cE', symObjAddr: 0x2B8, symBinAddr: 0xDE54, symSize: 0x10 }
  - { offset: 0x46A75, size: 0x8, addend: 0x0, symName: '__ZN118_$LT$pyo3..impl_..pyclass..SendablePyClass$LT$T$GT$$u20$as$u20$pyo3..impl_..pyclass..PyClassThreadChecker$LT$T$GT$$GT$6ensure17ha80aea42b4abd04eE', symObjAddr: 0x2C8, symBinAddr: 0xDE64, symSize: 0x10 }
  - { offset: 0x46AA8, size: 0x8, addend: 0x0, symName: '__ZN118_$LT$pyo3..impl_..pyclass..SendablePyClass$LT$T$GT$$u20$as$u20$pyo3..impl_..pyclass..PyClassThreadChecker$LT$T$GT$$GT$6ensure17haa9bdee8d8900c96E', symObjAddr: 0x2D8, symBinAddr: 0xDE74, symSize: 0x10 }
  - { offset: 0x46ADB, size: 0x8, addend: 0x0, symName: '__ZN118_$LT$pyo3..impl_..pyclass..SendablePyClass$LT$T$GT$$u20$as$u20$pyo3..impl_..pyclass..PyClassThreadChecker$LT$T$GT$$GT$6ensure17hb59588761ed682d7E', symObjAddr: 0x2E8, symBinAddr: 0xDE84, symSize: 0x10 }
  - { offset: 0x46B0E, size: 0x8, addend: 0x0, symName: '__ZN118_$LT$pyo3..impl_..pyclass..SendablePyClass$LT$T$GT$$u20$as$u20$pyo3..impl_..pyclass..PyClassThreadChecker$LT$T$GT$$GT$6ensure17hb5c7ea8d90032e4aE', symObjAddr: 0x2F8, symBinAddr: 0xDE94, symSize: 0x10 }
  - { offset: 0x46B41, size: 0x8, addend: 0x0, symName: '__ZN118_$LT$pyo3..impl_..pyclass..SendablePyClass$LT$T$GT$$u20$as$u20$pyo3..impl_..pyclass..PyClassThreadChecker$LT$T$GT$$GT$6ensure17hb6de4f78d4360433E', symObjAddr: 0x308, symBinAddr: 0xDEA4, symSize: 0x10 }
  - { offset: 0x46B74, size: 0x8, addend: 0x0, symName: '__ZN118_$LT$pyo3..impl_..pyclass..SendablePyClass$LT$T$GT$$u20$as$u20$pyo3..impl_..pyclass..PyClassThreadChecker$LT$T$GT$$GT$6ensure17hb807bc8672e11480E', symObjAddr: 0x318, symBinAddr: 0xDEB4, symSize: 0x10 }
  - { offset: 0x46BA7, size: 0x8, addend: 0x0, symName: '__ZN118_$LT$pyo3..impl_..pyclass..SendablePyClass$LT$T$GT$$u20$as$u20$pyo3..impl_..pyclass..PyClassThreadChecker$LT$T$GT$$GT$6ensure17hba300620a3bdab72E', symObjAddr: 0x328, symBinAddr: 0xDEC4, symSize: 0x10 }
  - { offset: 0x46BDA, size: 0x8, addend: 0x0, symName: '__ZN118_$LT$pyo3..impl_..pyclass..SendablePyClass$LT$T$GT$$u20$as$u20$pyo3..impl_..pyclass..PyClassThreadChecker$LT$T$GT$$GT$6ensure17hc01eee34131709ebE', symObjAddr: 0x338, symBinAddr: 0xDED4, symSize: 0x10 }
  - { offset: 0x46C0D, size: 0x8, addend: 0x0, symName: '__ZN118_$LT$pyo3..impl_..pyclass..SendablePyClass$LT$T$GT$$u20$as$u20$pyo3..impl_..pyclass..PyClassThreadChecker$LT$T$GT$$GT$6ensure17hc3af207638edf671E', symObjAddr: 0x348, symBinAddr: 0xDEE4, symSize: 0x10 }
  - { offset: 0x46C40, size: 0x8, addend: 0x0, symName: '__ZN118_$LT$pyo3..impl_..pyclass..SendablePyClass$LT$T$GT$$u20$as$u20$pyo3..impl_..pyclass..PyClassThreadChecker$LT$T$GT$$GT$6ensure17hc70eaf7a3cac2722E', symObjAddr: 0x358, symBinAddr: 0xDEF4, symSize: 0x10 }
  - { offset: 0x46C73, size: 0x8, addend: 0x0, symName: '__ZN118_$LT$pyo3..impl_..pyclass..SendablePyClass$LT$T$GT$$u20$as$u20$pyo3..impl_..pyclass..PyClassThreadChecker$LT$T$GT$$GT$6ensure17hc90929321ac8cac1E', symObjAddr: 0x368, symBinAddr: 0xDF04, symSize: 0x10 }
  - { offset: 0x46CA6, size: 0x8, addend: 0x0, symName: '__ZN118_$LT$pyo3..impl_..pyclass..SendablePyClass$LT$T$GT$$u20$as$u20$pyo3..impl_..pyclass..PyClassThreadChecker$LT$T$GT$$GT$6ensure17hc9c78954784a8b9eE', symObjAddr: 0x378, symBinAddr: 0xDF14, symSize: 0x10 }
  - { offset: 0x46CD9, size: 0x8, addend: 0x0, symName: '__ZN118_$LT$pyo3..impl_..pyclass..SendablePyClass$LT$T$GT$$u20$as$u20$pyo3..impl_..pyclass..PyClassThreadChecker$LT$T$GT$$GT$6ensure17hcce787ec6e50e64cE', symObjAddr: 0x388, symBinAddr: 0xDF24, symSize: 0x10 }
  - { offset: 0x46D0C, size: 0x8, addend: 0x0, symName: '__ZN118_$LT$pyo3..impl_..pyclass..SendablePyClass$LT$T$GT$$u20$as$u20$pyo3..impl_..pyclass..PyClassThreadChecker$LT$T$GT$$GT$6ensure17hcea8fd9f577e3112E', symObjAddr: 0x398, symBinAddr: 0xDF34, symSize: 0x10 }
  - { offset: 0x46D3F, size: 0x8, addend: 0x0, symName: '__ZN118_$LT$pyo3..impl_..pyclass..SendablePyClass$LT$T$GT$$u20$as$u20$pyo3..impl_..pyclass..PyClassThreadChecker$LT$T$GT$$GT$6ensure17hd663797ea77bcd7dE', symObjAddr: 0x3A8, symBinAddr: 0xDF44, symSize: 0x10 }
  - { offset: 0x46D72, size: 0x8, addend: 0x0, symName: '__ZN118_$LT$pyo3..impl_..pyclass..SendablePyClass$LT$T$GT$$u20$as$u20$pyo3..impl_..pyclass..PyClassThreadChecker$LT$T$GT$$GT$6ensure17hd8436570d7b7a177E', symObjAddr: 0x3B8, symBinAddr: 0xDF54, symSize: 0x10 }
  - { offset: 0x46DA5, size: 0x8, addend: 0x0, symName: '__ZN118_$LT$pyo3..impl_..pyclass..SendablePyClass$LT$T$GT$$u20$as$u20$pyo3..impl_..pyclass..PyClassThreadChecker$LT$T$GT$$GT$6ensure17hd9209b5fe95424c8E', symObjAddr: 0x3C8, symBinAddr: 0xDF64, symSize: 0x10 }
  - { offset: 0x46DD8, size: 0x8, addend: 0x0, symName: '__ZN118_$LT$pyo3..impl_..pyclass..SendablePyClass$LT$T$GT$$u20$as$u20$pyo3..impl_..pyclass..PyClassThreadChecker$LT$T$GT$$GT$6ensure17hd9278eee6e788887E', symObjAddr: 0x3D8, symBinAddr: 0xDF74, symSize: 0x10 }
  - { offset: 0x46E0B, size: 0x8, addend: 0x0, symName: '__ZN118_$LT$pyo3..impl_..pyclass..SendablePyClass$LT$T$GT$$u20$as$u20$pyo3..impl_..pyclass..PyClassThreadChecker$LT$T$GT$$GT$6ensure17hdb98ef34eed8d5ceE', symObjAddr: 0x3E8, symBinAddr: 0xDF84, symSize: 0x10 }
  - { offset: 0x46E3E, size: 0x8, addend: 0x0, symName: '__ZN118_$LT$pyo3..impl_..pyclass..SendablePyClass$LT$T$GT$$u20$as$u20$pyo3..impl_..pyclass..PyClassThreadChecker$LT$T$GT$$GT$6ensure17he06a048b53b441a2E', symObjAddr: 0x3F8, symBinAddr: 0xDF94, symSize: 0x10 }
  - { offset: 0x46E71, size: 0x8, addend: 0x0, symName: '__ZN118_$LT$pyo3..impl_..pyclass..SendablePyClass$LT$T$GT$$u20$as$u20$pyo3..impl_..pyclass..PyClassThreadChecker$LT$T$GT$$GT$6ensure17he836f3ad88642082E', symObjAddr: 0x408, symBinAddr: 0xDFA4, symSize: 0x10 }
  - { offset: 0x46EA4, size: 0x8, addend: 0x0, symName: '__ZN118_$LT$pyo3..impl_..pyclass..SendablePyClass$LT$T$GT$$u20$as$u20$pyo3..impl_..pyclass..PyClassThreadChecker$LT$T$GT$$GT$6ensure17hee4644f3cbd3e820E', symObjAddr: 0x418, symBinAddr: 0xDFB4, symSize: 0x10 }
  - { offset: 0x46ED7, size: 0x8, addend: 0x0, symName: '__ZN118_$LT$pyo3..impl_..pyclass..SendablePyClass$LT$T$GT$$u20$as$u20$pyo3..impl_..pyclass..PyClassThreadChecker$LT$T$GT$$GT$6ensure17heec88883cf5e365dE', symObjAddr: 0x428, symBinAddr: 0xDFC4, symSize: 0x10 }
  - { offset: 0x46F0A, size: 0x8, addend: 0x0, symName: '__ZN118_$LT$pyo3..impl_..pyclass..SendablePyClass$LT$T$GT$$u20$as$u20$pyo3..impl_..pyclass..PyClassThreadChecker$LT$T$GT$$GT$6ensure17hf0a4aeb8eb61c23fE', symObjAddr: 0x438, symBinAddr: 0xDFD4, symSize: 0x10 }
  - { offset: 0x46F3D, size: 0x8, addend: 0x0, symName: '__ZN118_$LT$pyo3..impl_..pyclass..SendablePyClass$LT$T$GT$$u20$as$u20$pyo3..impl_..pyclass..PyClassThreadChecker$LT$T$GT$$GT$6ensure17hf146d93e27b85bf8E', symObjAddr: 0x448, symBinAddr: 0xDFE4, symSize: 0x10 }
  - { offset: 0x46F70, size: 0x8, addend: 0x0, symName: '__ZN118_$LT$pyo3..impl_..pyclass..SendablePyClass$LT$T$GT$$u20$as$u20$pyo3..impl_..pyclass..PyClassThreadChecker$LT$T$GT$$GT$6ensure17hf5ff2458627b9d43E', symObjAddr: 0x458, symBinAddr: 0xDFF4, symSize: 0x10 }
  - { offset: 0x46FA3, size: 0x8, addend: 0x0, symName: '__ZN118_$LT$pyo3..impl_..pyclass..SendablePyClass$LT$T$GT$$u20$as$u20$pyo3..impl_..pyclass..PyClassThreadChecker$LT$T$GT$$GT$6ensure17hfb7a51684bc97b92E', symObjAddr: 0x468, symBinAddr: 0xE004, symSize: 0x10 }
  - { offset: 0x46FD6, size: 0x8, addend: 0x0, symName: '__ZN118_$LT$pyo3..impl_..pyclass..SendablePyClass$LT$T$GT$$u20$as$u20$pyo3..impl_..pyclass..PyClassThreadChecker$LT$T$GT$$GT$6ensure17hfc3f730c3f044479E', symObjAddr: 0x478, symBinAddr: 0xE014, symSize: 0x10 }
  - { offset: 0x47009, size: 0x8, addend: 0x0, symName: '__ZN118_$LT$pyo3..impl_..pyclass..SendablePyClass$LT$T$GT$$u20$as$u20$pyo3..impl_..pyclass..PyClassThreadChecker$LT$T$GT$$GT$8can_drop17h003d74853869cfd7E', symObjAddr: 0x488, symBinAddr: 0xE024, symSize: 0x18 }
  - { offset: 0x4705B, size: 0x8, addend: 0x0, symName: '__ZN118_$LT$pyo3..impl_..pyclass..SendablePyClass$LT$T$GT$$u20$as$u20$pyo3..impl_..pyclass..PyClassThreadChecker$LT$T$GT$$GT$8can_drop17h02e7b3b0ec5b96acE', symObjAddr: 0x4A0, symBinAddr: 0xE03C, symSize: 0x18 }
  - { offset: 0x470AD, size: 0x8, addend: 0x0, symName: '__ZN118_$LT$pyo3..impl_..pyclass..SendablePyClass$LT$T$GT$$u20$as$u20$pyo3..impl_..pyclass..PyClassThreadChecker$LT$T$GT$$GT$8can_drop17h069666a163fb282fE', symObjAddr: 0x4B8, symBinAddr: 0xE054, symSize: 0x18 }
  - { offset: 0x470FF, size: 0x8, addend: 0x0, symName: '__ZN118_$LT$pyo3..impl_..pyclass..SendablePyClass$LT$T$GT$$u20$as$u20$pyo3..impl_..pyclass..PyClassThreadChecker$LT$T$GT$$GT$8can_drop17h0f1d5c85915be112E', symObjAddr: 0x4D0, symBinAddr: 0xE06C, symSize: 0x18 }
  - { offset: 0x47151, size: 0x8, addend: 0x0, symName: '__ZN118_$LT$pyo3..impl_..pyclass..SendablePyClass$LT$T$GT$$u20$as$u20$pyo3..impl_..pyclass..PyClassThreadChecker$LT$T$GT$$GT$8can_drop17h13ac394b3bfad8dfE', symObjAddr: 0x4E8, symBinAddr: 0xE084, symSize: 0x18 }
  - { offset: 0x471A3, size: 0x8, addend: 0x0, symName: '__ZN118_$LT$pyo3..impl_..pyclass..SendablePyClass$LT$T$GT$$u20$as$u20$pyo3..impl_..pyclass..PyClassThreadChecker$LT$T$GT$$GT$8can_drop17h1c9c3957e1df5978E', symObjAddr: 0x500, symBinAddr: 0xE09C, symSize: 0x18 }
  - { offset: 0x471F5, size: 0x8, addend: 0x0, symName: '__ZN118_$LT$pyo3..impl_..pyclass..SendablePyClass$LT$T$GT$$u20$as$u20$pyo3..impl_..pyclass..PyClassThreadChecker$LT$T$GT$$GT$8can_drop17h23c9a718f4b5f05cE', symObjAddr: 0x518, symBinAddr: 0xE0B4, symSize: 0x18 }
  - { offset: 0x47247, size: 0x8, addend: 0x0, symName: '__ZN118_$LT$pyo3..impl_..pyclass..SendablePyClass$LT$T$GT$$u20$as$u20$pyo3..impl_..pyclass..PyClassThreadChecker$LT$T$GT$$GT$8can_drop17h2461f12254a7b285E', symObjAddr: 0x530, symBinAddr: 0xE0CC, symSize: 0x18 }
  - { offset: 0x47299, size: 0x8, addend: 0x0, symName: '__ZN118_$LT$pyo3..impl_..pyclass..SendablePyClass$LT$T$GT$$u20$as$u20$pyo3..impl_..pyclass..PyClassThreadChecker$LT$T$GT$$GT$8can_drop17h248fdb641486b1baE', symObjAddr: 0x548, symBinAddr: 0xE0E4, symSize: 0x18 }
  - { offset: 0x472EB, size: 0x8, addend: 0x0, symName: '__ZN118_$LT$pyo3..impl_..pyclass..SendablePyClass$LT$T$GT$$u20$as$u20$pyo3..impl_..pyclass..PyClassThreadChecker$LT$T$GT$$GT$8can_drop17h2a3d6875d60137a8E', symObjAddr: 0x560, symBinAddr: 0xE0FC, symSize: 0x18 }
  - { offset: 0x4733D, size: 0x8, addend: 0x0, symName: '__ZN118_$LT$pyo3..impl_..pyclass..SendablePyClass$LT$T$GT$$u20$as$u20$pyo3..impl_..pyclass..PyClassThreadChecker$LT$T$GT$$GT$8can_drop17h334b160a74708c58E', symObjAddr: 0x578, symBinAddr: 0xE114, symSize: 0x18 }
  - { offset: 0x4738F, size: 0x8, addend: 0x0, symName: '__ZN118_$LT$pyo3..impl_..pyclass..SendablePyClass$LT$T$GT$$u20$as$u20$pyo3..impl_..pyclass..PyClassThreadChecker$LT$T$GT$$GT$8can_drop17h39b0bbf7093b74bfE', symObjAddr: 0x590, symBinAddr: 0xE12C, symSize: 0x18 }
  - { offset: 0x473E1, size: 0x8, addend: 0x0, symName: '__ZN118_$LT$pyo3..impl_..pyclass..SendablePyClass$LT$T$GT$$u20$as$u20$pyo3..impl_..pyclass..PyClassThreadChecker$LT$T$GT$$GT$8can_drop17h3b5fd7addeef54ffE', symObjAddr: 0x5A8, symBinAddr: 0xE144, symSize: 0x18 }
  - { offset: 0x47433, size: 0x8, addend: 0x0, symName: '__ZN118_$LT$pyo3..impl_..pyclass..SendablePyClass$LT$T$GT$$u20$as$u20$pyo3..impl_..pyclass..PyClassThreadChecker$LT$T$GT$$GT$8can_drop17h4060b384d144aeb3E', symObjAddr: 0x5C0, symBinAddr: 0xE15C, symSize: 0x18 }
  - { offset: 0x47485, size: 0x8, addend: 0x0, symName: '__ZN118_$LT$pyo3..impl_..pyclass..SendablePyClass$LT$T$GT$$u20$as$u20$pyo3..impl_..pyclass..PyClassThreadChecker$LT$T$GT$$GT$8can_drop17h4420bb8adc244e25E', symObjAddr: 0x5D8, symBinAddr: 0xE174, symSize: 0x18 }
  - { offset: 0x474D7, size: 0x8, addend: 0x0, symName: '__ZN118_$LT$pyo3..impl_..pyclass..SendablePyClass$LT$T$GT$$u20$as$u20$pyo3..impl_..pyclass..PyClassThreadChecker$LT$T$GT$$GT$8can_drop17h4541eea86f51b6bcE', symObjAddr: 0x5F0, symBinAddr: 0xE18C, symSize: 0x18 }
  - { offset: 0x47529, size: 0x8, addend: 0x0, symName: '__ZN118_$LT$pyo3..impl_..pyclass..SendablePyClass$LT$T$GT$$u20$as$u20$pyo3..impl_..pyclass..PyClassThreadChecker$LT$T$GT$$GT$8can_drop17h49acc38cb9300eaaE', symObjAddr: 0x608, symBinAddr: 0xE1A4, symSize: 0x18 }
  - { offset: 0x4757B, size: 0x8, addend: 0x0, symName: '__ZN118_$LT$pyo3..impl_..pyclass..SendablePyClass$LT$T$GT$$u20$as$u20$pyo3..impl_..pyclass..PyClassThreadChecker$LT$T$GT$$GT$8can_drop17h4db1061bb02876d8E', symObjAddr: 0x620, symBinAddr: 0xE1BC, symSize: 0x18 }
  - { offset: 0x475CD, size: 0x8, addend: 0x0, symName: '__ZN118_$LT$pyo3..impl_..pyclass..SendablePyClass$LT$T$GT$$u20$as$u20$pyo3..impl_..pyclass..PyClassThreadChecker$LT$T$GT$$GT$8can_drop17h4fc6dd340c6d6b74E', symObjAddr: 0x638, symBinAddr: 0xE1D4, symSize: 0x18 }
  - { offset: 0x4761F, size: 0x8, addend: 0x0, symName: '__ZN118_$LT$pyo3..impl_..pyclass..SendablePyClass$LT$T$GT$$u20$as$u20$pyo3..impl_..pyclass..PyClassThreadChecker$LT$T$GT$$GT$8can_drop17h55cda62f1a6c06aaE', symObjAddr: 0x650, symBinAddr: 0xE1EC, symSize: 0x18 }
  - { offset: 0x47671, size: 0x8, addend: 0x0, symName: '__ZN118_$LT$pyo3..impl_..pyclass..SendablePyClass$LT$T$GT$$u20$as$u20$pyo3..impl_..pyclass..PyClassThreadChecker$LT$T$GT$$GT$8can_drop17h57d99952a42bdc16E', symObjAddr: 0x668, symBinAddr: 0xE204, symSize: 0x18 }
  - { offset: 0x476C3, size: 0x8, addend: 0x0, symName: '__ZN118_$LT$pyo3..impl_..pyclass..SendablePyClass$LT$T$GT$$u20$as$u20$pyo3..impl_..pyclass..PyClassThreadChecker$LT$T$GT$$GT$8can_drop17h5b5ca02e8ed17744E', symObjAddr: 0x680, symBinAddr: 0xE21C, symSize: 0x18 }
  - { offset: 0x47715, size: 0x8, addend: 0x0, symName: '__ZN118_$LT$pyo3..impl_..pyclass..SendablePyClass$LT$T$GT$$u20$as$u20$pyo3..impl_..pyclass..PyClassThreadChecker$LT$T$GT$$GT$8can_drop17h5ccb6ed4085182a9E', symObjAddr: 0x698, symBinAddr: 0xE234, symSize: 0x18 }
  - { offset: 0x47767, size: 0x8, addend: 0x0, symName: '__ZN118_$LT$pyo3..impl_..pyclass..SendablePyClass$LT$T$GT$$u20$as$u20$pyo3..impl_..pyclass..PyClassThreadChecker$LT$T$GT$$GT$8can_drop17h6a08bfe7b2549f88E', symObjAddr: 0x6B0, symBinAddr: 0xE24C, symSize: 0x18 }
  - { offset: 0x477B9, size: 0x8, addend: 0x0, symName: '__ZN118_$LT$pyo3..impl_..pyclass..SendablePyClass$LT$T$GT$$u20$as$u20$pyo3..impl_..pyclass..PyClassThreadChecker$LT$T$GT$$GT$8can_drop17h6bbdb1a419d2ef50E', symObjAddr: 0x6C8, symBinAddr: 0xE264, symSize: 0x18 }
  - { offset: 0x4780B, size: 0x8, addend: 0x0, symName: '__ZN118_$LT$pyo3..impl_..pyclass..SendablePyClass$LT$T$GT$$u20$as$u20$pyo3..impl_..pyclass..PyClassThreadChecker$LT$T$GT$$GT$8can_drop17h6d7d2e53c30aa99eE', symObjAddr: 0x6E0, symBinAddr: 0xE27C, symSize: 0x18 }
  - { offset: 0x4785D, size: 0x8, addend: 0x0, symName: '__ZN118_$LT$pyo3..impl_..pyclass..SendablePyClass$LT$T$GT$$u20$as$u20$pyo3..impl_..pyclass..PyClassThreadChecker$LT$T$GT$$GT$8can_drop17h7ba8ca726a310197E', symObjAddr: 0x6F8, symBinAddr: 0xE294, symSize: 0x18 }
  - { offset: 0x478AF, size: 0x8, addend: 0x0, symName: '__ZN118_$LT$pyo3..impl_..pyclass..SendablePyClass$LT$T$GT$$u20$as$u20$pyo3..impl_..pyclass..PyClassThreadChecker$LT$T$GT$$GT$8can_drop17h7c2990e4e0a2d0acE', symObjAddr: 0x710, symBinAddr: 0xE2AC, symSize: 0x18 }
  - { offset: 0x47901, size: 0x8, addend: 0x0, symName: '__ZN118_$LT$pyo3..impl_..pyclass..SendablePyClass$LT$T$GT$$u20$as$u20$pyo3..impl_..pyclass..PyClassThreadChecker$LT$T$GT$$GT$8can_drop17h7f93ee039529681dE', symObjAddr: 0x728, symBinAddr: 0xE2C4, symSize: 0x18 }
  - { offset: 0x47953, size: 0x8, addend: 0x0, symName: '__ZN118_$LT$pyo3..impl_..pyclass..SendablePyClass$LT$T$GT$$u20$as$u20$pyo3..impl_..pyclass..PyClassThreadChecker$LT$T$GT$$GT$8can_drop17h813a7f217e7d5fe5E', symObjAddr: 0x740, symBinAddr: 0xE2DC, symSize: 0x18 }
  - { offset: 0x479A5, size: 0x8, addend: 0x0, symName: '__ZN118_$LT$pyo3..impl_..pyclass..SendablePyClass$LT$T$GT$$u20$as$u20$pyo3..impl_..pyclass..PyClassThreadChecker$LT$T$GT$$GT$8can_drop17h81f7fe4898cd01feE', symObjAddr: 0x758, symBinAddr: 0xE2F4, symSize: 0x18 }
  - { offset: 0x479F7, size: 0x8, addend: 0x0, symName: '__ZN118_$LT$pyo3..impl_..pyclass..SendablePyClass$LT$T$GT$$u20$as$u20$pyo3..impl_..pyclass..PyClassThreadChecker$LT$T$GT$$GT$8can_drop17h866e70b6e0bb1b6dE', symObjAddr: 0x770, symBinAddr: 0xE30C, symSize: 0x18 }
  - { offset: 0x47A49, size: 0x8, addend: 0x0, symName: '__ZN118_$LT$pyo3..impl_..pyclass..SendablePyClass$LT$T$GT$$u20$as$u20$pyo3..impl_..pyclass..PyClassThreadChecker$LT$T$GT$$GT$8can_drop17ha0c8f8827bd609fdE', symObjAddr: 0x788, symBinAddr: 0xE324, symSize: 0x18 }
  - { offset: 0x47A9B, size: 0x8, addend: 0x0, symName: '__ZN118_$LT$pyo3..impl_..pyclass..SendablePyClass$LT$T$GT$$u20$as$u20$pyo3..impl_..pyclass..PyClassThreadChecker$LT$T$GT$$GT$8can_drop17ha3d0ff2713113fdcE', symObjAddr: 0x7A0, symBinAddr: 0xE33C, symSize: 0x18 }
  - { offset: 0x47AED, size: 0x8, addend: 0x0, symName: '__ZN118_$LT$pyo3..impl_..pyclass..SendablePyClass$LT$T$GT$$u20$as$u20$pyo3..impl_..pyclass..PyClassThreadChecker$LT$T$GT$$GT$8can_drop17ha5c95ccd75a70422E', symObjAddr: 0x7B8, symBinAddr: 0xE354, symSize: 0x18 }
  - { offset: 0x47B3F, size: 0x8, addend: 0x0, symName: '__ZN118_$LT$pyo3..impl_..pyclass..SendablePyClass$LT$T$GT$$u20$as$u20$pyo3..impl_..pyclass..PyClassThreadChecker$LT$T$GT$$GT$8can_drop17ha637b6c25d91caf8E', symObjAddr: 0x7D0, symBinAddr: 0xE36C, symSize: 0x18 }
  - { offset: 0x47B91, size: 0x8, addend: 0x0, symName: '__ZN118_$LT$pyo3..impl_..pyclass..SendablePyClass$LT$T$GT$$u20$as$u20$pyo3..impl_..pyclass..PyClassThreadChecker$LT$T$GT$$GT$8can_drop17hac2712c45a0e182fE', symObjAddr: 0x7E8, symBinAddr: 0xE384, symSize: 0x18 }
  - { offset: 0x47BE3, size: 0x8, addend: 0x0, symName: '__ZN118_$LT$pyo3..impl_..pyclass..SendablePyClass$LT$T$GT$$u20$as$u20$pyo3..impl_..pyclass..PyClassThreadChecker$LT$T$GT$$GT$8can_drop17haf1cddc1f9d9fc0dE', symObjAddr: 0x800, symBinAddr: 0xE39C, symSize: 0x18 }
  - { offset: 0x47C35, size: 0x8, addend: 0x0, symName: '__ZN118_$LT$pyo3..impl_..pyclass..SendablePyClass$LT$T$GT$$u20$as$u20$pyo3..impl_..pyclass..PyClassThreadChecker$LT$T$GT$$GT$8can_drop17hc3a52c49cfdd16f1E', symObjAddr: 0x818, symBinAddr: 0xE3B4, symSize: 0x18 }
  - { offset: 0x47C87, size: 0x8, addend: 0x0, symName: '__ZN118_$LT$pyo3..impl_..pyclass..SendablePyClass$LT$T$GT$$u20$as$u20$pyo3..impl_..pyclass..PyClassThreadChecker$LT$T$GT$$GT$8can_drop17hc7b2b3eb40296a18E', symObjAddr: 0x830, symBinAddr: 0xE3CC, symSize: 0x18 }
  - { offset: 0x47CD9, size: 0x8, addend: 0x0, symName: '__ZN118_$LT$pyo3..impl_..pyclass..SendablePyClass$LT$T$GT$$u20$as$u20$pyo3..impl_..pyclass..PyClassThreadChecker$LT$T$GT$$GT$8can_drop17hc81212d96afd1ea0E', symObjAddr: 0x848, symBinAddr: 0xE3E4, symSize: 0x18 }
  - { offset: 0x47D2B, size: 0x8, addend: 0x0, symName: '__ZN118_$LT$pyo3..impl_..pyclass..SendablePyClass$LT$T$GT$$u20$as$u20$pyo3..impl_..pyclass..PyClassThreadChecker$LT$T$GT$$GT$8can_drop17hc82f9efc8c756e88E', symObjAddr: 0x860, symBinAddr: 0xE3FC, symSize: 0x18 }
  - { offset: 0x47D7D, size: 0x8, addend: 0x0, symName: '__ZN118_$LT$pyo3..impl_..pyclass..SendablePyClass$LT$T$GT$$u20$as$u20$pyo3..impl_..pyclass..PyClassThreadChecker$LT$T$GT$$GT$8can_drop17hccd3b1feba332558E', symObjAddr: 0x878, symBinAddr: 0xE414, symSize: 0x18 }
  - { offset: 0x47DCF, size: 0x8, addend: 0x0, symName: '__ZN118_$LT$pyo3..impl_..pyclass..SendablePyClass$LT$T$GT$$u20$as$u20$pyo3..impl_..pyclass..PyClassThreadChecker$LT$T$GT$$GT$8can_drop17hd55bacb82fe55e43E', symObjAddr: 0x890, symBinAddr: 0xE42C, symSize: 0x18 }
  - { offset: 0x47E21, size: 0x8, addend: 0x0, symName: '__ZN118_$LT$pyo3..impl_..pyclass..SendablePyClass$LT$T$GT$$u20$as$u20$pyo3..impl_..pyclass..PyClassThreadChecker$LT$T$GT$$GT$8can_drop17he224b82400444e5dE', symObjAddr: 0x8A8, symBinAddr: 0xE444, symSize: 0x18 }
  - { offset: 0x47E73, size: 0x8, addend: 0x0, symName: '__ZN118_$LT$pyo3..impl_..pyclass..SendablePyClass$LT$T$GT$$u20$as$u20$pyo3..impl_..pyclass..PyClassThreadChecker$LT$T$GT$$GT$8can_drop17he387fe45691aa185E', symObjAddr: 0x8C0, symBinAddr: 0xE45C, symSize: 0x18 }
  - { offset: 0x47EC5, size: 0x8, addend: 0x0, symName: '__ZN118_$LT$pyo3..impl_..pyclass..SendablePyClass$LT$T$GT$$u20$as$u20$pyo3..impl_..pyclass..PyClassThreadChecker$LT$T$GT$$GT$8can_drop17he4df506a2d467231E', symObjAddr: 0x8D8, symBinAddr: 0xE474, symSize: 0x18 }
  - { offset: 0x47F17, size: 0x8, addend: 0x0, symName: '__ZN118_$LT$pyo3..impl_..pyclass..SendablePyClass$LT$T$GT$$u20$as$u20$pyo3..impl_..pyclass..PyClassThreadChecker$LT$T$GT$$GT$8can_drop17he72687dc752ea222E', symObjAddr: 0x8F0, symBinAddr: 0xE48C, symSize: 0x18 }
  - { offset: 0x47F69, size: 0x8, addend: 0x0, symName: '__ZN118_$LT$pyo3..impl_..pyclass..SendablePyClass$LT$T$GT$$u20$as$u20$pyo3..impl_..pyclass..PyClassThreadChecker$LT$T$GT$$GT$8can_drop17he828956353a5757dE', symObjAddr: 0x908, symBinAddr: 0xE4A4, symSize: 0x18 }
  - { offset: 0x47FBB, size: 0x8, addend: 0x0, symName: '__ZN118_$LT$pyo3..impl_..pyclass..SendablePyClass$LT$T$GT$$u20$as$u20$pyo3..impl_..pyclass..PyClassThreadChecker$LT$T$GT$$GT$8can_drop17he9f0edf5844afd6bE', symObjAddr: 0x920, symBinAddr: 0xE4BC, symSize: 0x18 }
  - { offset: 0x4800D, size: 0x8, addend: 0x0, symName: '__ZN118_$LT$pyo3..impl_..pyclass..SendablePyClass$LT$T$GT$$u20$as$u20$pyo3..impl_..pyclass..PyClassThreadChecker$LT$T$GT$$GT$8can_drop17hef39b50a73fd7926E', symObjAddr: 0x938, symBinAddr: 0xE4D4, symSize: 0x18 }
  - { offset: 0x4805F, size: 0x8, addend: 0x0, symName: '__ZN118_$LT$pyo3..impl_..pyclass..SendablePyClass$LT$T$GT$$u20$as$u20$pyo3..impl_..pyclass..PyClassThreadChecker$LT$T$GT$$GT$8can_drop17hf030ed304374442dE', symObjAddr: 0x950, symBinAddr: 0xE4EC, symSize: 0x18 }
  - { offset: 0x480B1, size: 0x8, addend: 0x0, symName: '__ZN118_$LT$pyo3..impl_..pyclass..SendablePyClass$LT$T$GT$$u20$as$u20$pyo3..impl_..pyclass..PyClassThreadChecker$LT$T$GT$$GT$8can_drop17hf50accd5d459cadfE', symObjAddr: 0x968, symBinAddr: 0xE504, symSize: 0x18 }
  - { offset: 0x48103, size: 0x8, addend: 0x0, symName: '__ZN118_$LT$pyo3..impl_..pyclass..SendablePyClass$LT$T$GT$$u20$as$u20$pyo3..impl_..pyclass..PyClassThreadChecker$LT$T$GT$$GT$8can_drop17hf722d9f27d7b0c56E', symObjAddr: 0x980, symBinAddr: 0xE51C, symSize: 0x18 }
  - { offset: 0x48155, size: 0x8, addend: 0x0, symName: '__ZN118_$LT$pyo3..impl_..pyclass..SendablePyClass$LT$T$GT$$u20$as$u20$pyo3..impl_..pyclass..PyClassThreadChecker$LT$T$GT$$GT$8can_drop17hf7e803127877e182E', symObjAddr: 0x998, symBinAddr: 0xE534, symSize: 0x18 }
  - { offset: 0x481A7, size: 0x8, addend: 0x0, symName: '__ZN118_$LT$pyo3..impl_..pyclass..SendablePyClass$LT$T$GT$$u20$as$u20$pyo3..impl_..pyclass..PyClassThreadChecker$LT$T$GT$$GT$8can_drop17hf89aec0575b5691bE', symObjAddr: 0x9B0, symBinAddr: 0xE54C, symSize: 0x18 }
  - { offset: 0x481F9, size: 0x8, addend: 0x0, symName: '__ZN118_$LT$pyo3..impl_..pyclass..SendablePyClass$LT$T$GT$$u20$as$u20$pyo3..impl_..pyclass..PyClassThreadChecker$LT$T$GT$$GT$8can_drop17hf9b3711acc2c6504E', symObjAddr: 0x9C8, symBinAddr: 0xE564, symSize: 0x18 }
  - { offset: 0x4824B, size: 0x8, addend: 0x0, symName: '__ZN118_$LT$pyo3..impl_..pyclass..SendablePyClass$LT$T$GT$$u20$as$u20$pyo3..impl_..pyclass..PyClassThreadChecker$LT$T$GT$$GT$8can_drop17hfa921ec83d33af5bE', symObjAddr: 0x9E0, symBinAddr: 0xE57C, symSize: 0x18 }
  - { offset: 0x482A3, size: 0x8, addend: 0x0, symName: '__ZN130_$LT$$RF$pyo3..impl_..pyclass..PyClassImplCollector$LT$T$GT$$u20$as$u20$pyo3..impl_..pyclass..PyClassNewTextSignature$LT$T$GT$$GT$18new_text_signature17h0418d56d494e7ecdE', symObjAddr: 0x9F8, symBinAddr: 0xE594, symSize: 0x1C }
  - { offset: 0x482DA, size: 0x8, addend: 0x0, symName: '__ZN130_$LT$$RF$pyo3..impl_..pyclass..PyClassImplCollector$LT$T$GT$$u20$as$u20$pyo3..impl_..pyclass..PyClassNewTextSignature$LT$T$GT$$GT$18new_text_signature17h07b300e633607658E', symObjAddr: 0xA14, symBinAddr: 0xE5B0, symSize: 0x1C }
  - { offset: 0x48311, size: 0x8, addend: 0x0, symName: '__ZN130_$LT$$RF$pyo3..impl_..pyclass..PyClassImplCollector$LT$T$GT$$u20$as$u20$pyo3..impl_..pyclass..PyClassNewTextSignature$LT$T$GT$$GT$18new_text_signature17h08a8127b9ff7810eE', symObjAddr: 0xA30, symBinAddr: 0xE5CC, symSize: 0x1C }
  - { offset: 0x48348, size: 0x8, addend: 0x0, symName: '__ZN130_$LT$$RF$pyo3..impl_..pyclass..PyClassImplCollector$LT$T$GT$$u20$as$u20$pyo3..impl_..pyclass..PyClassNewTextSignature$LT$T$GT$$GT$18new_text_signature17h0db5d7a5bd9c88d5E', symObjAddr: 0xA4C, symBinAddr: 0xE5E8, symSize: 0x1C }
  - { offset: 0x4837F, size: 0x8, addend: 0x0, symName: '__ZN130_$LT$$RF$pyo3..impl_..pyclass..PyClassImplCollector$LT$T$GT$$u20$as$u20$pyo3..impl_..pyclass..PyClassNewTextSignature$LT$T$GT$$GT$18new_text_signature17h159dc0dbb71f1455E', symObjAddr: 0xA68, symBinAddr: 0xE604, symSize: 0x1C }
  - { offset: 0x483B6, size: 0x8, addend: 0x0, symName: '__ZN130_$LT$$RF$pyo3..impl_..pyclass..PyClassImplCollector$LT$T$GT$$u20$as$u20$pyo3..impl_..pyclass..PyClassNewTextSignature$LT$T$GT$$GT$18new_text_signature17h16b328993839b210E', symObjAddr: 0xA84, symBinAddr: 0xE620, symSize: 0x1C }
  - { offset: 0x483ED, size: 0x8, addend: 0x0, symName: '__ZN130_$LT$$RF$pyo3..impl_..pyclass..PyClassImplCollector$LT$T$GT$$u20$as$u20$pyo3..impl_..pyclass..PyClassNewTextSignature$LT$T$GT$$GT$18new_text_signature17h1795d017ab4ee636E', symObjAddr: 0xAA0, symBinAddr: 0xE63C, symSize: 0x1C }
  - { offset: 0x48424, size: 0x8, addend: 0x0, symName: '__ZN130_$LT$$RF$pyo3..impl_..pyclass..PyClassImplCollector$LT$T$GT$$u20$as$u20$pyo3..impl_..pyclass..PyClassNewTextSignature$LT$T$GT$$GT$18new_text_signature17h1851ed249687c19bE', symObjAddr: 0xABC, symBinAddr: 0xE658, symSize: 0x1C }
  - { offset: 0x4845B, size: 0x8, addend: 0x0, symName: '__ZN130_$LT$$RF$pyo3..impl_..pyclass..PyClassImplCollector$LT$T$GT$$u20$as$u20$pyo3..impl_..pyclass..PyClassNewTextSignature$LT$T$GT$$GT$18new_text_signature17h1a67fd4854f00b5aE', symObjAddr: 0xAD8, symBinAddr: 0xE674, symSize: 0x1C }
  - { offset: 0x48492, size: 0x8, addend: 0x0, symName: '__ZN130_$LT$$RF$pyo3..impl_..pyclass..PyClassImplCollector$LT$T$GT$$u20$as$u20$pyo3..impl_..pyclass..PyClassNewTextSignature$LT$T$GT$$GT$18new_text_signature17h1c654a1f8bdf2600E', symObjAddr: 0xAF4, symBinAddr: 0xE690, symSize: 0x1C }
  - { offset: 0x484C9, size: 0x8, addend: 0x0, symName: '__ZN130_$LT$$RF$pyo3..impl_..pyclass..PyClassImplCollector$LT$T$GT$$u20$as$u20$pyo3..impl_..pyclass..PyClassNewTextSignature$LT$T$GT$$GT$18new_text_signature17h1c83b276fc2bf7dfE', symObjAddr: 0xB10, symBinAddr: 0xE6AC, symSize: 0x1C }
  - { offset: 0x48500, size: 0x8, addend: 0x0, symName: '__ZN130_$LT$$RF$pyo3..impl_..pyclass..PyClassImplCollector$LT$T$GT$$u20$as$u20$pyo3..impl_..pyclass..PyClassNewTextSignature$LT$T$GT$$GT$18new_text_signature17h1e9978dbf1b2f7beE', symObjAddr: 0xB2C, symBinAddr: 0xE6C8, symSize: 0x1C }
  - { offset: 0x48537, size: 0x8, addend: 0x0, symName: '__ZN130_$LT$$RF$pyo3..impl_..pyclass..PyClassImplCollector$LT$T$GT$$u20$as$u20$pyo3..impl_..pyclass..PyClassNewTextSignature$LT$T$GT$$GT$18new_text_signature17h1ed5c92c18332dfcE', symObjAddr: 0xB48, symBinAddr: 0xE6E4, symSize: 0x1C }
  - { offset: 0x4856E, size: 0x8, addend: 0x0, symName: '__ZN130_$LT$$RF$pyo3..impl_..pyclass..PyClassImplCollector$LT$T$GT$$u20$as$u20$pyo3..impl_..pyclass..PyClassNewTextSignature$LT$T$GT$$GT$18new_text_signature17h28041597701c0564E', symObjAddr: 0xB64, symBinAddr: 0xE700, symSize: 0x1C }
  - { offset: 0x485A5, size: 0x8, addend: 0x0, symName: '__ZN130_$LT$$RF$pyo3..impl_..pyclass..PyClassImplCollector$LT$T$GT$$u20$as$u20$pyo3..impl_..pyclass..PyClassNewTextSignature$LT$T$GT$$GT$18new_text_signature17h319166e1bb27aa1cE', symObjAddr: 0xB80, symBinAddr: 0xE71C, symSize: 0x1C }
  - { offset: 0x485DC, size: 0x8, addend: 0x0, symName: '__ZN130_$LT$$RF$pyo3..impl_..pyclass..PyClassImplCollector$LT$T$GT$$u20$as$u20$pyo3..impl_..pyclass..PyClassNewTextSignature$LT$T$GT$$GT$18new_text_signature17h3668488fbea1a81bE', symObjAddr: 0xB9C, symBinAddr: 0xE738, symSize: 0x1C }
  - { offset: 0x48613, size: 0x8, addend: 0x0, symName: '__ZN130_$LT$$RF$pyo3..impl_..pyclass..PyClassImplCollector$LT$T$GT$$u20$as$u20$pyo3..impl_..pyclass..PyClassNewTextSignature$LT$T$GT$$GT$18new_text_signature17h401c05fb2a24bf86E', symObjAddr: 0xBB8, symBinAddr: 0xE754, symSize: 0x1C }
  - { offset: 0x4864A, size: 0x8, addend: 0x0, symName: '__ZN130_$LT$$RF$pyo3..impl_..pyclass..PyClassImplCollector$LT$T$GT$$u20$as$u20$pyo3..impl_..pyclass..PyClassNewTextSignature$LT$T$GT$$GT$18new_text_signature17h44c4206e2b3693bdE', symObjAddr: 0xBD4, symBinAddr: 0xE770, symSize: 0x1C }
  - { offset: 0x48681, size: 0x8, addend: 0x0, symName: '__ZN130_$LT$$RF$pyo3..impl_..pyclass..PyClassImplCollector$LT$T$GT$$u20$as$u20$pyo3..impl_..pyclass..PyClassNewTextSignature$LT$T$GT$$GT$18new_text_signature17h44edcd2a754ed05bE', symObjAddr: 0xBF0, symBinAddr: 0xE78C, symSize: 0x1C }
  - { offset: 0x486B8, size: 0x8, addend: 0x0, symName: '__ZN130_$LT$$RF$pyo3..impl_..pyclass..PyClassImplCollector$LT$T$GT$$u20$as$u20$pyo3..impl_..pyclass..PyClassNewTextSignature$LT$T$GT$$GT$18new_text_signature17h4859310089b94e9fE', symObjAddr: 0xC0C, symBinAddr: 0xE7A8, symSize: 0x1C }
  - { offset: 0x486EF, size: 0x8, addend: 0x0, symName: '__ZN130_$LT$$RF$pyo3..impl_..pyclass..PyClassImplCollector$LT$T$GT$$u20$as$u20$pyo3..impl_..pyclass..PyClassNewTextSignature$LT$T$GT$$GT$18new_text_signature17h4e7b0097609a9017E', symObjAddr: 0xC28, symBinAddr: 0xE7C4, symSize: 0x1C }
  - { offset: 0x48726, size: 0x8, addend: 0x0, symName: '__ZN130_$LT$$RF$pyo3..impl_..pyclass..PyClassImplCollector$LT$T$GT$$u20$as$u20$pyo3..impl_..pyclass..PyClassNewTextSignature$LT$T$GT$$GT$18new_text_signature17h529a9f8e6c676696E', symObjAddr: 0xC44, symBinAddr: 0xE7E0, symSize: 0x1C }
  - { offset: 0x4875D, size: 0x8, addend: 0x0, symName: '__ZN130_$LT$$RF$pyo3..impl_..pyclass..PyClassImplCollector$LT$T$GT$$u20$as$u20$pyo3..impl_..pyclass..PyClassNewTextSignature$LT$T$GT$$GT$18new_text_signature17h538772d93bcc4807E', symObjAddr: 0xC60, symBinAddr: 0xE7FC, symSize: 0x1C }
  - { offset: 0x48794, size: 0x8, addend: 0x0, symName: '__ZN130_$LT$$RF$pyo3..impl_..pyclass..PyClassImplCollector$LT$T$GT$$u20$as$u20$pyo3..impl_..pyclass..PyClassNewTextSignature$LT$T$GT$$GT$18new_text_signature17h567a5746a169b99aE', symObjAddr: 0xC7C, symBinAddr: 0xE818, symSize: 0x1C }
  - { offset: 0x487CB, size: 0x8, addend: 0x0, symName: '__ZN130_$LT$$RF$pyo3..impl_..pyclass..PyClassImplCollector$LT$T$GT$$u20$as$u20$pyo3..impl_..pyclass..PyClassNewTextSignature$LT$T$GT$$GT$18new_text_signature17h637b168ab1053c88E', symObjAddr: 0xC98, symBinAddr: 0xE834, symSize: 0x1C }
  - { offset: 0x48802, size: 0x8, addend: 0x0, symName: '__ZN130_$LT$$RF$pyo3..impl_..pyclass..PyClassImplCollector$LT$T$GT$$u20$as$u20$pyo3..impl_..pyclass..PyClassNewTextSignature$LT$T$GT$$GT$18new_text_signature17h690e61bf92f7236cE', symObjAddr: 0xCB4, symBinAddr: 0xE850, symSize: 0x1C }
  - { offset: 0x48839, size: 0x8, addend: 0x0, symName: '__ZN130_$LT$$RF$pyo3..impl_..pyclass..PyClassImplCollector$LT$T$GT$$u20$as$u20$pyo3..impl_..pyclass..PyClassNewTextSignature$LT$T$GT$$GT$18new_text_signature17h6aaf5d1debd1b5ceE', symObjAddr: 0xCD0, symBinAddr: 0xE86C, symSize: 0x1C }
  - { offset: 0x48870, size: 0x8, addend: 0x0, symName: '__ZN130_$LT$$RF$pyo3..impl_..pyclass..PyClassImplCollector$LT$T$GT$$u20$as$u20$pyo3..impl_..pyclass..PyClassNewTextSignature$LT$T$GT$$GT$18new_text_signature17h6b66b8630b5e2de8E', symObjAddr: 0xCEC, symBinAddr: 0xE888, symSize: 0x1C }
  - { offset: 0x488A7, size: 0x8, addend: 0x0, symName: '__ZN130_$LT$$RF$pyo3..impl_..pyclass..PyClassImplCollector$LT$T$GT$$u20$as$u20$pyo3..impl_..pyclass..PyClassNewTextSignature$LT$T$GT$$GT$18new_text_signature17h7603ebbcce529600E', symObjAddr: 0xD08, symBinAddr: 0xE8A4, symSize: 0x1C }
  - { offset: 0x488DE, size: 0x8, addend: 0x0, symName: '__ZN130_$LT$$RF$pyo3..impl_..pyclass..PyClassImplCollector$LT$T$GT$$u20$as$u20$pyo3..impl_..pyclass..PyClassNewTextSignature$LT$T$GT$$GT$18new_text_signature17h7fe155e76ca59d83E', symObjAddr: 0xD24, symBinAddr: 0xE8C0, symSize: 0x1C }
  - { offset: 0x48915, size: 0x8, addend: 0x0, symName: '__ZN130_$LT$$RF$pyo3..impl_..pyclass..PyClassImplCollector$LT$T$GT$$u20$as$u20$pyo3..impl_..pyclass..PyClassNewTextSignature$LT$T$GT$$GT$18new_text_signature17h8f704fc0f28b9458E', symObjAddr: 0xD40, symBinAddr: 0xE8DC, symSize: 0x1C }
  - { offset: 0x4894C, size: 0x8, addend: 0x0, symName: '__ZN130_$LT$$RF$pyo3..impl_..pyclass..PyClassImplCollector$LT$T$GT$$u20$as$u20$pyo3..impl_..pyclass..PyClassNewTextSignature$LT$T$GT$$GT$18new_text_signature17h9163b696f8752c83E', symObjAddr: 0xD5C, symBinAddr: 0xE8F8, symSize: 0x1C }
  - { offset: 0x48983, size: 0x8, addend: 0x0, symName: '__ZN130_$LT$$RF$pyo3..impl_..pyclass..PyClassImplCollector$LT$T$GT$$u20$as$u20$pyo3..impl_..pyclass..PyClassNewTextSignature$LT$T$GT$$GT$18new_text_signature17h947017c353960875E', symObjAddr: 0xD78, symBinAddr: 0xE914, symSize: 0x1C }
  - { offset: 0x489BA, size: 0x8, addend: 0x0, symName: '__ZN130_$LT$$RF$pyo3..impl_..pyclass..PyClassImplCollector$LT$T$GT$$u20$as$u20$pyo3..impl_..pyclass..PyClassNewTextSignature$LT$T$GT$$GT$18new_text_signature17h94701bf14a8cf76bE', symObjAddr: 0xD94, symBinAddr: 0xE930, symSize: 0x1C }
  - { offset: 0x489F1, size: 0x8, addend: 0x0, symName: '__ZN130_$LT$$RF$pyo3..impl_..pyclass..PyClassImplCollector$LT$T$GT$$u20$as$u20$pyo3..impl_..pyclass..PyClassNewTextSignature$LT$T$GT$$GT$18new_text_signature17h94cb0fd030a7252dE', symObjAddr: 0xDB0, symBinAddr: 0xE94C, symSize: 0x1C }
  - { offset: 0x48A28, size: 0x8, addend: 0x0, symName: '__ZN130_$LT$$RF$pyo3..impl_..pyclass..PyClassImplCollector$LT$T$GT$$u20$as$u20$pyo3..impl_..pyclass..PyClassNewTextSignature$LT$T$GT$$GT$18new_text_signature17h99d4750c555594f9E', symObjAddr: 0xDCC, symBinAddr: 0xE968, symSize: 0x1C }
  - { offset: 0x48A5F, size: 0x8, addend: 0x0, symName: '__ZN130_$LT$$RF$pyo3..impl_..pyclass..PyClassImplCollector$LT$T$GT$$u20$as$u20$pyo3..impl_..pyclass..PyClassNewTextSignature$LT$T$GT$$GT$18new_text_signature17h9a9591a610a7ecbaE', symObjAddr: 0xDE8, symBinAddr: 0xE984, symSize: 0x1C }
  - { offset: 0x48A96, size: 0x8, addend: 0x0, symName: '__ZN130_$LT$$RF$pyo3..impl_..pyclass..PyClassImplCollector$LT$T$GT$$u20$as$u20$pyo3..impl_..pyclass..PyClassNewTextSignature$LT$T$GT$$GT$18new_text_signature17h9c120bdf2f4d619fE', symObjAddr: 0xE04, symBinAddr: 0xE9A0, symSize: 0x1C }
  - { offset: 0x48ACD, size: 0x8, addend: 0x0, symName: '__ZN130_$LT$$RF$pyo3..impl_..pyclass..PyClassImplCollector$LT$T$GT$$u20$as$u20$pyo3..impl_..pyclass..PyClassNewTextSignature$LT$T$GT$$GT$18new_text_signature17ha26d561bf57a448dE', symObjAddr: 0xE20, symBinAddr: 0xE9BC, symSize: 0x1C }
  - { offset: 0x48B04, size: 0x8, addend: 0x0, symName: '__ZN130_$LT$$RF$pyo3..impl_..pyclass..PyClassImplCollector$LT$T$GT$$u20$as$u20$pyo3..impl_..pyclass..PyClassNewTextSignature$LT$T$GT$$GT$18new_text_signature17ha7ab8332b099d2f6E', symObjAddr: 0xE3C, symBinAddr: 0xE9D8, symSize: 0x1C }
  - { offset: 0x48B3B, size: 0x8, addend: 0x0, symName: '__ZN130_$LT$$RF$pyo3..impl_..pyclass..PyClassImplCollector$LT$T$GT$$u20$as$u20$pyo3..impl_..pyclass..PyClassNewTextSignature$LT$T$GT$$GT$18new_text_signature17haa2079f6231a5f7aE', symObjAddr: 0xE58, symBinAddr: 0xE9F4, symSize: 0x1C }
  - { offset: 0x48B72, size: 0x8, addend: 0x0, symName: '__ZN130_$LT$$RF$pyo3..impl_..pyclass..PyClassImplCollector$LT$T$GT$$u20$as$u20$pyo3..impl_..pyclass..PyClassNewTextSignature$LT$T$GT$$GT$18new_text_signature17hb42e28ca1be5bca2E', symObjAddr: 0xE74, symBinAddr: 0xEA10, symSize: 0x1C }
  - { offset: 0x48BA9, size: 0x8, addend: 0x0, symName: '__ZN130_$LT$$RF$pyo3..impl_..pyclass..PyClassImplCollector$LT$T$GT$$u20$as$u20$pyo3..impl_..pyclass..PyClassNewTextSignature$LT$T$GT$$GT$18new_text_signature17hb8dcf7f4d1a9fd56E', symObjAddr: 0xE90, symBinAddr: 0xEA2C, symSize: 0x1C }
  - { offset: 0x48BE0, size: 0x8, addend: 0x0, symName: '__ZN130_$LT$$RF$pyo3..impl_..pyclass..PyClassImplCollector$LT$T$GT$$u20$as$u20$pyo3..impl_..pyclass..PyClassNewTextSignature$LT$T$GT$$GT$18new_text_signature17hba799b45861198f5E', symObjAddr: 0xEAC, symBinAddr: 0xEA48, symSize: 0x1C }
  - { offset: 0x48C17, size: 0x8, addend: 0x0, symName: '__ZN130_$LT$$RF$pyo3..impl_..pyclass..PyClassImplCollector$LT$T$GT$$u20$as$u20$pyo3..impl_..pyclass..PyClassNewTextSignature$LT$T$GT$$GT$18new_text_signature17hc01f56ea43674311E', symObjAddr: 0xEC8, symBinAddr: 0xEA64, symSize: 0x1C }
  - { offset: 0x48C4E, size: 0x8, addend: 0x0, symName: '__ZN130_$LT$$RF$pyo3..impl_..pyclass..PyClassImplCollector$LT$T$GT$$u20$as$u20$pyo3..impl_..pyclass..PyClassNewTextSignature$LT$T$GT$$GT$18new_text_signature17hc5a5fe67b988b339E', symObjAddr: 0xEE4, symBinAddr: 0xEA80, symSize: 0x1C }
  - { offset: 0x48C85, size: 0x8, addend: 0x0, symName: '__ZN130_$LT$$RF$pyo3..impl_..pyclass..PyClassImplCollector$LT$T$GT$$u20$as$u20$pyo3..impl_..pyclass..PyClassNewTextSignature$LT$T$GT$$GT$18new_text_signature17hc8c729759ff1a47dE', symObjAddr: 0xF00, symBinAddr: 0xEA9C, symSize: 0x1C }
  - { offset: 0x48CBC, size: 0x8, addend: 0x0, symName: '__ZN130_$LT$$RF$pyo3..impl_..pyclass..PyClassImplCollector$LT$T$GT$$u20$as$u20$pyo3..impl_..pyclass..PyClassNewTextSignature$LT$T$GT$$GT$18new_text_signature17hcbdade70f6a9a24fE', symObjAddr: 0xF1C, symBinAddr: 0xEAB8, symSize: 0x1C }
  - { offset: 0x48CF3, size: 0x8, addend: 0x0, symName: '__ZN130_$LT$$RF$pyo3..impl_..pyclass..PyClassImplCollector$LT$T$GT$$u20$as$u20$pyo3..impl_..pyclass..PyClassNewTextSignature$LT$T$GT$$GT$18new_text_signature17hd15790d0b4a7e9a2E', symObjAddr: 0xF38, symBinAddr: 0xEAD4, symSize: 0x1C }
  - { offset: 0x48D2A, size: 0x8, addend: 0x0, symName: '__ZN130_$LT$$RF$pyo3..impl_..pyclass..PyClassImplCollector$LT$T$GT$$u20$as$u20$pyo3..impl_..pyclass..PyClassNewTextSignature$LT$T$GT$$GT$18new_text_signature17hd903ce0540a08c63E', symObjAddr: 0xF54, symBinAddr: 0xEAF0, symSize: 0x1C }
  - { offset: 0x48D61, size: 0x8, addend: 0x0, symName: '__ZN130_$LT$$RF$pyo3..impl_..pyclass..PyClassImplCollector$LT$T$GT$$u20$as$u20$pyo3..impl_..pyclass..PyClassNewTextSignature$LT$T$GT$$GT$18new_text_signature17hdb743e7df02a7029E', symObjAddr: 0xF70, symBinAddr: 0xEB0C, symSize: 0x1C }
  - { offset: 0x48D98, size: 0x8, addend: 0x0, symName: '__ZN130_$LT$$RF$pyo3..impl_..pyclass..PyClassImplCollector$LT$T$GT$$u20$as$u20$pyo3..impl_..pyclass..PyClassNewTextSignature$LT$T$GT$$GT$18new_text_signature17hdfeee6988bd789afE', symObjAddr: 0xF8C, symBinAddr: 0xEB28, symSize: 0x1C }
  - { offset: 0x48DCF, size: 0x8, addend: 0x0, symName: '__ZN130_$LT$$RF$pyo3..impl_..pyclass..PyClassImplCollector$LT$T$GT$$u20$as$u20$pyo3..impl_..pyclass..PyClassNewTextSignature$LT$T$GT$$GT$18new_text_signature17he162f104fb4e915cE', symObjAddr: 0xFA8, symBinAddr: 0xEB44, symSize: 0x1C }
  - { offset: 0x48E06, size: 0x8, addend: 0x0, symName: '__ZN130_$LT$$RF$pyo3..impl_..pyclass..PyClassImplCollector$LT$T$GT$$u20$as$u20$pyo3..impl_..pyclass..PyClassNewTextSignature$LT$T$GT$$GT$18new_text_signature17he5547cccedd8beb2E', symObjAddr: 0xFC4, symBinAddr: 0xEB60, symSize: 0x1C }
  - { offset: 0x48E3D, size: 0x8, addend: 0x0, symName: '__ZN130_$LT$$RF$pyo3..impl_..pyclass..PyClassImplCollector$LT$T$GT$$u20$as$u20$pyo3..impl_..pyclass..PyClassNewTextSignature$LT$T$GT$$GT$18new_text_signature17heb12d1eb08c9b6c2E', symObjAddr: 0xFE0, symBinAddr: 0xEB7C, symSize: 0x1C }
  - { offset: 0x48E74, size: 0x8, addend: 0x0, symName: '__ZN130_$LT$$RF$pyo3..impl_..pyclass..PyClassImplCollector$LT$T$GT$$u20$as$u20$pyo3..impl_..pyclass..PyClassNewTextSignature$LT$T$GT$$GT$18new_text_signature17hed155de13e342c64E', symObjAddr: 0xFFC, symBinAddr: 0xEB98, symSize: 0x1C }
  - { offset: 0x48EAB, size: 0x8, addend: 0x0, symName: '__ZN130_$LT$$RF$pyo3..impl_..pyclass..PyClassImplCollector$LT$T$GT$$u20$as$u20$pyo3..impl_..pyclass..PyClassNewTextSignature$LT$T$GT$$GT$18new_text_signature17hef098c97e15a4178E', symObjAddr: 0x1018, symBinAddr: 0xEBB4, symSize: 0x1C }
  - { offset: 0x48EE2, size: 0x8, addend: 0x0, symName: '__ZN130_$LT$$RF$pyo3..impl_..pyclass..PyClassImplCollector$LT$T$GT$$u20$as$u20$pyo3..impl_..pyclass..PyClassNewTextSignature$LT$T$GT$$GT$18new_text_signature17hf7ce811df0b68130E', symObjAddr: 0x1034, symBinAddr: 0xEBD0, symSize: 0x1C }
  - { offset: 0x48F1A, size: 0x8, addend: 0x0, symName: __ZN4pyo35impl_7pyclass10tp_dealloc17h02535ecffb2e2f6fE, symObjAddr: 0x1050, symBinAddr: 0xEBEC, symSize: 0x34 }
  - { offset: 0x48F4D, size: 0x8, addend: 0x0, symName: __ZN4pyo35impl_7pyclass10tp_dealloc17h063eb19425e2684eE, symObjAddr: 0x1084, symBinAddr: 0xEC20, symSize: 0x34 }
  - { offset: 0x48F80, size: 0x8, addend: 0x0, symName: __ZN4pyo35impl_7pyclass10tp_dealloc17h0bde1fea189c92bcE, symObjAddr: 0x10B8, symBinAddr: 0xEC54, symSize: 0x34 }
  - { offset: 0x48FB3, size: 0x8, addend: 0x0, symName: __ZN4pyo35impl_7pyclass10tp_dealloc17h0f0be8878e96bd96E, symObjAddr: 0x10EC, symBinAddr: 0xEC88, symSize: 0x34 }
  - { offset: 0x48FE6, size: 0x8, addend: 0x0, symName: __ZN4pyo35impl_7pyclass10tp_dealloc17h1a38eb014f483595E, symObjAddr: 0x1120, symBinAddr: 0xECBC, symSize: 0x34 }
  - { offset: 0x49019, size: 0x8, addend: 0x0, symName: __ZN4pyo35impl_7pyclass10tp_dealloc17h2182587eba9a5c83E, symObjAddr: 0x1154, symBinAddr: 0xECF0, symSize: 0x34 }
  - { offset: 0x4904C, size: 0x8, addend: 0x0, symName: __ZN4pyo35impl_7pyclass10tp_dealloc17h25b956f23c15ca05E, symObjAddr: 0x1188, symBinAddr: 0xED24, symSize: 0x34 }
  - { offset: 0x4907F, size: 0x8, addend: 0x0, symName: __ZN4pyo35impl_7pyclass10tp_dealloc17h273ea64afa3d2606E, symObjAddr: 0x11BC, symBinAddr: 0xED58, symSize: 0x34 }
  - { offset: 0x490B2, size: 0x8, addend: 0x0, symName: __ZN4pyo35impl_7pyclass10tp_dealloc17h28dc6100aa9168c0E, symObjAddr: 0x11F0, symBinAddr: 0xED8C, symSize: 0x34 }
  - { offset: 0x490E5, size: 0x8, addend: 0x0, symName: __ZN4pyo35impl_7pyclass10tp_dealloc17h2bf2bfa2e908a19aE, symObjAddr: 0x1224, symBinAddr: 0xEDC0, symSize: 0x34 }
  - { offset: 0x49118, size: 0x8, addend: 0x0, symName: __ZN4pyo35impl_7pyclass10tp_dealloc17h3169e39490cfa8e5E, symObjAddr: 0x1258, symBinAddr: 0xEDF4, symSize: 0x34 }
  - { offset: 0x4914B, size: 0x8, addend: 0x0, symName: __ZN4pyo35impl_7pyclass10tp_dealloc17h3ea229e6aae8fd58E, symObjAddr: 0x128C, symBinAddr: 0xEE28, symSize: 0x34 }
  - { offset: 0x4917E, size: 0x8, addend: 0x0, symName: __ZN4pyo35impl_7pyclass10tp_dealloc17h3f159aa97c6f3a32E, symObjAddr: 0x12C0, symBinAddr: 0xEE5C, symSize: 0x34 }
  - { offset: 0x491B1, size: 0x8, addend: 0x0, symName: __ZN4pyo35impl_7pyclass10tp_dealloc17h465b3f5468a47735E, symObjAddr: 0x12F4, symBinAddr: 0xEE90, symSize: 0x34 }
  - { offset: 0x491E4, size: 0x8, addend: 0x0, symName: __ZN4pyo35impl_7pyclass10tp_dealloc17h4801843a014ed174E, symObjAddr: 0x1328, symBinAddr: 0xEEC4, symSize: 0x34 }
  - { offset: 0x49217, size: 0x8, addend: 0x0, symName: __ZN4pyo35impl_7pyclass10tp_dealloc17h4db6a8d27e867b02E, symObjAddr: 0x135C, symBinAddr: 0xEEF8, symSize: 0x34 }
  - { offset: 0x4924A, size: 0x8, addend: 0x0, symName: __ZN4pyo35impl_7pyclass10tp_dealloc17h5106ebae21758c27E, symObjAddr: 0x1390, symBinAddr: 0xEF2C, symSize: 0x34 }
  - { offset: 0x4927D, size: 0x8, addend: 0x0, symName: __ZN4pyo35impl_7pyclass10tp_dealloc17h57ce02b2456f6c6aE, symObjAddr: 0x13C4, symBinAddr: 0xEF60, symSize: 0x34 }
  - { offset: 0x492B0, size: 0x8, addend: 0x0, symName: __ZN4pyo35impl_7pyclass10tp_dealloc17h5843618f4ee57d71E, symObjAddr: 0x13F8, symBinAddr: 0xEF94, symSize: 0x34 }
  - { offset: 0x492E3, size: 0x8, addend: 0x0, symName: __ZN4pyo35impl_7pyclass10tp_dealloc17h5870fc582d6a2708E, symObjAddr: 0x142C, symBinAddr: 0xEFC8, symSize: 0x34 }
  - { offset: 0x49316, size: 0x8, addend: 0x0, symName: __ZN4pyo35impl_7pyclass10tp_dealloc17h5b4f5e7629391b2aE, symObjAddr: 0x1460, symBinAddr: 0xEFFC, symSize: 0x34 }
  - { offset: 0x49349, size: 0x8, addend: 0x0, symName: __ZN4pyo35impl_7pyclass10tp_dealloc17h6789c8f3c97e7be1E, symObjAddr: 0x1494, symBinAddr: 0xF030, symSize: 0x34 }
  - { offset: 0x4937C, size: 0x8, addend: 0x0, symName: __ZN4pyo35impl_7pyclass10tp_dealloc17h6daf83b9e7383a28E, symObjAddr: 0x14C8, symBinAddr: 0xF064, symSize: 0x34 }
  - { offset: 0x493AF, size: 0x8, addend: 0x0, symName: __ZN4pyo35impl_7pyclass10tp_dealloc17h6e16a17f5528c7efE, symObjAddr: 0x14FC, symBinAddr: 0xF098, symSize: 0x34 }
  - { offset: 0x493E2, size: 0x8, addend: 0x0, symName: __ZN4pyo35impl_7pyclass10tp_dealloc17h73b0d72043cfc5eeE, symObjAddr: 0x1530, symBinAddr: 0xF0CC, symSize: 0x34 }
  - { offset: 0x49415, size: 0x8, addend: 0x0, symName: __ZN4pyo35impl_7pyclass10tp_dealloc17h77caa636c850e34fE, symObjAddr: 0x1564, symBinAddr: 0xF100, symSize: 0x34 }
  - { offset: 0x49448, size: 0x8, addend: 0x0, symName: __ZN4pyo35impl_7pyclass10tp_dealloc17h86a6f4724e1f3893E, symObjAddr: 0x1598, symBinAddr: 0xF134, symSize: 0x34 }
  - { offset: 0x4947B, size: 0x8, addend: 0x0, symName: __ZN4pyo35impl_7pyclass10tp_dealloc17h9088f0f90edc2636E, symObjAddr: 0x15CC, symBinAddr: 0xF168, symSize: 0x34 }
  - { offset: 0x494AE, size: 0x8, addend: 0x0, symName: __ZN4pyo35impl_7pyclass10tp_dealloc17h916213fbb26d1404E, symObjAddr: 0x1600, symBinAddr: 0xF19C, symSize: 0x34 }
  - { offset: 0x494E1, size: 0x8, addend: 0x0, symName: __ZN4pyo35impl_7pyclass10tp_dealloc17h91a485e2fb9689e1E, symObjAddr: 0x1634, symBinAddr: 0xF1D0, symSize: 0x34 }
  - { offset: 0x49514, size: 0x8, addend: 0x0, symName: __ZN4pyo35impl_7pyclass10tp_dealloc17h939d37546b4303bdE, symObjAddr: 0x1668, symBinAddr: 0xF204, symSize: 0x34 }
  - { offset: 0x49547, size: 0x8, addend: 0x0, symName: __ZN4pyo35impl_7pyclass10tp_dealloc17h941dbb653a4bb296E, symObjAddr: 0x169C, symBinAddr: 0xF238, symSize: 0x34 }
  - { offset: 0x4957A, size: 0x8, addend: 0x0, symName: __ZN4pyo35impl_7pyclass10tp_dealloc17h983c0bce3253a2a6E, symObjAddr: 0x16D0, symBinAddr: 0xF26C, symSize: 0x34 }
  - { offset: 0x495AD, size: 0x8, addend: 0x0, symName: __ZN4pyo35impl_7pyclass10tp_dealloc17h984245933a7a8b12E, symObjAddr: 0x1704, symBinAddr: 0xF2A0, symSize: 0x34 }
  - { offset: 0x495E0, size: 0x8, addend: 0x0, symName: __ZN4pyo35impl_7pyclass10tp_dealloc17ha20b2de104812bf1E, symObjAddr: 0x1738, symBinAddr: 0xF2D4, symSize: 0x34 }
  - { offset: 0x49613, size: 0x8, addend: 0x0, symName: __ZN4pyo35impl_7pyclass10tp_dealloc17ha2d995a4e962c959E, symObjAddr: 0x176C, symBinAddr: 0xF308, symSize: 0x34 }
  - { offset: 0x49646, size: 0x8, addend: 0x0, symName: __ZN4pyo35impl_7pyclass10tp_dealloc17ha454a5fe4b27daaeE, symObjAddr: 0x17A0, symBinAddr: 0xF33C, symSize: 0x34 }
  - { offset: 0x49679, size: 0x8, addend: 0x0, symName: __ZN4pyo35impl_7pyclass10tp_dealloc17ha4ef77676d89c74aE, symObjAddr: 0x17D4, symBinAddr: 0xF370, symSize: 0x34 }
  - { offset: 0x496AC, size: 0x8, addend: 0x0, symName: __ZN4pyo35impl_7pyclass10tp_dealloc17haba0753a19aa9082E, symObjAddr: 0x1808, symBinAddr: 0xF3A4, symSize: 0x34 }
  - { offset: 0x496DF, size: 0x8, addend: 0x0, symName: __ZN4pyo35impl_7pyclass10tp_dealloc17hb10acf4e92896fcfE, symObjAddr: 0x183C, symBinAddr: 0xF3D8, symSize: 0x34 }
  - { offset: 0x49712, size: 0x8, addend: 0x0, symName: __ZN4pyo35impl_7pyclass10tp_dealloc17hb2b1a8974408be2cE, symObjAddr: 0x1870, symBinAddr: 0xF40C, symSize: 0x34 }
  - { offset: 0x49745, size: 0x8, addend: 0x0, symName: __ZN4pyo35impl_7pyclass10tp_dealloc17hb55736e163931409E, symObjAddr: 0x18A4, symBinAddr: 0xF440, symSize: 0x34 }
  - { offset: 0x49778, size: 0x8, addend: 0x0, symName: __ZN4pyo35impl_7pyclass10tp_dealloc17hbb44cd825b95ba23E, symObjAddr: 0x18D8, symBinAddr: 0xF474, symSize: 0x34 }
  - { offset: 0x497AB, size: 0x8, addend: 0x0, symName: __ZN4pyo35impl_7pyclass10tp_dealloc17hbf0aa8afa77a08cdE, symObjAddr: 0x190C, symBinAddr: 0xF4A8, symSize: 0x34 }
  - { offset: 0x497DE, size: 0x8, addend: 0x0, symName: __ZN4pyo35impl_7pyclass10tp_dealloc17hc03f2b4173d27161E, symObjAddr: 0x1940, symBinAddr: 0xF4DC, symSize: 0x34 }
  - { offset: 0x49811, size: 0x8, addend: 0x0, symName: __ZN4pyo35impl_7pyclass10tp_dealloc17hc5144bb4465e3b9bE, symObjAddr: 0x1974, symBinAddr: 0xF510, symSize: 0x34 }
  - { offset: 0x49844, size: 0x8, addend: 0x0, symName: __ZN4pyo35impl_7pyclass10tp_dealloc17hd0d897f7642f5fb8E, symObjAddr: 0x19A8, symBinAddr: 0xF544, symSize: 0x34 }
  - { offset: 0x49877, size: 0x8, addend: 0x0, symName: __ZN4pyo35impl_7pyclass10tp_dealloc17hd7a7f8c2887db65aE, symObjAddr: 0x19DC, symBinAddr: 0xF578, symSize: 0x34 }
  - { offset: 0x498AA, size: 0x8, addend: 0x0, symName: __ZN4pyo35impl_7pyclass10tp_dealloc17hdb4bfa645aefc502E, symObjAddr: 0x1A10, symBinAddr: 0xF5AC, symSize: 0x34 }
  - { offset: 0x498DD, size: 0x8, addend: 0x0, symName: __ZN4pyo35impl_7pyclass10tp_dealloc17he055a11911dfe37cE, symObjAddr: 0x1A44, symBinAddr: 0xF5E0, symSize: 0x34 }
  - { offset: 0x49910, size: 0x8, addend: 0x0, symName: __ZN4pyo35impl_7pyclass10tp_dealloc17he094eb160f5b59dcE, symObjAddr: 0x1A78, symBinAddr: 0xF614, symSize: 0x34 }
  - { offset: 0x49943, size: 0x8, addend: 0x0, symName: __ZN4pyo35impl_7pyclass10tp_dealloc17he19b6bf97fa2aaf1E, symObjAddr: 0x1AAC, symBinAddr: 0xF648, symSize: 0x34 }
  - { offset: 0x49976, size: 0x8, addend: 0x0, symName: __ZN4pyo35impl_7pyclass10tp_dealloc17he2908eac2121cd87E, symObjAddr: 0x1AE0, symBinAddr: 0xF67C, symSize: 0x34 }
  - { offset: 0x499A9, size: 0x8, addend: 0x0, symName: __ZN4pyo35impl_7pyclass10tp_dealloc17hec332e9f43dfb30dE, symObjAddr: 0x1B14, symBinAddr: 0xF6B0, symSize: 0x34 }
  - { offset: 0x499DC, size: 0x8, addend: 0x0, symName: __ZN4pyo35impl_7pyclass10tp_dealloc17hf1b4c6ae4656f0a1E, symObjAddr: 0x1B48, symBinAddr: 0xF6E4, symSize: 0x34 }
  - { offset: 0x49A0F, size: 0x8, addend: 0x0, symName: __ZN4pyo35impl_7pyclass10tp_dealloc17hfb87e1bd103b4408E, symObjAddr: 0x1B7C, symBinAddr: 0xF718, symSize: 0x34 }
  - { offset: 0x49A42, size: 0x8, addend: 0x0, symName: __ZN4pyo35impl_7pyclass10tp_dealloc17hfc64db9962f8ce43E, symObjAddr: 0x1BB0, symBinAddr: 0xF74C, symSize: 0x34 }
  - { offset: 0x49A75, size: 0x8, addend: 0x0, symName: __ZN4pyo35impl_7pyclass10tp_dealloc17hfd098532de3386beE, symObjAddr: 0x1BE4, symBinAddr: 0xF780, symSize: 0x34 }
  - { offset: 0x49AAD, size: 0x8, addend: 0x0, symName: __ZN4pyo35impl_7pyclass11PyClassDict10clear_dict17h00a2b77cc5f090e7E, symObjAddr: 0x1C18, symBinAddr: 0xF7B4, symSize: 0x10 }
  - { offset: 0x49AFD, size: 0x8, addend: 0x0, symName: __ZN4pyo35impl_7pyclass14PyClassWeakRef14clear_weakrefs17h212b972e48fc5fb3E, symObjAddr: 0x1C28, symBinAddr: 0xF7C4, symSize: 0x14 }
  - { offset: 0x49B56, size: 0x8, addend: 0x0, symName: __ZN4pyo35impl_7pyclass18tp_dealloc_with_gc17h022840327dbeed0eE, symObjAddr: 0x1C3C, symBinAddr: 0xF7D8, symSize: 0x4C }
  - { offset: 0x49BA7, size: 0x8, addend: 0x0, symName: __ZN4pyo35impl_7pyclass18tp_dealloc_with_gc17h027f781ee52e14a7E, symObjAddr: 0x1C88, symBinAddr: 0xF824, symSize: 0x4C }
  - { offset: 0x49BF8, size: 0x8, addend: 0x0, symName: __ZN4pyo35impl_7pyclass18tp_dealloc_with_gc17h0a22dd22f4145f50E, symObjAddr: 0x1CD4, symBinAddr: 0xF870, symSize: 0x4C }
  - { offset: 0x49C49, size: 0x8, addend: 0x0, symName: __ZN4pyo35impl_7pyclass18tp_dealloc_with_gc17h0df39cb834547799E, symObjAddr: 0x1D20, symBinAddr: 0xF8BC, symSize: 0x4C }
  - { offset: 0x49C9A, size: 0x8, addend: 0x0, symName: __ZN4pyo35impl_7pyclass18tp_dealloc_with_gc17h10bd9814f4704372E, symObjAddr: 0x1D6C, symBinAddr: 0xF908, symSize: 0x4C }
  - { offset: 0x49CEB, size: 0x8, addend: 0x0, symName: __ZN4pyo35impl_7pyclass18tp_dealloc_with_gc17h16441379d46474f7E, symObjAddr: 0x1DB8, symBinAddr: 0xF954, symSize: 0x4C }
  - { offset: 0x49D3C, size: 0x8, addend: 0x0, symName: __ZN4pyo35impl_7pyclass18tp_dealloc_with_gc17h1c24bf4acd56555bE, symObjAddr: 0x1E04, symBinAddr: 0xF9A0, symSize: 0x4C }
  - { offset: 0x49D8D, size: 0x8, addend: 0x0, symName: __ZN4pyo35impl_7pyclass18tp_dealloc_with_gc17h1d3e07d1365271f1E, symObjAddr: 0x1E50, symBinAddr: 0xF9EC, symSize: 0x4C }
  - { offset: 0x49DDE, size: 0x8, addend: 0x0, symName: __ZN4pyo35impl_7pyclass18tp_dealloc_with_gc17h1de09752daff0225E, symObjAddr: 0x1E9C, symBinAddr: 0xFA38, symSize: 0x4C }
  - { offset: 0x49E2F, size: 0x8, addend: 0x0, symName: __ZN4pyo35impl_7pyclass18tp_dealloc_with_gc17h249e0f98efdd9a21E, symObjAddr: 0x1EE8, symBinAddr: 0xFA84, symSize: 0x4C }
  - { offset: 0x49E80, size: 0x8, addend: 0x0, symName: __ZN4pyo35impl_7pyclass18tp_dealloc_with_gc17h29f2af3e6e6519b2E, symObjAddr: 0x1F34, symBinAddr: 0xFAD0, symSize: 0x4C }
  - { offset: 0x49ED1, size: 0x8, addend: 0x0, symName: __ZN4pyo35impl_7pyclass18tp_dealloc_with_gc17h2d168ed2ae96b180E, symObjAddr: 0x1F80, symBinAddr: 0xFB1C, symSize: 0x4C }
  - { offset: 0x49F22, size: 0x8, addend: 0x0, symName: __ZN4pyo35impl_7pyclass18tp_dealloc_with_gc17h2ec7e6577c03bd9bE, symObjAddr: 0x1FCC, symBinAddr: 0xFB68, symSize: 0x4C }
  - { offset: 0x49F73, size: 0x8, addend: 0x0, symName: __ZN4pyo35impl_7pyclass18tp_dealloc_with_gc17h391e0fc0265a93faE, symObjAddr: 0x2018, symBinAddr: 0xFBB4, symSize: 0x4C }
  - { offset: 0x49FC4, size: 0x8, addend: 0x0, symName: __ZN4pyo35impl_7pyclass18tp_dealloc_with_gc17h3be776e4cf84b695E, symObjAddr: 0x2064, symBinAddr: 0xFC00, symSize: 0x4C }
  - { offset: 0x4A015, size: 0x8, addend: 0x0, symName: __ZN4pyo35impl_7pyclass18tp_dealloc_with_gc17h3cac28e1c5ad1e4cE, symObjAddr: 0x20B0, symBinAddr: 0xFC4C, symSize: 0x4C }
  - { offset: 0x4A066, size: 0x8, addend: 0x0, symName: __ZN4pyo35impl_7pyclass18tp_dealloc_with_gc17h3f7ba97ceed7c923E, symObjAddr: 0x20FC, symBinAddr: 0xFC98, symSize: 0x4C }
  - { offset: 0x4A0B7, size: 0x8, addend: 0x0, symName: __ZN4pyo35impl_7pyclass18tp_dealloc_with_gc17h4025fe679137c53eE, symObjAddr: 0x2148, symBinAddr: 0xFCE4, symSize: 0x4C }
  - { offset: 0x4A108, size: 0x8, addend: 0x0, symName: __ZN4pyo35impl_7pyclass18tp_dealloc_with_gc17h450a0a037e9fd17aE, symObjAddr: 0x2194, symBinAddr: 0xFD30, symSize: 0x4C }
  - { offset: 0x4A159, size: 0x8, addend: 0x0, symName: __ZN4pyo35impl_7pyclass18tp_dealloc_with_gc17h46370a0baddb4de0E, symObjAddr: 0x21E0, symBinAddr: 0xFD7C, symSize: 0x4C }
  - { offset: 0x4A1AA, size: 0x8, addend: 0x0, symName: __ZN4pyo35impl_7pyclass18tp_dealloc_with_gc17h46a2477685bd76ceE, symObjAddr: 0x222C, symBinAddr: 0xFDC8, symSize: 0x4C }
  - { offset: 0x4A1FB, size: 0x8, addend: 0x0, symName: __ZN4pyo35impl_7pyclass18tp_dealloc_with_gc17h46c675a0d36a7540E, symObjAddr: 0x2278, symBinAddr: 0xFE14, symSize: 0x4C }
  - { offset: 0x4A24C, size: 0x8, addend: 0x0, symName: __ZN4pyo35impl_7pyclass18tp_dealloc_with_gc17h56e392b0302f3e04E, symObjAddr: 0x22C4, symBinAddr: 0xFE60, symSize: 0x4C }
  - { offset: 0x4A29D, size: 0x8, addend: 0x0, symName: __ZN4pyo35impl_7pyclass18tp_dealloc_with_gc17h57af47d43d2ee329E, symObjAddr: 0x2310, symBinAddr: 0xFEAC, symSize: 0x4C }
  - { offset: 0x4A2EE, size: 0x8, addend: 0x0, symName: __ZN4pyo35impl_7pyclass18tp_dealloc_with_gc17h5c35d1fabce044d1E, symObjAddr: 0x235C, symBinAddr: 0xFEF8, symSize: 0x4C }
  - { offset: 0x4A33F, size: 0x8, addend: 0x0, symName: __ZN4pyo35impl_7pyclass18tp_dealloc_with_gc17h64b7ba4a80fecf95E, symObjAddr: 0x23A8, symBinAddr: 0xFF44, symSize: 0x4C }
  - { offset: 0x4A390, size: 0x8, addend: 0x0, symName: __ZN4pyo35impl_7pyclass18tp_dealloc_with_gc17h6688f87677d2522aE, symObjAddr: 0x23F4, symBinAddr: 0xFF90, symSize: 0x4C }
  - { offset: 0x4A3E1, size: 0x8, addend: 0x0, symName: __ZN4pyo35impl_7pyclass18tp_dealloc_with_gc17h6fc882672f661e65E, symObjAddr: 0x2440, symBinAddr: 0xFFDC, symSize: 0x4C }
  - { offset: 0x4A432, size: 0x8, addend: 0x0, symName: __ZN4pyo35impl_7pyclass18tp_dealloc_with_gc17h741159a556682f23E, symObjAddr: 0x248C, symBinAddr: 0x10028, symSize: 0x4C }
  - { offset: 0x4A483, size: 0x8, addend: 0x0, symName: __ZN4pyo35impl_7pyclass18tp_dealloc_with_gc17h75071b2549952e07E, symObjAddr: 0x24D8, symBinAddr: 0x10074, symSize: 0x4C }
  - { offset: 0x4A4D4, size: 0x8, addend: 0x0, symName: __ZN4pyo35impl_7pyclass18tp_dealloc_with_gc17h7c984def3583f92cE, symObjAddr: 0x2524, symBinAddr: 0x100C0, symSize: 0x4C }
  - { offset: 0x4A525, size: 0x8, addend: 0x0, symName: __ZN4pyo35impl_7pyclass18tp_dealloc_with_gc17h7ca89e6ac76459a8E, symObjAddr: 0x2570, symBinAddr: 0x1010C, symSize: 0x4C }
  - { offset: 0x4A576, size: 0x8, addend: 0x0, symName: __ZN4pyo35impl_7pyclass18tp_dealloc_with_gc17h836ba2a8d137a962E, symObjAddr: 0x25BC, symBinAddr: 0x10158, symSize: 0x4C }
  - { offset: 0x4A5C7, size: 0x8, addend: 0x0, symName: __ZN4pyo35impl_7pyclass18tp_dealloc_with_gc17h8b8a13fe299805acE, symObjAddr: 0x2608, symBinAddr: 0x101A4, symSize: 0x4C }
  - { offset: 0x4A618, size: 0x8, addend: 0x0, symName: __ZN4pyo35impl_7pyclass18tp_dealloc_with_gc17h9361156253c1c41aE, symObjAddr: 0x2654, symBinAddr: 0x101F0, symSize: 0x4C }
  - { offset: 0x4A669, size: 0x8, addend: 0x0, symName: __ZN4pyo35impl_7pyclass18tp_dealloc_with_gc17h973d61a28a46280bE, symObjAddr: 0x26A0, symBinAddr: 0x1023C, symSize: 0x4C }
  - { offset: 0x4A6BA, size: 0x8, addend: 0x0, symName: __ZN4pyo35impl_7pyclass18tp_dealloc_with_gc17h99fff2925021a9e2E, symObjAddr: 0x26EC, symBinAddr: 0x10288, symSize: 0x4C }
  - { offset: 0x4A70B, size: 0x8, addend: 0x0, symName: __ZN4pyo35impl_7pyclass18tp_dealloc_with_gc17ha5ac104e0962ecf3E, symObjAddr: 0x2738, symBinAddr: 0x102D4, symSize: 0x4C }
  - { offset: 0x4A75C, size: 0x8, addend: 0x0, symName: __ZN4pyo35impl_7pyclass18tp_dealloc_with_gc17ha83756021252539eE, symObjAddr: 0x2784, symBinAddr: 0x10320, symSize: 0x4C }
  - { offset: 0x4A7AD, size: 0x8, addend: 0x0, symName: __ZN4pyo35impl_7pyclass18tp_dealloc_with_gc17ha84ec4b816642f90E, symObjAddr: 0x27D0, symBinAddr: 0x1036C, symSize: 0x4C }
  - { offset: 0x4A7FE, size: 0x8, addend: 0x0, symName: __ZN4pyo35impl_7pyclass18tp_dealloc_with_gc17ha914ca2aa7dfdcd5E, symObjAddr: 0x281C, symBinAddr: 0x103B8, symSize: 0x4C }
  - { offset: 0x4A84F, size: 0x8, addend: 0x0, symName: __ZN4pyo35impl_7pyclass18tp_dealloc_with_gc17hac0ab892ca0cdfc0E, symObjAddr: 0x2868, symBinAddr: 0x10404, symSize: 0x4C }
  - { offset: 0x4A8A0, size: 0x8, addend: 0x0, symName: __ZN4pyo35impl_7pyclass18tp_dealloc_with_gc17hac42aeee0627c1bcE, symObjAddr: 0x28B4, symBinAddr: 0x10450, symSize: 0x4C }
  - { offset: 0x4A8F1, size: 0x8, addend: 0x0, symName: __ZN4pyo35impl_7pyclass18tp_dealloc_with_gc17hb4f71740b6c71ecaE, symObjAddr: 0x2900, symBinAddr: 0x1049C, symSize: 0x4C }
  - { offset: 0x4A942, size: 0x8, addend: 0x0, symName: __ZN4pyo35impl_7pyclass18tp_dealloc_with_gc17hc71acf47c9a93c28E, symObjAddr: 0x294C, symBinAddr: 0x104E8, symSize: 0x4C }
  - { offset: 0x4A993, size: 0x8, addend: 0x0, symName: __ZN4pyo35impl_7pyclass18tp_dealloc_with_gc17hc86c3bfc6222a6c8E, symObjAddr: 0x2998, symBinAddr: 0x10534, symSize: 0x4C }
  - { offset: 0x4A9E4, size: 0x8, addend: 0x0, symName: __ZN4pyo35impl_7pyclass18tp_dealloc_with_gc17hca65083b5c942519E, symObjAddr: 0x29E4, symBinAddr: 0x10580, symSize: 0x4C }
  - { offset: 0x4AA35, size: 0x8, addend: 0x0, symName: __ZN4pyo35impl_7pyclass18tp_dealloc_with_gc17hcc0e35e9c91758faE, symObjAddr: 0x2A30, symBinAddr: 0x105CC, symSize: 0x4C }
  - { offset: 0x4AA86, size: 0x8, addend: 0x0, symName: __ZN4pyo35impl_7pyclass18tp_dealloc_with_gc17hcd01f66cffbea8d9E, symObjAddr: 0x2A7C, symBinAddr: 0x10618, symSize: 0x4C }
  - { offset: 0x4AAD7, size: 0x8, addend: 0x0, symName: __ZN4pyo35impl_7pyclass18tp_dealloc_with_gc17hcd57752ca20cd3d3E, symObjAddr: 0x2AC8, symBinAddr: 0x10664, symSize: 0x4C }
  - { offset: 0x4AB28, size: 0x8, addend: 0x0, symName: __ZN4pyo35impl_7pyclass18tp_dealloc_with_gc17hdbf83b98fcc208eaE, symObjAddr: 0x2B14, symBinAddr: 0x106B0, symSize: 0x4C }
  - { offset: 0x4AB79, size: 0x8, addend: 0x0, symName: __ZN4pyo35impl_7pyclass18tp_dealloc_with_gc17he1a486b7eddeef62E, symObjAddr: 0x2B60, symBinAddr: 0x106FC, symSize: 0x4C }
  - { offset: 0x4ABCA, size: 0x8, addend: 0x0, symName: __ZN4pyo35impl_7pyclass18tp_dealloc_with_gc17he32d67aae68ec220E, symObjAddr: 0x2BAC, symBinAddr: 0x10748, symSize: 0x4C }
  - { offset: 0x4AC1B, size: 0x8, addend: 0x0, symName: __ZN4pyo35impl_7pyclass18tp_dealloc_with_gc17he4bb32542066572aE, symObjAddr: 0x2BF8, symBinAddr: 0x10794, symSize: 0x4C }
  - { offset: 0x4AC6C, size: 0x8, addend: 0x0, symName: __ZN4pyo35impl_7pyclass18tp_dealloc_with_gc17hecefb352fd5319ecE, symObjAddr: 0x2C44, symBinAddr: 0x107E0, symSize: 0x4C }
  - { offset: 0x4ACBD, size: 0x8, addend: 0x0, symName: __ZN4pyo35impl_7pyclass18tp_dealloc_with_gc17hf297210c50ae0217E, symObjAddr: 0x2C90, symBinAddr: 0x1082C, symSize: 0x4C }
  - { offset: 0x4AD0E, size: 0x8, addend: 0x0, symName: __ZN4pyo35impl_7pyclass18tp_dealloc_with_gc17hf666728b21f7e52eE, symObjAddr: 0x2CDC, symBinAddr: 0x10878, symSize: 0x4C }
  - { offset: 0x4AD5F, size: 0x8, addend: 0x0, symName: __ZN4pyo35impl_7pyclass18tp_dealloc_with_gc17hfd28c665404ca8c5E, symObjAddr: 0x2D28, symBinAddr: 0x108C4, symSize: 0x4C }
  - { offset: 0x4ADB5, size: 0x8, addend: 0x0, symName: __ZN4pyo35impl_7pyclass25PyClass__ge__SlotFragment6__ge__17h8d995cbc0ef168c4E, symObjAddr: 0x2D74, symBinAddr: 0x10910, symSize: 0x6C }
  - { offset: 0x4AE2E, size: 0x8, addend: 0x0, symName: __ZN4pyo35impl_7pyclass25PyClass__ge__SlotFragment6__ge__17haa650f769ffb3afaE, symObjAddr: 0x2DE0, symBinAddr: 0x1097C, symSize: 0x6C }
  - { offset: 0x4AEAD, size: 0x8, addend: 0x0, symName: __ZN4pyo35impl_7pyclass25PyClass__gt__SlotFragment6__gt__17h01046285dd823e46E, symObjAddr: 0x2E4C, symBinAddr: 0x109E8, symSize: 0x6C }
  - { offset: 0x4AF26, size: 0x8, addend: 0x0, symName: __ZN4pyo35impl_7pyclass25PyClass__gt__SlotFragment6__gt__17h8f3893df89f1ddf7E, symObjAddr: 0x2EB8, symBinAddr: 0x10A54, symSize: 0x6C }
  - { offset: 0x4AFA5, size: 0x8, addend: 0x0, symName: __ZN4pyo35impl_7pyclass25PyClass__le__SlotFragment6__le__17h07d3010236254cc1E, symObjAddr: 0x2F24, symBinAddr: 0x10AC0, symSize: 0x6C }
  - { offset: 0x4B01E, size: 0x8, addend: 0x0, symName: __ZN4pyo35impl_7pyclass25PyClass__le__SlotFragment6__le__17h1782894c378fd335E, symObjAddr: 0x2F90, symBinAddr: 0x10B2C, symSize: 0x6C }
  - { offset: 0x4B09D, size: 0x8, addend: 0x0, symName: __ZN4pyo35impl_7pyclass25PyClass__lt__SlotFragment6__lt__17h75bebd4a8936f97bE, symObjAddr: 0x2FFC, symBinAddr: 0x10B98, symSize: 0x6C }
  - { offset: 0x4B116, size: 0x8, addend: 0x0, symName: __ZN4pyo35impl_7pyclass25PyClass__lt__SlotFragment6__lt__17hcc9f1aa28ec14e1eE, symObjAddr: 0x3068, symBinAddr: 0x10C04, symSize: 0x6C }
  - { offset: 0x4B195, size: 0x8, addend: 0x0, symName: __ZN4pyo35impl_7pyclass25PyClass__ne__SlotFragment6__ne__17h08c2f8843ae01b87E, symObjAddr: 0x30D4, symBinAddr: 0x10C70, symSize: 0xC4 }
  - { offset: 0x4B24A, size: 0x8, addend: 0x0, symName: __ZN4pyo35impl_7pyclass25PyClass__ne__SlotFragment6__ne__17h5344f88b2ce6ac8aE, symObjAddr: 0x3198, symBinAddr: 0x10D34, symSize: 0xC4 }
  - { offset: 0x4B304, size: 0x8, addend: 0x0, symName: '__ZN4pyo35impl_7pyclass25PyClass__ne__SlotFragment6__ne__28_$u7b$$u7b$closure$u7d$$u7d$17h01edb8963277203fE', symObjAddr: 0x325C, symBinAddr: 0x10DF8, symSize: 0x30 }
  - { offset: 0x4B35F, size: 0x8, addend: 0x0, symName: '__ZN4pyo35impl_7pyclass25PyClass__ne__SlotFragment6__ne__28_$u7b$$u7b$closure$u7d$$u7d$17h1698eb99068f27ecE', symObjAddr: 0x328C, symBinAddr: 0x10E28, symSize: 0x30 }
  - { offset: 0x4D7FC, size: 0x8, addend: 0x0, symName: '__ZN4pyo35impl_7pyclass29PyClassImplCollector$LT$T$GT$3new17h0834e6b99a82474fE', symObjAddr: 0x32BC, symBinAddr: 0x10E58, symSize: 0x4 }
  - { offset: 0x4D819, size: 0x8, addend: 0x0, symName: '__ZN4pyo35impl_7pyclass29PyClassImplCollector$LT$T$GT$3new17h16d49e52835bf4c6E', symObjAddr: 0x32C0, symBinAddr: 0x10E5C, symSize: 0x4 }
  - { offset: 0x4D836, size: 0x8, addend: 0x0, symName: '__ZN4pyo35impl_7pyclass29PyClassImplCollector$LT$T$GT$3new17h18b295c861049666E', symObjAddr: 0x32C4, symBinAddr: 0x10E60, symSize: 0x4 }
  - { offset: 0x4D853, size: 0x8, addend: 0x0, symName: '__ZN4pyo35impl_7pyclass29PyClassImplCollector$LT$T$GT$3new17h19f55360a56cf12dE', symObjAddr: 0x32C8, symBinAddr: 0x10E64, symSize: 0x4 }
  - { offset: 0x4D870, size: 0x8, addend: 0x0, symName: '__ZN4pyo35impl_7pyclass29PyClassImplCollector$LT$T$GT$3new17h1c4b56f7aea4160bE', symObjAddr: 0x32CC, symBinAddr: 0x10E68, symSize: 0x4 }
  - { offset: 0x4D88D, size: 0x8, addend: 0x0, symName: '__ZN4pyo35impl_7pyclass29PyClassImplCollector$LT$T$GT$3new17h1e78595f3b522f97E', symObjAddr: 0x32D0, symBinAddr: 0x10E6C, symSize: 0x4 }
  - { offset: 0x4D8AA, size: 0x8, addend: 0x0, symName: '__ZN4pyo35impl_7pyclass29PyClassImplCollector$LT$T$GT$3new17h2086c856d8dd708fE', symObjAddr: 0x32D4, symBinAddr: 0x10E70, symSize: 0x4 }
  - { offset: 0x4D8C7, size: 0x8, addend: 0x0, symName: '__ZN4pyo35impl_7pyclass29PyClassImplCollector$LT$T$GT$3new17h255ed70a14a71570E', symObjAddr: 0x32D8, symBinAddr: 0x10E74, symSize: 0x4 }
  - { offset: 0x4D8E4, size: 0x8, addend: 0x0, symName: '__ZN4pyo35impl_7pyclass29PyClassImplCollector$LT$T$GT$3new17h26ad007e42d1f199E', symObjAddr: 0x32DC, symBinAddr: 0x10E78, symSize: 0x4 }
  - { offset: 0x4D901, size: 0x8, addend: 0x0, symName: '__ZN4pyo35impl_7pyclass29PyClassImplCollector$LT$T$GT$3new17h2b3b3cf855c7a12bE', symObjAddr: 0x32E0, symBinAddr: 0x10E7C, symSize: 0x4 }
  - { offset: 0x4D91E, size: 0x8, addend: 0x0, symName: '__ZN4pyo35impl_7pyclass29PyClassImplCollector$LT$T$GT$3new17h2fe09872e7d0e466E', symObjAddr: 0x32E4, symBinAddr: 0x10E80, symSize: 0x4 }
  - { offset: 0x4D93B, size: 0x8, addend: 0x0, symName: '__ZN4pyo35impl_7pyclass29PyClassImplCollector$LT$T$GT$3new17h30565f86a5b38311E', symObjAddr: 0x32E8, symBinAddr: 0x10E84, symSize: 0x4 }
  - { offset: 0x4DA37, size: 0x8, addend: 0x0, symName: '__ZN4pyo35impl_7pyclass29PyClassImplCollector$LT$T$GT$3new17h3e3079e55b12cbddE', symObjAddr: 0x32EC, symBinAddr: 0x10E88, symSize: 0x4 }
  - { offset: 0x4DA54, size: 0x8, addend: 0x0, symName: '__ZN4pyo35impl_7pyclass29PyClassImplCollector$LT$T$GT$3new17h3f1ddb3cf3d7bdefE', symObjAddr: 0x32F0, symBinAddr: 0x10E8C, symSize: 0x4 }
  - { offset: 0x4DA71, size: 0x8, addend: 0x0, symName: '__ZN4pyo35impl_7pyclass29PyClassImplCollector$LT$T$GT$3new17h41956fec4aa451d5E', symObjAddr: 0x32F4, symBinAddr: 0x10E90, symSize: 0x4 }
  - { offset: 0x4DA8E, size: 0x8, addend: 0x0, symName: '__ZN4pyo35impl_7pyclass29PyClassImplCollector$LT$T$GT$3new17h43ab8efeb8a9e9b8E', symObjAddr: 0x32F8, symBinAddr: 0x10E94, symSize: 0x4 }
  - { offset: 0x4DAAB, size: 0x8, addend: 0x0, symName: '__ZN4pyo35impl_7pyclass29PyClassImplCollector$LT$T$GT$3new17h50c56080138cfb11E', symObjAddr: 0x32FC, symBinAddr: 0x10E98, symSize: 0x4 }
  - { offset: 0x4DAC8, size: 0x8, addend: 0x0, symName: '__ZN4pyo35impl_7pyclass29PyClassImplCollector$LT$T$GT$3new17h50efd1e1085c789eE', symObjAddr: 0x3300, symBinAddr: 0x10E9C, symSize: 0x4 }
  - { offset: 0x4DAE5, size: 0x8, addend: 0x0, symName: '__ZN4pyo35impl_7pyclass29PyClassImplCollector$LT$T$GT$3new17h57caf08c9063d20cE', symObjAddr: 0x3304, symBinAddr: 0x10EA0, symSize: 0x4 }
  - { offset: 0x4DB02, size: 0x8, addend: 0x0, symName: '__ZN4pyo35impl_7pyclass29PyClassImplCollector$LT$T$GT$3new17h58061371ec53b5acE', symObjAddr: 0x3308, symBinAddr: 0x10EA4, symSize: 0x4 }
  - { offset: 0x4DB1F, size: 0x8, addend: 0x0, symName: '__ZN4pyo35impl_7pyclass29PyClassImplCollector$LT$T$GT$3new17h5dd7a43866e7c093E', symObjAddr: 0x330C, symBinAddr: 0x10EA8, symSize: 0x4 }
  - { offset: 0x4DB3C, size: 0x8, addend: 0x0, symName: '__ZN4pyo35impl_7pyclass29PyClassImplCollector$LT$T$GT$3new17h60d677164db6852bE', symObjAddr: 0x3310, symBinAddr: 0x10EAC, symSize: 0x4 }
  - { offset: 0x4DB59, size: 0x8, addend: 0x0, symName: '__ZN4pyo35impl_7pyclass29PyClassImplCollector$LT$T$GT$3new17h68892016ef6b1f42E', symObjAddr: 0x3314, symBinAddr: 0x10EB0, symSize: 0x4 }
  - { offset: 0x4DB76, size: 0x8, addend: 0x0, symName: '__ZN4pyo35impl_7pyclass29PyClassImplCollector$LT$T$GT$3new17h6dc9a52d10fea231E', symObjAddr: 0x3318, symBinAddr: 0x10EB4, symSize: 0x4 }
  - { offset: 0x4DB93, size: 0x8, addend: 0x0, symName: '__ZN4pyo35impl_7pyclass29PyClassImplCollector$LT$T$GT$3new17h6ede76ac955cb30eE', symObjAddr: 0x331C, symBinAddr: 0x10EB8, symSize: 0x4 }
  - { offset: 0x4DBB0, size: 0x8, addend: 0x0, symName: '__ZN4pyo35impl_7pyclass29PyClassImplCollector$LT$T$GT$3new17h6fab4c0e561e695eE', symObjAddr: 0x3320, symBinAddr: 0x10EBC, symSize: 0x4 }
  - { offset: 0x4DBCD, size: 0x8, addend: 0x0, symName: '__ZN4pyo35impl_7pyclass29PyClassImplCollector$LT$T$GT$3new17h71059b1bde47c31bE', symObjAddr: 0x3324, symBinAddr: 0x10EC0, symSize: 0x4 }
  - { offset: 0x4DBEA, size: 0x8, addend: 0x0, symName: '__ZN4pyo35impl_7pyclass29PyClassImplCollector$LT$T$GT$3new17h7513670f106b5a63E', symObjAddr: 0x3328, symBinAddr: 0x10EC4, symSize: 0x4 }
  - { offset: 0x4DC07, size: 0x8, addend: 0x0, symName: '__ZN4pyo35impl_7pyclass29PyClassImplCollector$LT$T$GT$3new17h786779957dc6f848E', symObjAddr: 0x332C, symBinAddr: 0x10EC8, symSize: 0x4 }
  - { offset: 0x4DC24, size: 0x8, addend: 0x0, symName: '__ZN4pyo35impl_7pyclass29PyClassImplCollector$LT$T$GT$3new17h78ad0dda574f5a9aE', symObjAddr: 0x3330, symBinAddr: 0x10ECC, symSize: 0x4 }
  - { offset: 0x4DC41, size: 0x8, addend: 0x0, symName: '__ZN4pyo35impl_7pyclass29PyClassImplCollector$LT$T$GT$3new17h78f593b2fcec8a43E', symObjAddr: 0x3334, symBinAddr: 0x10ED0, symSize: 0x4 }
  - { offset: 0x4DC5E, size: 0x8, addend: 0x0, symName: '__ZN4pyo35impl_7pyclass29PyClassImplCollector$LT$T$GT$3new17h7a2580d17ecd2230E', symObjAddr: 0x3338, symBinAddr: 0x10ED4, symSize: 0x4 }
  - { offset: 0x4DC7B, size: 0x8, addend: 0x0, symName: '__ZN4pyo35impl_7pyclass29PyClassImplCollector$LT$T$GT$3new17h80e2588fbb12d274E', symObjAddr: 0x333C, symBinAddr: 0x10ED8, symSize: 0x4 }
  - { offset: 0x4DC98, size: 0x8, addend: 0x0, symName: '__ZN4pyo35impl_7pyclass29PyClassImplCollector$LT$T$GT$3new17h832e4359afb5e247E', symObjAddr: 0x3340, symBinAddr: 0x10EDC, symSize: 0x4 }
  - { offset: 0x4DCB5, size: 0x8, addend: 0x0, symName: '__ZN4pyo35impl_7pyclass29PyClassImplCollector$LT$T$GT$3new17h9a87b36b16f74ccfE', symObjAddr: 0x3344, symBinAddr: 0x10EE0, symSize: 0x4 }
  - { offset: 0x4DCD2, size: 0x8, addend: 0x0, symName: '__ZN4pyo35impl_7pyclass29PyClassImplCollector$LT$T$GT$3new17h9d6129dc723ece5aE', symObjAddr: 0x3348, symBinAddr: 0x10EE4, symSize: 0x4 }
  - { offset: 0x4DCEF, size: 0x8, addend: 0x0, symName: '__ZN4pyo35impl_7pyclass29PyClassImplCollector$LT$T$GT$3new17ha24eb08fe4e2af4aE', symObjAddr: 0x334C, symBinAddr: 0x10EE8, symSize: 0x4 }
  - { offset: 0x4DD0C, size: 0x8, addend: 0x0, symName: '__ZN4pyo35impl_7pyclass29PyClassImplCollector$LT$T$GT$3new17ha599ba31f3bd6c29E', symObjAddr: 0x3350, symBinAddr: 0x10EEC, symSize: 0x4 }
  - { offset: 0x4DD29, size: 0x8, addend: 0x0, symName: '__ZN4pyo35impl_7pyclass29PyClassImplCollector$LT$T$GT$3new17hb1ccdd8832426aa6E', symObjAddr: 0x3354, symBinAddr: 0x10EF0, symSize: 0x4 }
  - { offset: 0x4DD46, size: 0x8, addend: 0x0, symName: '__ZN4pyo35impl_7pyclass29PyClassImplCollector$LT$T$GT$3new17hb6b57f149364d3eaE', symObjAddr: 0x3358, symBinAddr: 0x10EF4, symSize: 0x4 }
  - { offset: 0x4DD63, size: 0x8, addend: 0x0, symName: '__ZN4pyo35impl_7pyclass29PyClassImplCollector$LT$T$GT$3new17hb8a5661c3ed23dfbE', symObjAddr: 0x335C, symBinAddr: 0x10EF8, symSize: 0x4 }
  - { offset: 0x4DD80, size: 0x8, addend: 0x0, symName: '__ZN4pyo35impl_7pyclass29PyClassImplCollector$LT$T$GT$3new17hbb28750765c22dd1E', symObjAddr: 0x3360, symBinAddr: 0x10EFC, symSize: 0x4 }
  - { offset: 0x4DD9D, size: 0x8, addend: 0x0, symName: '__ZN4pyo35impl_7pyclass29PyClassImplCollector$LT$T$GT$3new17hbeb75c6cd2e2121cE', symObjAddr: 0x3364, symBinAddr: 0x10F00, symSize: 0x4 }
  - { offset: 0x4DDBA, size: 0x8, addend: 0x0, symName: '__ZN4pyo35impl_7pyclass29PyClassImplCollector$LT$T$GT$3new17hc2d43d8432bee689E', symObjAddr: 0x3368, symBinAddr: 0x10F04, symSize: 0x4 }
  - { offset: 0x4DDD7, size: 0x8, addend: 0x0, symName: '__ZN4pyo35impl_7pyclass29PyClassImplCollector$LT$T$GT$3new17hc63c293696fd82fcE', symObjAddr: 0x336C, symBinAddr: 0x10F08, symSize: 0x4 }
  - { offset: 0x4DDF4, size: 0x8, addend: 0x0, symName: '__ZN4pyo35impl_7pyclass29PyClassImplCollector$LT$T$GT$3new17hcb3508711a55dcdeE', symObjAddr: 0x3370, symBinAddr: 0x10F0C, symSize: 0x4 }
  - { offset: 0x4DE11, size: 0x8, addend: 0x0, symName: '__ZN4pyo35impl_7pyclass29PyClassImplCollector$LT$T$GT$3new17hce21f8339a0e4958E', symObjAddr: 0x3374, symBinAddr: 0x10F10, symSize: 0x4 }
  - { offset: 0x4DE2E, size: 0x8, addend: 0x0, symName: '__ZN4pyo35impl_7pyclass29PyClassImplCollector$LT$T$GT$3new17hcfde54213fc18522E', symObjAddr: 0x3378, symBinAddr: 0x10F14, symSize: 0x4 }
  - { offset: 0x4DE4B, size: 0x8, addend: 0x0, symName: '__ZN4pyo35impl_7pyclass29PyClassImplCollector$LT$T$GT$3new17hd1ff64989841ea9aE', symObjAddr: 0x337C, symBinAddr: 0x10F18, symSize: 0x4 }
  - { offset: 0x4DE68, size: 0x8, addend: 0x0, symName: '__ZN4pyo35impl_7pyclass29PyClassImplCollector$LT$T$GT$3new17hd353c3e9b1067ef9E', symObjAddr: 0x3380, symBinAddr: 0x10F1C, symSize: 0x4 }
  - { offset: 0x4DE85, size: 0x8, addend: 0x0, symName: '__ZN4pyo35impl_7pyclass29PyClassImplCollector$LT$T$GT$3new17hd8dd2ac0e1519527E', symObjAddr: 0x3384, symBinAddr: 0x10F20, symSize: 0x4 }
  - { offset: 0x4DEA2, size: 0x8, addend: 0x0, symName: '__ZN4pyo35impl_7pyclass29PyClassImplCollector$LT$T$GT$3new17he1fc45b7bc73fb54E', symObjAddr: 0x3388, symBinAddr: 0x10F24, symSize: 0x4 }
  - { offset: 0x4DEBF, size: 0x8, addend: 0x0, symName: '__ZN4pyo35impl_7pyclass29PyClassImplCollector$LT$T$GT$3new17head2c6905e0e5f7fE', symObjAddr: 0x338C, symBinAddr: 0x10F28, symSize: 0x4 }
  - { offset: 0x4DEDC, size: 0x8, addend: 0x0, symName: '__ZN4pyo35impl_7pyclass29PyClassImplCollector$LT$T$GT$3new17hf583ab61223cb6d0E', symObjAddr: 0x3390, symBinAddr: 0x10F2C, symSize: 0x4 }
  - { offset: 0x4DEF9, size: 0x8, addend: 0x0, symName: '__ZN4pyo35impl_7pyclass29PyClassImplCollector$LT$T$GT$3new17hf5ec9753f3901f8cE', symObjAddr: 0x3394, symBinAddr: 0x10F30, symSize: 0x4 }
  - { offset: 0x4DF16, size: 0x8, addend: 0x0, symName: '__ZN4pyo35impl_7pyclass29PyClassImplCollector$LT$T$GT$3new17hf79df031172783d6E', symObjAddr: 0x3398, symBinAddr: 0x10F34, symSize: 0x4 }
  - { offset: 0x4DF33, size: 0x8, addend: 0x0, symName: '__ZN4pyo35impl_7pyclass29PyClassImplCollector$LT$T$GT$3new17hf8122dfc9423f6d7E', symObjAddr: 0x339C, symBinAddr: 0x10F38, symSize: 0x4 }
  - { offset: 0x4DF50, size: 0x8, addend: 0x0, symName: '__ZN4pyo35impl_7pyclass29PyClassImplCollector$LT$T$GT$3new17hfa96dc00d8a13b33E', symObjAddr: 0x33A0, symBinAddr: 0x10F3C, symSize: 0x4 }
  - { offset: 0x4E64A, size: 0x8, addend: 0x0, symName: __ZN4pyo35types10typeobject6PyType22from_borrowed_type_ptr17h5ee9c33252d38e1fE, symObjAddr: 0x0, symBinAddr: 0x10F40, symSize: 0x34 }
  - { offset: 0x4FD3A, size: 0x8, addend: 0x0, symName: __ZN4pyo35types10typeobject6PyType22from_borrowed_type_ptr17h5ee9c33252d38e1fE, symObjAddr: 0x0, symBinAddr: 0x10F40, symSize: 0x34 }
  - { offset: 0x4FD93, size: 0x8, addend: 0x0, symName: __ZN4core4char7methods15encode_utf8_raw17h75e1d48e621f9c29E, symObjAddr: 0x0, symBinAddr: 0x10F74, symSize: 0x110 }
  - { offset: 0x4FE01, size: 0x8, addend: 0x0, symName: __ZN4core4char7methods15encode_utf8_raw17h75e1d48e621f9c29E, symObjAddr: 0x0, symBinAddr: 0x10F74, symSize: 0x110 }
  - { offset: 0x4FF06, size: 0x8, addend: 0x0, symName: '__ZN4core4char7methods22_$LT$impl$u20$char$GT$9len_utf1617hfbfd72b77528db18E', symObjAddr: 0x110, symBinAddr: 0x11084, symSize: 0x3C }
  - { offset: 0x4FF71, size: 0x8, addend: 0x0, symName: __ZN4core4char7methods25encode_utf8_raw_unchecked17heb023b6d872641efE, symObjAddr: 0x14C, symBinAddr: 0x110C0, symSize: 0x14C }
  - { offset: 0x501DE, size: 0x8, addend: 0x0, symName: __ZN13_typst_syntax5parse17hfd7a197b9537ae10E, symObjAddr: 0x0, symBinAddr: 0x1120C, symSize: 0x44 }
  - { offset: 0x51D3B, size: 0x8, addend: 0x0, symName: __ZN13_typst_syntax5parse17hfd7a197b9537ae10E, symObjAddr: 0x0, symBinAddr: 0x1120C, symSize: 0x44 }
  - { offset: 0x51D71, size: 0x8, addend: 0x0, symName: '__ZN13_typst_syntax47_$LT$impl$u20$_typst_syntax..parse..MakeDef$GT$9_PYO3_DEF10trampoline17hd1b667115e7432b4E', symObjAddr: 0x44, symBinAddr: 0x11250, symSize: 0x50 }
  - { offset: 0x51DC9, size: 0x8, addend: 0x0, symName: __ZN13_typst_syntax18__pyfunction_parse17h5eaef9394bc5e572E, symObjAddr: 0x94, symBinAddr: 0x112A0, symSize: 0x244 }
  - { offset: 0x51F32, size: 0x8, addend: 0x0, symName: __ZN13_typst_syntax10parse_code17h850a81f0c3e79637E, symObjAddr: 0x2D8, symBinAddr: 0x114E4, symSize: 0x44 }
  - { offset: 0x51F68, size: 0x8, addend: 0x0, symName: '__ZN13_typst_syntax52_$LT$impl$u20$_typst_syntax..parse_code..MakeDef$GT$9_PYO3_DEF10trampoline17h20a6132899ab3c0bE', symObjAddr: 0x31C, symBinAddr: 0x11528, symSize: 0x50 }
  - { offset: 0x51FC0, size: 0x8, addend: 0x0, symName: __ZN13_typst_syntax23__pyfunction_parse_code17hf9a51d25cde6b38cE, symObjAddr: 0x36C, symBinAddr: 0x11578, symSize: 0x244 }
  - { offset: 0x52129, size: 0x8, addend: 0x0, symName: __ZN13_typst_syntax10parse_math17hbdca9c5597f7c4b6E, symObjAddr: 0x5B0, symBinAddr: 0x117BC, symSize: 0x44 }
  - { offset: 0x5215F, size: 0x8, addend: 0x0, symName: '__ZN13_typst_syntax52_$LT$impl$u20$_typst_syntax..parse_math..MakeDef$GT$9_PYO3_DEF10trampoline17h81ec180b3c392d79E', symObjAddr: 0x5F4, symBinAddr: 0x11800, symSize: 0x50 }
  - { offset: 0x521B7, size: 0x8, addend: 0x0, symName: __ZN13_typst_syntax23__pyfunction_parse_math17hfea84d11490b5422E, symObjAddr: 0x644, symBinAddr: 0x11850, symSize: 0x244 }
  - { offset: 0x52320, size: 0x8, addend: 0x0, symName: __ZN13_typst_syntax13_typst_syntax17hf948034703bd5ca1E, symObjAddr: 0x888, symBinAddr: 0x11A94, symSize: 0xDE4 }
  - { offset: 0x52930, size: 0x8, addend: 0x0, symName: '__ZN13_typst_syntax55_$LT$impl$u20$_typst_syntax.._typst_syntax..MakeDef$GT$8make_def15__pyo3_pymodule17h8af6727cf16d2a2bE', symObjAddr: 0x166C, symBinAddr: 0x12878, symSize: 0x38 }
  - { offset: 0x535BE, size: 0x8, addend: 0x0, symName: '__ZN13_typst_syntax3ast9cast_node28_$u7b$$u7b$closure$u7d$$u7d$17hed4f489d740daac2E', symObjAddr: 0x0, symBinAddr: 0x128B0, symSize: 0x8FC }
  - { offset: 0x54DBF, size: 0x8, addend: 0x0, symName: '__ZN13_typst_syntax3ast9cast_node28_$u7b$$u7b$closure$u7d$$u7d$17hed4f489d740daac2E', symObjAddr: 0x0, symBinAddr: 0x128B0, symSize: 0x8FC }
  - { offset: 0x556A7, size: 0x8, addend: 0x0, symName: __ZN4pyo311type_object10PyTypeInfo16is_type_of_bound17h087a66681ab40cfeE, symObjAddr: 0x0, symBinAddr: 0x131AC, symSize: 0x50 }
  - { offset: 0x55E7B, size: 0x8, addend: 0x0, symName: '__ZN50_$LT$T$u20$as$u20$core..convert..Into$LT$U$GT$$GT$4into17h93a7181264795623E', symObjAddr: 0x80, symBinAddr: 0x1322C, symSize: 0x14 }
  - { offset: 0x56BA1, size: 0x8, addend: 0x0, symName: __ZN4pyo311type_object10PyTypeInfo16is_type_of_bound17h087a66681ab40cfeE, symObjAddr: 0x0, symBinAddr: 0x131AC, symSize: 0x50 }
  - { offset: 0x56BDC, size: 0x8, addend: 0x0, symName: '__ZN52_$LT$T$u20$as$u20$pyo3..type_object..PyTypeCheck$GT$10type_check17h07a7d16bc3d2db1eE', symObjAddr: 0x94, symBinAddr: 0x13240, symSize: 0x24 }
  - { offset: 0x56C22, size: 0x8, addend: 0x0, symName: __ZN4pyo35impl_7pyclass11PyClassImpl11dict_offset17h6c9a6c94974101afE, symObjAddr: 0x50, symBinAddr: 0x131FC, symSize: 0x18 }
  - { offset: 0x56C49, size: 0x8, addend: 0x0, symName: __ZN4pyo35impl_7pyclass11PyClassImpl15weaklist_offset17h5e1e545c559dc0f9E, symObjAddr: 0x68, symBinAddr: 0x13214, symSize: 0x18 }
  - { offset: 0x5704B, size: 0x8, addend: 0x0, symName: '__ZN13_typst_syntax5error13PySyntaxError9from_rust28_$u7b$$u7b$closure$u7d$$u7d$17h884dfec180d53b15E', symObjAddr: 0xB8, symBinAddr: 0x13264, symSize: 0x30 }
  - { offset: 0x57094, size: 0x8, addend: 0x0, symName: '__ZN89_$LT$_typst_syntax..error..PySyntaxError$u20$as$u20$pyo3..impl_..pyclass..PyClassImpl$GT$3doc28_$u7b$$u7b$closure$u7d$$u7d$17hfea448eccad99919E', symObjAddr: 0xE8, symBinAddr: 0x13294, symSize: 0x58 }
  - { offset: 0x5795B, size: 0x8, addend: 0x0, symName: '__ZN65_$LT$typst_syntax..highlight..Tag$u20$as$u20$core..fmt..Debug$GT$3fmt17hc801b14224a4784fE', symObjAddr: 0x0, symBinAddr: 0x132EC, symSize: 0x258 }
  - { offset: 0x57A01, size: 0x8, addend: 0x0, symName: '__ZN65_$LT$typst_syntax..highlight..Tag$u20$as$u20$core..fmt..Debug$GT$3fmt17hc801b14224a4784fE', symObjAddr: 0x0, symBinAddr: 0x132EC, symSize: 0x258 }
  - { offset: 0x57A41, size: 0x8, addend: 0x0, symName: '__ZN69_$LT$typst_syntax..highlight..Tag$u20$as$u20$core..cmp..PartialEq$GT$2eq17h99d7067f63e5b4efE', symObjAddr: 0x258, symBinAddr: 0x13544, symSize: 0x34 }
  - { offset: 0x57C58, size: 0x8, addend: 0x0, symName: '__ZN4pyo35types4none120_$LT$impl$u20$pyo3..conversion..IntoPy$LT$pyo3..instance..Py$LT$pyo3..types..any..PyAny$GT$$GT$$u20$for$u20$$LP$$RP$$GT$7into_py17hf154c58fd86a7e62E', symObjAddr: 0x0, symBinAddr: 0x13578, symSize: 0x20 }
  - { offset: 0x58D8E, size: 0x8, addend: 0x0, symName: '__ZN4pyo35types4none120_$LT$impl$u20$pyo3..conversion..IntoPy$LT$pyo3..instance..Py$LT$pyo3..types..any..PyAny$GT$$GT$$u20$for$u20$$LP$$RP$$GT$7into_py17hf154c58fd86a7e62E', symObjAddr: 0x0, symBinAddr: 0x13578, symSize: 0x20 }
  - { offset: 0x593D6, size: 0x8, addend: 0x0, symName: __ZN4pyo35types4none6PyNone9get_bound17h52e3b913fdedf4b6E, symObjAddr: 0x20, symBinAddr: 0x13598, symSize: 0x2C }
  - { offset: 0x59428, size: 0x8, addend: 0x0, symName: '__ZN45_$LT$T$u20$as$u20$alloc..string..ToString$GT$9to_string17hffd8e9a7b13c03caE', symObjAddr: 0x0, symBinAddr: 0x135C4, symSize: 0x24 }
  - { offset: 0x59477, size: 0x8, addend: 0x0, symName: '__ZN45_$LT$T$u20$as$u20$alloc..string..ToString$GT$9to_string17hffd8e9a7b13c03caE', symObjAddr: 0x0, symBinAddr: 0x135C4, symSize: 0x24 }
  - { offset: 0x594B4, size: 0x8, addend: 0x0, symName: '__ZN49_$LT$T$u20$as$u20$alloc..string..SpecToString$GT$14spec_to_string17he7a6c4976f76c04eE', symObjAddr: 0x24, symBinAddr: 0x135E8, symSize: 0xF4 }
  - { offset: 0x5999B, size: 0x8, addend: 0x0, symName: '__ZN77_$LT$_typst_syntax..span..PySpan$u20$as$u20$pyo3..type_object..PyTypeInfo$GT$15type_object_raw17h7db366b9035240d0E', symObjAddr: 0x0, symBinAddr: 0x136DC, symSize: 0x24 }
  - { offset: 0x5C645, size: 0x8, addend: 0x0, symName: '__ZN81_$LT$_typst_syntax..span..PySpan$u20$as$u20$pyo3..impl_..pyclass..PyClassImpl$GT$10items_iter15INTRINSIC_ITEMS17h87963f276174b6daE', symObjAddr: 0x1328, symBinAddr: 0x1B0DC8, symSize: 0x0 }
  - { offset: 0x5C665, size: 0x8, addend: 0x0, symName: '__ZN81_$LT$_typst_syntax..span..PySpan$u20$as$u20$pyo3..impl_..pyclass..PyClassImpl$GT$3doc3DOC17h33c34e77f03c9f23E', symObjAddr: 0x1480, symBinAddr: 0x2A83C0, symSize: 0x0 }
  - { offset: 0x5C685, size: 0x8, addend: 0x0, symName: '__ZN81_$LT$_typst_syntax..span..PySpan$u20$as$u20$pyo3..impl_..pyclass..PyClassImpl$GT$16lazy_type_object11TYPE_OBJECT17h9aa0d37ea653b31bE', symObjAddr: 0x1498, symBinAddr: 0x2A83D8, symSize: 0x0 }
  - { offset: 0x5C693, size: 0x8, addend: 0x0, symName: '__ZN81_$LT$_typst_syntax..span..PySpan$u20$as$u20$pyo3..impl_..pyclass..PyClassImpl$GT$10items_iter17h3f8842c4105cfa47E', symObjAddr: 0xF4, symBinAddr: 0x137D0, symSize: 0x38 }
  - { offset: 0x5C6CE, size: 0x8, addend: 0x0, symName: '__ZN81_$LT$_typst_syntax..span..PySpan$u20$as$u20$pyo3..impl_..pyclass..PyClassImpl$GT$3doc17ha8ecb42cd81930b2E', symObjAddr: 0x12C, symBinAddr: 0x13808, symSize: 0x3C }
  - { offset: 0x5C705, size: 0x8, addend: 0x0, symName: '__ZN81_$LT$_typst_syntax..span..PySpan$u20$as$u20$pyo3..impl_..pyclass..PyClassImpl$GT$16lazy_type_object17h28b8a8585a703d16E', symObjAddr: 0x168, symBinAddr: 0x13844, symSize: 0xC }
  - { offset: 0x5C80B, size: 0x8, addend: 0x0, symName: '__ZN13_typst_syntax4span174_$LT$impl$u20$pyo3..impl_..pyclass..PyMethods$LT$_typst_syntax..span..PySpan$GT$$u20$for$u20$pyo3..impl_..pyclass..PyClassImplCollector$LT$_typst_syntax..span..PySpan$GT$$GT$10py_methods5ITEMS17h381337d36809c899E', symObjAddr: 0x11C0, symBinAddr: 0x290CF8, symSize: 0x0 }
  - { offset: 0x5C81D, size: 0x8, addend: 0x0, symName: '__ZN13_typst_syntax4span174_$LT$impl$u20$pyo3..impl_..pyclass..PyMethods$LT$_typst_syntax..span..PySpan$GT$$u20$for$u20$pyo3..impl_..pyclass..PyClassImplCollector$LT$_typst_syntax..span..PySpan$GT$$GT$10py_methods5ITEMS10trampoline17h195c469441729835E', symObjAddr: 0x2D0, symBinAddr: 0x139AC, symSize: 0x44 }
  - { offset: 0x5C857, size: 0x8, addend: 0x0, symName: '__ZN13_typst_syntax4span174_$LT$impl$u20$pyo3..impl_..pyclass..PyMethods$LT$_typst_syntax..span..PySpan$GT$$u20$for$u20$pyo3..impl_..pyclass..PyClassImplCollector$LT$_typst_syntax..span..PySpan$GT$$GT$10py_methods5ITEMS10trampoline17h91646f664628401eE', symObjAddr: 0x314, symBinAddr: 0x139F0, symSize: 0x3C }
  - { offset: 0x5C89D, size: 0x8, addend: 0x0, symName: '__ZN83_$LT$_typst_syntax..span..PyFileId$u20$as$u20$pyo3..impl_..pyclass..PyClassImpl$GT$10items_iter15INTRINSIC_ITEMS17hfb4e4297e75a06ffE', symObjAddr: 0x1360, symBinAddr: 0x1B0E00, symSize: 0x0 }
  - { offset: 0x5C8BD, size: 0x8, addend: 0x0, symName: '__ZN83_$LT$_typst_syntax..span..PyFileId$u20$as$u20$pyo3..impl_..pyclass..PyClassImpl$GT$3doc3DOC17h0d355dc4efc6aa55E', symObjAddr: 0x14E0, symBinAddr: 0x2A8420, symSize: 0x0 }
  - { offset: 0x5C8DD, size: 0x8, addend: 0x0, symName: '__ZN83_$LT$_typst_syntax..span..PyFileId$u20$as$u20$pyo3..impl_..pyclass..PyClassImpl$GT$16lazy_type_object11TYPE_OBJECT17ha6ffb52e9652d9edE', symObjAddr: 0x14F8, symBinAddr: 0x2A8438, symSize: 0x0 }
  - { offset: 0x5C8EB, size: 0x8, addend: 0x0, symName: '__ZN83_$LT$_typst_syntax..span..PyFileId$u20$as$u20$pyo3..impl_..pyclass..PyClassImpl$GT$10items_iter17h9843e1bc3b9c43fcE', symObjAddr: 0x964, symBinAddr: 0x14040, symSize: 0x38 }
  - { offset: 0x5C926, size: 0x8, addend: 0x0, symName: '__ZN83_$LT$_typst_syntax..span..PyFileId$u20$as$u20$pyo3..impl_..pyclass..PyClassImpl$GT$3doc17h1df43bd806677464E', symObjAddr: 0x99C, symBinAddr: 0x14078, symSize: 0x3C }
  - { offset: 0x5C95D, size: 0x8, addend: 0x0, symName: '__ZN83_$LT$_typst_syntax..span..PyFileId$u20$as$u20$pyo3..impl_..pyclass..PyClassImpl$GT$16lazy_type_object17hbd12923d95566436E', symObjAddr: 0x9D8, symBinAddr: 0x140B4, symSize: 0xC }
  - { offset: 0x5CA34, size: 0x8, addend: 0x0, symName: '__ZN13_typst_syntax4span178_$LT$impl$u20$pyo3..impl_..pyclass..PyMethods$LT$_typst_syntax..span..PyFileId$GT$$u20$for$u20$pyo3..impl_..pyclass..PyClassImplCollector$LT$_typst_syntax..span..PyFileId$GT$$GT$10py_methods5ITEMS17he6b00fc93ab69856E', symObjAddr: 0x12C0, symBinAddr: 0x290DF8, symSize: 0x0 }
  - { offset: 0x5CA46, size: 0x8, addend: 0x0, symName: '__ZN13_typst_syntax4span178_$LT$impl$u20$pyo3..impl_..pyclass..PyMethods$LT$_typst_syntax..span..PyFileId$GT$$u20$for$u20$pyo3..impl_..pyclass..PyClassImplCollector$LT$_typst_syntax..span..PyFileId$GT$$GT$10py_methods5ITEMS10trampoline17hf381e3cd25c18095E', symObjAddr: 0xB10, symBinAddr: 0x141EC, symSize: 0x3C }
  - { offset: 0x5CA7A, size: 0x8, addend: 0x0, symName: '__ZN77_$LT$_typst_syntax..span..PySpan$u20$as$u20$pyo3..type_object..PyTypeInfo$GT$15type_object_raw17h7db366b9035240d0E', symObjAddr: 0x0, symBinAddr: 0x136DC, symSize: 0x24 }
  - { offset: 0x5CAB7, size: 0x8, addend: 0x0, symName: '__ZN101_$LT$$RF$_typst_syntax..span..PySpan$u20$as$u20$pyo3..impl_..extract_argument..PyFunctionArgument$GT$7extract17h03da0e382a97357aE', symObjAddr: 0x24, symBinAddr: 0x13700, symSize: 0x2C }
  - { offset: 0x5CAF7, size: 0x8, addend: 0x0, symName: '__ZN129_$LT$_typst_syntax..span..PySpan$u20$as$u20$pyo3..conversion..IntoPy$LT$pyo3..instance..Py$LT$pyo3..types..any..PyAny$GT$$GT$$GT$7into_py17hed211da800bd25f3E', symObjAddr: 0x50, symBinAddr: 0x1372C, symSize: 0xA4 }
  - { offset: 0x5CB76, size: 0x8, addend: 0x0, symName: '__ZN66_$LT$_typst_syntax..span..PySpan$u20$as$u20$core..clone..Clone$GT$5clone17he9fa35094cd8128dE', symObjAddr: 0x174, symBinAddr: 0x13850, symSize: 0x24 }
  - { offset: 0x5CBA8, size: 0x8, addend: 0x0, symName: '__ZN79_$LT$_typst_syntax..span..PyFileId$u20$as$u20$pyo3..type_object..PyTypeInfo$GT$15type_object_raw17hff55867a69f950ccE', symObjAddr: 0x89C, symBinAddr: 0x13F78, symSize: 0x24 }
  - { offset: 0x5CBE5, size: 0x8, addend: 0x0, symName: '__ZN131_$LT$_typst_syntax..span..PyFileId$u20$as$u20$pyo3..conversion..IntoPy$LT$pyo3..instance..Py$LT$pyo3..types..any..PyAny$GT$$GT$$GT$7into_py17haf68e720a0f583f3E', symObjAddr: 0x8C0, symBinAddr: 0x13F9C, symSize: 0xA4 }
  - { offset: 0x5D0D5, size: 0x8, addend: 0x0, symName: __ZN13_typst_syntax4span6PySpan11is_detached17h5002884eb2f87d9aE, symObjAddr: 0x198, symBinAddr: 0x13874, symSize: 0x28 }
  - { offset: 0x5D0F7, size: 0x8, addend: 0x0, symName: __ZN13_typst_syntax4span6PySpan7file_id17h27f95525201cce61E, symObjAddr: 0x1C0, symBinAddr: 0x1389C, symSize: 0x2C }
  - { offset: 0x5D137, size: 0x8, addend: 0x0, symName: __ZN13_typst_syntax4span6PySpan5range17h44a373aebaed3296E, symObjAddr: 0x1EC, symBinAddr: 0x138C8, symSize: 0x40 }
  - { offset: 0x5D159, size: 0x8, addend: 0x0, symName: __ZN13_typst_syntax4span6PySpan8__repr__17h90ec39cb415ffd17E, symObjAddr: 0x22C, symBinAddr: 0x13908, symSize: 0xA4 }
  - { offset: 0x5D1B5, size: 0x8, addend: 0x0, symName: __ZN13_typst_syntax4span6PySpan28__pymethod_get_is_detached__17h185d5e80348ceeb9E, symObjAddr: 0x350, symBinAddr: 0x13A2C, symSize: 0x11C }
  - { offset: 0x5D240, size: 0x8, addend: 0x0, symName: __ZN13_typst_syntax4span6PySpan24__pymethod_get_file_id__17ha8cb7a5f57009adcE, symObjAddr: 0x46C, symBinAddr: 0x13B48, symSize: 0x11C }
  - { offset: 0x5D2CB, size: 0x8, addend: 0x0, symName: __ZN13_typst_syntax4span6PySpan18__pymethod_range__17h94674000db6abff9E, symObjAddr: 0x588, symBinAddr: 0x13C64, symSize: 0x1B4 }
  - { offset: 0x5D3B9, size: 0x8, addend: 0x0, symName: __ZN13_typst_syntax4span6PySpan21__pymethod___repr____17hd00d5bb93876addeE, symObjAddr: 0x73C, symBinAddr: 0x13E18, symSize: 0x160 }
  - { offset: 0x5D4BE, size: 0x8, addend: 0x0, symName: __ZN13_typst_syntax4span8PyFileId7package17h37d0cc40f4e93d92E, symObjAddr: 0x9E4, symBinAddr: 0x140C0, symSize: 0x30 }
  - { offset: 0x5D4E0, size: 0x8, addend: 0x0, symName: __ZN13_typst_syntax4span8PyFileId5vpath17ha82146a386a99d01E, symObjAddr: 0xA14, symBinAddr: 0x140F0, symSize: 0x48 }
  - { offset: 0x5D502, size: 0x8, addend: 0x0, symName: __ZN13_typst_syntax4span8PyFileId8__repr__17h9c58e9d54de38d1eE, symObjAddr: 0xA5C, symBinAddr: 0x14138, symSize: 0xB4 }
  - { offset: 0x5D55F, size: 0x8, addend: 0x0, symName: __ZN13_typst_syntax4span8PyFileId24__pymethod_get_package__17h72aa1fef37372e82E, symObjAddr: 0xB4C, symBinAddr: 0x14228, symSize: 0x128 }
  - { offset: 0x5D5EA, size: 0x8, addend: 0x0, symName: __ZN13_typst_syntax4span8PyFileId22__pymethod_get_vpath__17h919565d538767fd5E, symObjAddr: 0xC74, symBinAddr: 0x14350, symSize: 0x128 }
  - { offset: 0x5D675, size: 0x8, addend: 0x0, symName: __ZN13_typst_syntax4span8PyFileId21__pymethod___repr____17h6011a05bd08bcf5dE, symObjAddr: 0xD9C, symBinAddr: 0x14478, symSize: 0x160 }
  - { offset: 0x5D86A, size: 0x8, addend: 0x0, symName: __ZN4pyo311type_object10PyTypeInfo16is_type_of_bound17h20f9b3c9badc66d0E, symObjAddr: 0x0, symBinAddr: 0x145D8, symSize: 0x50 }
  - { offset: 0x5E03E, size: 0x8, addend: 0x0, symName: '__ZN50_$LT$T$u20$as$u20$core..convert..Into$LT$U$GT$$GT$4into17h1b3c393f48a8015cE', symObjAddr: 0x380, symBinAddr: 0x14958, symSize: 0x14 }
  - { offset: 0x5E07F, size: 0x8, addend: 0x0, symName: '__ZN50_$LT$T$u20$as$u20$core..convert..Into$LT$U$GT$$GT$4into17h219a4ccaecbb5a37E', symObjAddr: 0x394, symBinAddr: 0x1496C, symSize: 0x14 }
  - { offset: 0x5E0C0, size: 0x8, addend: 0x0, symName: '__ZN50_$LT$T$u20$as$u20$core..convert..Into$LT$U$GT$$GT$4into17h27004931c44e1719E', symObjAddr: 0x3A8, symBinAddr: 0x14980, symSize: 0x14 }
  - { offset: 0x5E101, size: 0x8, addend: 0x0, symName: '__ZN50_$LT$T$u20$as$u20$core..convert..Into$LT$U$GT$$GT$4into17h476d217dd5694b17E', symObjAddr: 0x3BC, symBinAddr: 0x14994, symSize: 0x14 }
  - { offset: 0x5E142, size: 0x8, addend: 0x0, symName: '__ZN50_$LT$T$u20$as$u20$core..convert..Into$LT$U$GT$$GT$4into17h4cf876af6ec25690E', symObjAddr: 0x3D0, symBinAddr: 0x149A8, symSize: 0x14 }
  - { offset: 0x5E183, size: 0x8, addend: 0x0, symName: '__ZN50_$LT$T$u20$as$u20$core..convert..Into$LT$U$GT$$GT$4into17h9a5819da311b7bd0E', symObjAddr: 0x3E4, symBinAddr: 0x149BC, symSize: 0x14 }
  - { offset: 0x5E1C4, size: 0x8, addend: 0x0, symName: '__ZN50_$LT$T$u20$as$u20$core..convert..Into$LT$U$GT$$GT$4into17hff82d059e4d3cc8fE', symObjAddr: 0x3F8, symBinAddr: 0x149D0, symSize: 0x14 }
  - { offset: 0x602BA, size: 0x8, addend: 0x0, symName: __ZN4pyo311type_object10PyTypeInfo16is_type_of_bound17h20f9b3c9badc66d0E, symObjAddr: 0x0, symBinAddr: 0x145D8, symSize: 0x50 }
  - { offset: 0x602EF, size: 0x8, addend: 0x0, symName: __ZN4pyo311type_object10PyTypeInfo16is_type_of_bound17h2687869e3cd932c2E, symObjAddr: 0x50, symBinAddr: 0x14628, symSize: 0x50 }
  - { offset: 0x60324, size: 0x8, addend: 0x0, symName: __ZN4pyo311type_object10PyTypeInfo16is_type_of_bound17h6f37852be9dc7070E, symObjAddr: 0xA0, symBinAddr: 0x14678, symSize: 0x50 }
  - { offset: 0x60359, size: 0x8, addend: 0x0, symName: __ZN4pyo311type_object10PyTypeInfo16is_type_of_bound17h75aa5be7a74d33a4E, symObjAddr: 0xF0, symBinAddr: 0x146C8, symSize: 0x50 }
  - { offset: 0x6038E, size: 0x8, addend: 0x0, symName: __ZN4pyo311type_object10PyTypeInfo16is_type_of_bound17h9bfd14102e73e076E, symObjAddr: 0x140, symBinAddr: 0x14718, symSize: 0x50 }
  - { offset: 0x603C3, size: 0x8, addend: 0x0, symName: __ZN4pyo311type_object10PyTypeInfo16is_type_of_bound17hd9f7df2c9d1b5fb0E, symObjAddr: 0x190, symBinAddr: 0x14768, symSize: 0x50 }
  - { offset: 0x603F8, size: 0x8, addend: 0x0, symName: __ZN4pyo311type_object10PyTypeInfo16is_type_of_bound17he9b192137f65d431E, symObjAddr: 0x1E0, symBinAddr: 0x147B8, symSize: 0x50 }
  - { offset: 0x60433, size: 0x8, addend: 0x0, symName: '__ZN52_$LT$T$u20$as$u20$pyo3..type_object..PyTypeCheck$GT$10type_check17h5356466e53f24c10E', symObjAddr: 0x40C, symBinAddr: 0x149E4, symSize: 0x24 }
  - { offset: 0x60468, size: 0x8, addend: 0x0, symName: '__ZN52_$LT$T$u20$as$u20$pyo3..type_object..PyTypeCheck$GT$10type_check17h7220e2ccbe441501E', symObjAddr: 0x430, symBinAddr: 0x14A08, symSize: 0x24 }
  - { offset: 0x6049D, size: 0x8, addend: 0x0, symName: '__ZN52_$LT$T$u20$as$u20$pyo3..type_object..PyTypeCheck$GT$10type_check17h832007b69d99500dE', symObjAddr: 0x454, symBinAddr: 0x14A2C, symSize: 0x24 }
  - { offset: 0x604D2, size: 0x8, addend: 0x0, symName: '__ZN52_$LT$T$u20$as$u20$pyo3..type_object..PyTypeCheck$GT$10type_check17h971f30448b187fe4E', symObjAddr: 0x478, symBinAddr: 0x14A50, symSize: 0x24 }
  - { offset: 0x60507, size: 0x8, addend: 0x0, symName: '__ZN52_$LT$T$u20$as$u20$pyo3..type_object..PyTypeCheck$GT$10type_check17hb38ca6593cd68c19E', symObjAddr: 0x49C, symBinAddr: 0x14A74, symSize: 0x24 }
  - { offset: 0x6053C, size: 0x8, addend: 0x0, symName: '__ZN52_$LT$T$u20$as$u20$pyo3..type_object..PyTypeCheck$GT$10type_check17hcc5678e0a989a8d5E', symObjAddr: 0x4C0, symBinAddr: 0x14A98, symSize: 0x24 }
  - { offset: 0x60571, size: 0x8, addend: 0x0, symName: '__ZN52_$LT$T$u20$as$u20$pyo3..type_object..PyTypeCheck$GT$10type_check17hd28b7e04a199b655E', symObjAddr: 0x4E4, symBinAddr: 0x14ABC, symSize: 0x24 }
  - { offset: 0x605B7, size: 0x8, addend: 0x0, symName: __ZN4pyo35impl_7pyclass11PyClassImpl11dict_offset17h18af13fba531f97cE, symObjAddr: 0x230, symBinAddr: 0x14808, symSize: 0x18 }
  - { offset: 0x605DE, size: 0x8, addend: 0x0, symName: __ZN4pyo35impl_7pyclass11PyClassImpl11dict_offset17h4c45e9cee25c4245E, symObjAddr: 0x248, symBinAddr: 0x14820, symSize: 0x18 }
  - { offset: 0x60605, size: 0x8, addend: 0x0, symName: __ZN4pyo35impl_7pyclass11PyClassImpl11dict_offset17h583e9f2c02f2c720E, symObjAddr: 0x260, symBinAddr: 0x14838, symSize: 0x18 }
  - { offset: 0x6062C, size: 0x8, addend: 0x0, symName: __ZN4pyo35impl_7pyclass11PyClassImpl11dict_offset17h6a3a74c31e1419d5E, symObjAddr: 0x278, symBinAddr: 0x14850, symSize: 0x18 }
  - { offset: 0x60653, size: 0x8, addend: 0x0, symName: __ZN4pyo35impl_7pyclass11PyClassImpl11dict_offset17ha4dc4297a76623b8E, symObjAddr: 0x290, symBinAddr: 0x14868, symSize: 0x18 }
  - { offset: 0x6067A, size: 0x8, addend: 0x0, symName: __ZN4pyo35impl_7pyclass11PyClassImpl11dict_offset17hdecbc082f5ffaaabE, symObjAddr: 0x2A8, symBinAddr: 0x14880, symSize: 0x18 }
  - { offset: 0x606A1, size: 0x8, addend: 0x0, symName: __ZN4pyo35impl_7pyclass11PyClassImpl11dict_offset17he09cab84b5a0b58bE, symObjAddr: 0x2C0, symBinAddr: 0x14898, symSize: 0x18 }
  - { offset: 0x606C8, size: 0x8, addend: 0x0, symName: __ZN4pyo35impl_7pyclass11PyClassImpl15weaklist_offset17h16d9dc0d00553ec3E, symObjAddr: 0x2D8, symBinAddr: 0x148B0, symSize: 0x18 }
  - { offset: 0x606EF, size: 0x8, addend: 0x0, symName: __ZN4pyo35impl_7pyclass11PyClassImpl15weaklist_offset17h53ea97683f1699e9E, symObjAddr: 0x2F0, symBinAddr: 0x148C8, symSize: 0x18 }
  - { offset: 0x60716, size: 0x8, addend: 0x0, symName: __ZN4pyo35impl_7pyclass11PyClassImpl15weaklist_offset17h691442a211127808E, symObjAddr: 0x308, symBinAddr: 0x148E0, symSize: 0x18 }
  - { offset: 0x6073D, size: 0x8, addend: 0x0, symName: __ZN4pyo35impl_7pyclass11PyClassImpl15weaklist_offset17h81070c2132d1fbfdE, symObjAddr: 0x320, symBinAddr: 0x148F8, symSize: 0x18 }
  - { offset: 0x60764, size: 0x8, addend: 0x0, symName: __ZN4pyo35impl_7pyclass11PyClassImpl15weaklist_offset17h89684a591e5d7810E, symObjAddr: 0x338, symBinAddr: 0x14910, symSize: 0x18 }
  - { offset: 0x6078B, size: 0x8, addend: 0x0, symName: __ZN4pyo35impl_7pyclass11PyClassImpl15weaklist_offset17h898de0becc1528ceE, symObjAddr: 0x350, symBinAddr: 0x14928, symSize: 0x18 }
  - { offset: 0x607B2, size: 0x8, addend: 0x0, symName: __ZN4pyo35impl_7pyclass11PyClassImpl15weaklist_offset17hee9b695c173c24d7E, symObjAddr: 0x368, symBinAddr: 0x14940, symSize: 0x18 }
  - { offset: 0x610E2, size: 0x8, addend: 0x0, symName: __ZN13_typst_syntax3ast4math7untyped17hc08e6cd719168d84E, symObjAddr: 0x508, symBinAddr: 0x14AE0, symSize: 0x44 }
  - { offset: 0x61117, size: 0x8, addend: 0x0, symName: __ZN13_typst_syntax3ast4math7untyped17hf58aa94ba8fae623E, symObjAddr: 0x54C, symBinAddr: 0x14B24, symSize: 0x48 }
  - { offset: 0x61156, size: 0x8, addend: 0x0, symName: '__ZN90_$LT$_typst_syntax..ast..math..PyEquation$u20$as$u20$pyo3..impl_..pyclass..PyClassImpl$GT$3doc28_$u7b$$u7b$closure$u7d$$u7d$17hac52b45e138f94bcE', symObjAddr: 0x594, symBinAddr: 0x14B6C, symSize: 0x58 }
  - { offset: 0x611AE, size: 0x8, addend: 0x0, symName: '__ZN13_typst_syntax3ast4math10PyEquation4body28_$u7b$$u7b$closure$u7d$$u7d$17h380f360560bed286E', symObjAddr: 0x5EC, symBinAddr: 0x14BC4, symSize: 0x30 }
  - { offset: 0x611E4, size: 0x8, addend: 0x0, symName: '__ZN13_typst_syntax3ast4math10PyEquation4body28_$u7b$$u7b$closure$u7d$$u7d$17hc6d7a4b56dcc9559E', symObjAddr: 0x61C, symBinAddr: 0x14BF4, symSize: 0x24 }
  - { offset: 0x6121F, size: 0x8, addend: 0x0, symName: '__ZN13_typst_syntax3ast4math10PyEquation5block28_$u7b$$u7b$closure$u7d$$u7d$17h8f1feea1d15f2871E', symObjAddr: 0x640, symBinAddr: 0x14C18, symSize: 0x24 }
  - { offset: 0x61268, size: 0x8, addend: 0x0, symName: '__ZN91_$LT$_typst_syntax..ast..math..PyMathIdent$u20$as$u20$pyo3..impl_..pyclass..PyClassImpl$GT$3doc28_$u7b$$u7b$closure$u7d$$u7d$17hea8194ffcfc83a98E', symObjAddr: 0x664, symBinAddr: 0x14C3C, symSize: 0x58 }
  - { offset: 0x612C0, size: 0x8, addend: 0x0, symName: '__ZN13_typst_syntax3ast4math11PyMathIdent6as_str28_$u7b$$u7b$closure$u7d$$u7d$17h51cdd5f3e70217c9E', symObjAddr: 0x6BC, symBinAddr: 0x14C94, symSize: 0x30 }
  - { offset: 0x61309, size: 0x8, addend: 0x0, symName: '__ZN92_$LT$_typst_syntax..ast..math..PyMathAttach$u20$as$u20$pyo3..impl_..pyclass..PyClassImpl$GT$3doc28_$u7b$$u7b$closure$u7d$$u7d$17h12b21dbfe1f0d2d6E', symObjAddr: 0x6EC, symBinAddr: 0x14CC4, symSize: 0x58 }
  - { offset: 0x61361, size: 0x8, addend: 0x0, symName: '__ZN13_typst_syntax3ast4math12PyMathAttach4base28_$u7b$$u7b$closure$u7d$$u7d$17ha512aee02c93e127E', symObjAddr: 0x744, symBinAddr: 0x14D1C, symSize: 0x30 }
  - { offset: 0x61397, size: 0x8, addend: 0x0, symName: '__ZN13_typst_syntax3ast4math12PyMathAttach4base28_$u7b$$u7b$closure$u7d$$u7d$17h4f295e7d81eecb9cE', symObjAddr: 0x774, symBinAddr: 0x14D4C, symSize: 0x24 }
  - { offset: 0x613D2, size: 0x8, addend: 0x0, symName: '__ZN13_typst_syntax3ast4math12PyMathAttach3top28_$u7b$$u7b$closure$u7d$$u7d$17he560cd41d7b169a5E', symObjAddr: 0x798, symBinAddr: 0x14D70, symSize: 0x24 }
  - { offset: 0x61408, size: 0x8, addend: 0x0, symName: '__ZN13_typst_syntax3ast4math12PyMathAttach3top28_$u7b$$u7b$closure$u7d$$u7d$17hd98bfa5f366628b9E', symObjAddr: 0x7BC, symBinAddr: 0x14D94, symSize: 0x28 }
  - { offset: 0x61452, size: 0x8, addend: 0x0, symName: '__ZN13_typst_syntax3ast4math12PyMathAttach6bottom28_$u7b$$u7b$closure$u7d$$u7d$17h5f1be69578d3da02E', symObjAddr: 0x7E4, symBinAddr: 0x14DBC, symSize: 0x24 }
  - { offset: 0x61488, size: 0x8, addend: 0x0, symName: '__ZN13_typst_syntax3ast4math12PyMathAttach6bottom28_$u7b$$u7b$closure$u7d$$u7d$17ha7f0afe16eb326e1E', symObjAddr: 0x808, symBinAddr: 0x14DE0, symSize: 0x28 }
  - { offset: 0x614D8, size: 0x8, addend: 0x0, symName: '__ZN95_$LT$_typst_syntax..ast..math..PyMathDelimited$u20$as$u20$pyo3..impl_..pyclass..PyClassImpl$GT$3doc28_$u7b$$u7b$closure$u7d$$u7d$17h932ed94da74713fdE', symObjAddr: 0x830, symBinAddr: 0x14E08, symSize: 0x58 }
  - { offset: 0x61530, size: 0x8, addend: 0x0, symName: '__ZN13_typst_syntax3ast4math15PyMathDelimited4open28_$u7b$$u7b$closure$u7d$$u7d$17h848bf194778d6ffeE', symObjAddr: 0x888, symBinAddr: 0x14E60, symSize: 0x38 }
  - { offset: 0x61573, size: 0x8, addend: 0x0, symName: '__ZN13_typst_syntax3ast4math15PyMathDelimited4body28_$u7b$$u7b$closure$u7d$$u7d$17h2286bf6502ae9e18E', symObjAddr: 0x8C0, symBinAddr: 0x14E98, symSize: 0x30 }
  - { offset: 0x615A9, size: 0x8, addend: 0x0, symName: '__ZN13_typst_syntax3ast4math15PyMathDelimited4body28_$u7b$$u7b$closure$u7d$$u7d$17ha3401b559e65e8fbE', symObjAddr: 0x8F0, symBinAddr: 0x14EC8, symSize: 0x24 }
  - { offset: 0x615E4, size: 0x8, addend: 0x0, symName: '__ZN13_typst_syntax3ast4math15PyMathDelimited5close28_$u7b$$u7b$closure$u7d$$u7d$17h885b35a1c14c53f2E', symObjAddr: 0x914, symBinAddr: 0x14EEC, symSize: 0x38 }
  - { offset: 0x6162D, size: 0x8, addend: 0x0, symName: '__ZN90_$LT$_typst_syntax..ast..math..PyMathFrac$u20$as$u20$pyo3..impl_..pyclass..PyClassImpl$GT$3doc28_$u7b$$u7b$closure$u7d$$u7d$17h0415d72298fc2692E', symObjAddr: 0x94C, symBinAddr: 0x14F24, symSize: 0x58 }
  - { offset: 0x61685, size: 0x8, addend: 0x0, symName: '__ZN13_typst_syntax3ast4math10PyMathFrac3num28_$u7b$$u7b$closure$u7d$$u7d$17h616be855af85bb62E', symObjAddr: 0x9A4, symBinAddr: 0x14F7C, symSize: 0x30 }
  - { offset: 0x616BB, size: 0x8, addend: 0x0, symName: '__ZN13_typst_syntax3ast4math10PyMathFrac3num28_$u7b$$u7b$closure$u7d$$u7d$17hed2b0701bc0fab66E', symObjAddr: 0x9D4, symBinAddr: 0x14FAC, symSize: 0x24 }
  - { offset: 0x616F6, size: 0x8, addend: 0x0, symName: '__ZN13_typst_syntax3ast4math10PyMathFrac5denom28_$u7b$$u7b$closure$u7d$$u7d$17h2465932c5d07b2b2E', symObjAddr: 0x9F8, symBinAddr: 0x14FD0, symSize: 0x30 }
  - { offset: 0x6172C, size: 0x8, addend: 0x0, symName: '__ZN13_typst_syntax3ast4math10PyMathFrac5denom28_$u7b$$u7b$closure$u7d$$u7d$17hc95ff47abada6c58E', symObjAddr: 0xA28, symBinAddr: 0x15000, symSize: 0x24 }
  - { offset: 0x6176D, size: 0x8, addend: 0x0, symName: '__ZN90_$LT$_typst_syntax..ast..math..PyMathRoot$u20$as$u20$pyo3..impl_..pyclass..PyClassImpl$GT$3doc28_$u7b$$u7b$closure$u7d$$u7d$17h107375f0e572cd81E', symObjAddr: 0xA4C, symBinAddr: 0x15024, symSize: 0x58 }
  - { offset: 0x617C5, size: 0x8, addend: 0x0, symName: '__ZN13_typst_syntax3ast4math10PyMathRoot5index28_$u7b$$u7b$closure$u7d$$u7d$17h7c3a332f3c4eedc8E', symObjAddr: 0xAA4, symBinAddr: 0x1507C, symSize: 0x28 }
  - { offset: 0x61808, size: 0x8, addend: 0x0, symName: '__ZN13_typst_syntax3ast4math10PyMathRoot8radicand28_$u7b$$u7b$closure$u7d$$u7d$17hcb2fc7ce2ff7ea0cE', symObjAddr: 0xACC, symBinAddr: 0x150A4, symSize: 0x30 }
  - { offset: 0x6183E, size: 0x8, addend: 0x0, symName: '__ZN13_typst_syntax3ast4math10PyMathRoot8radicand28_$u7b$$u7b$closure$u7d$$u7d$17h6688f719b3ae224dE', symObjAddr: 0xAFC, symBinAddr: 0x150D4, symSize: 0x24 }
  - { offset: 0x6187F, size: 0x8, addend: 0x0, symName: '__ZN92_$LT$_typst_syntax..ast..math..PyMathPrimes$u20$as$u20$pyo3..impl_..pyclass..PyClassImpl$GT$3doc28_$u7b$$u7b$closure$u7d$$u7d$17h786f7740a230e02dE', symObjAddr: 0xB20, symBinAddr: 0x150F8, symSize: 0x58 }
  - { offset: 0x618D7, size: 0x8, addend: 0x0, symName: '__ZN13_typst_syntax3ast4math12PyMathPrimes5count28_$u7b$$u7b$closure$u7d$$u7d$17h1efaf7fb50a614feE', symObjAddr: 0xB78, symBinAddr: 0x15150, symSize: 0x24 }
  - { offset: 0x62315, size: 0x8, addend: 0x0, symName: __ZN13_typst_syntax11linked_node12PyLinkedNode20from_root_and_offset17hc03f1dc9a2dfda39E, symObjAddr: 0x0, symBinAddr: 0x15174, symSize: 0x5B8 }
  - { offset: 0x65053, size: 0x8, addend: 0x0, symName: '__ZN94_$LT$_typst_syntax..linked_node..PyLinkedNode$u20$as$u20$pyo3..impl_..pyclass..PyClassImpl$GT$10items_iter15INTRINSIC_ITEMS17h3ad279b2ca8c1301E', symObjAddr: 0x41D0, symBinAddr: 0x1B0EA0, symSize: 0x0 }
  - { offset: 0x65073, size: 0x8, addend: 0x0, symName: '__ZN94_$LT$_typst_syntax..linked_node..PyLinkedNode$u20$as$u20$pyo3..impl_..pyclass..PyClassImpl$GT$3doc3DOC17h9d8215c908118b79E', symObjAddr: 0x4500, symBinAddr: 0x2A8480, symSize: 0x0 }
  - { offset: 0x65093, size: 0x8, addend: 0x0, symName: '__ZN94_$LT$_typst_syntax..linked_node..PyLinkedNode$u20$as$u20$pyo3..impl_..pyclass..PyClassImpl$GT$16lazy_type_object11TYPE_OBJECT17hbe9dd0f0bf0f88f4E', symObjAddr: 0x4518, symBinAddr: 0x2A8498, symSize: 0x0 }
  - { offset: 0x650A1, size: 0x8, addend: 0x0, symName: '__ZN94_$LT$_typst_syntax..linked_node..PyLinkedNode$u20$as$u20$pyo3..impl_..pyclass..PyClassImpl$GT$10items_iter17h38f06c29aeefd05fE', symObjAddr: 0x980, symBinAddr: 0x15AF4, symSize: 0x38 }
  - { offset: 0x650DC, size: 0x8, addend: 0x0, symName: '__ZN94_$LT$_typst_syntax..linked_node..PyLinkedNode$u20$as$u20$pyo3..impl_..pyclass..PyClassImpl$GT$3doc17h2cf334be10fa5e05E', symObjAddr: 0x9B8, symBinAddr: 0x15B2C, symSize: 0x3C }
  - { offset: 0x65113, size: 0x8, addend: 0x0, symName: '__ZN94_$LT$_typst_syntax..linked_node..PyLinkedNode$u20$as$u20$pyo3..impl_..pyclass..PyClassImpl$GT$16lazy_type_object17h101effaff5f232dcE', symObjAddr: 0x9F4, symBinAddr: 0x15B68, symSize: 0xC }
  - { offset: 0x653FB, size: 0x8, addend: 0x0, symName: '__ZN13_typst_syntax11linked_node200_$LT$impl$u20$pyo3..impl_..pyclass..PyMethods$LT$_typst_syntax..linked_node..PyLinkedNode$GT$$u20$for$u20$pyo3..impl_..pyclass..PyClassImplCollector$LT$_typst_syntax..linked_node..PyLinkedNode$GT$$GT$10py_methods5ITEMS17hb70ec8997db3563dE', symObjAddr: 0x4168, symBinAddr: 0x291280, symSize: 0x0 }
  - { offset: 0x6540D, size: 0x8, addend: 0x0, symName: '__ZN13_typst_syntax11linked_node200_$LT$impl$u20$pyo3..impl_..pyclass..PyMethods$LT$_typst_syntax..linked_node..PyLinkedNode$GT$$u20$for$u20$pyo3..impl_..pyclass..PyClassImplCollector$LT$_typst_syntax..linked_node..PyLinkedNode$GT$$GT$10py_methods5ITEMS10trampoline17h02e4744d6d248326E', symObjAddr: 0x19D8, symBinAddr: 0x16B4C, symSize: 0x44 }
  - { offset: 0x65447, size: 0x8, addend: 0x0, symName: '__ZN13_typst_syntax11linked_node200_$LT$impl$u20$pyo3..impl_..pyclass..PyMethods$LT$_typst_syntax..linked_node..PyLinkedNode$GT$$u20$for$u20$pyo3..impl_..pyclass..PyClassImplCollector$LT$_typst_syntax..linked_node..PyLinkedNode$GT$$GT$10py_methods5ITEMS10trampoline17h9750bcb43ff7ff4bE', symObjAddr: 0x1A1C, symBinAddr: 0x16B90, symSize: 0x44 }
  - { offset: 0x65481, size: 0x8, addend: 0x0, symName: '__ZN13_typst_syntax11linked_node200_$LT$impl$u20$pyo3..impl_..pyclass..PyMethods$LT$_typst_syntax..linked_node..PyLinkedNode$GT$$u20$for$u20$pyo3..impl_..pyclass..PyClassImplCollector$LT$_typst_syntax..linked_node..PyLinkedNode$GT$$GT$10py_methods5ITEMS10trampoline17h7157f5eee2de761eE', symObjAddr: 0x1A60, symBinAddr: 0x16BD4, symSize: 0x44 }
  - { offset: 0x654BB, size: 0x8, addend: 0x0, symName: '__ZN13_typst_syntax11linked_node200_$LT$impl$u20$pyo3..impl_..pyclass..PyMethods$LT$_typst_syntax..linked_node..PyLinkedNode$GT$$u20$for$u20$pyo3..impl_..pyclass..PyClassImplCollector$LT$_typst_syntax..linked_node..PyLinkedNode$GT$$GT$10py_methods5ITEMS10trampoline17h587b57e370dee625E', symObjAddr: 0x1AA4, symBinAddr: 0x16C18, symSize: 0x44 }
  - { offset: 0x654F5, size: 0x8, addend: 0x0, symName: '__ZN13_typst_syntax11linked_node200_$LT$impl$u20$pyo3..impl_..pyclass..PyMethods$LT$_typst_syntax..linked_node..PyLinkedNode$GT$$u20$for$u20$pyo3..impl_..pyclass..PyClassImplCollector$LT$_typst_syntax..linked_node..PyLinkedNode$GT$$GT$10py_methods5ITEMS10trampoline17h35635b4ef8b4e3b0E', symObjAddr: 0x1AE8, symBinAddr: 0x16C5C, symSize: 0x44 }
  - { offset: 0x6552F, size: 0x8, addend: 0x0, symName: '__ZN13_typst_syntax11linked_node200_$LT$impl$u20$pyo3..impl_..pyclass..PyMethods$LT$_typst_syntax..linked_node..PyLinkedNode$GT$$u20$for$u20$pyo3..impl_..pyclass..PyClassImplCollector$LT$_typst_syntax..linked_node..PyLinkedNode$GT$$GT$10py_methods5ITEMS10trampoline17h8349600a8730d42cE', symObjAddr: 0x1B2C, symBinAddr: 0x16CA0, symSize: 0x44 }
  - { offset: 0x65569, size: 0x8, addend: 0x0, symName: '__ZN13_typst_syntax11linked_node200_$LT$impl$u20$pyo3..impl_..pyclass..PyMethods$LT$_typst_syntax..linked_node..PyLinkedNode$GT$$u20$for$u20$pyo3..impl_..pyclass..PyClassImplCollector$LT$_typst_syntax..linked_node..PyLinkedNode$GT$$GT$10py_methods5ITEMS10trampoline17hbdd3d8395fe5c8feE', symObjAddr: 0x1B70, symBinAddr: 0x16CE4, symSize: 0x44 }
  - { offset: 0x655A3, size: 0x8, addend: 0x0, symName: '__ZN13_typst_syntax11linked_node200_$LT$impl$u20$pyo3..impl_..pyclass..PyMethods$LT$_typst_syntax..linked_node..PyLinkedNode$GT$$u20$for$u20$pyo3..impl_..pyclass..PyClassImplCollector$LT$_typst_syntax..linked_node..PyLinkedNode$GT$$GT$10py_methods5ITEMS10trampoline17h98525117cb5569faE', symObjAddr: 0x1BB4, symBinAddr: 0x16D28, symSize: 0x44 }
  - { offset: 0x655DD, size: 0x8, addend: 0x0, symName: '__ZN13_typst_syntax11linked_node200_$LT$impl$u20$pyo3..impl_..pyclass..PyMethods$LT$_typst_syntax..linked_node..PyLinkedNode$GT$$u20$for$u20$pyo3..impl_..pyclass..PyClassImplCollector$LT$_typst_syntax..linked_node..PyLinkedNode$GT$$GT$10py_methods5ITEMS10trampoline17ha6660e74e089ec50E', symObjAddr: 0x1BF8, symBinAddr: 0x16D6C, symSize: 0x44 }
  - { offset: 0x65617, size: 0x8, addend: 0x0, symName: '__ZN13_typst_syntax11linked_node200_$LT$impl$u20$pyo3..impl_..pyclass..PyMethods$LT$_typst_syntax..linked_node..PyLinkedNode$GT$$u20$for$u20$pyo3..impl_..pyclass..PyClassImplCollector$LT$_typst_syntax..linked_node..PyLinkedNode$GT$$GT$10py_methods5ITEMS10trampoline17h46b127e1720df5bcE', symObjAddr: 0x1C3C, symBinAddr: 0x16DB0, symSize: 0x44 }
  - { offset: 0x65651, size: 0x8, addend: 0x0, symName: '__ZN13_typst_syntax11linked_node200_$LT$impl$u20$pyo3..impl_..pyclass..PyMethods$LT$_typst_syntax..linked_node..PyLinkedNode$GT$$u20$for$u20$pyo3..impl_..pyclass..PyClassImplCollector$LT$_typst_syntax..linked_node..PyLinkedNode$GT$$GT$10py_methods5ITEMS10trampoline17h54732bb39595eb41E', symObjAddr: 0x1C80, symBinAddr: 0x16DF4, symSize: 0x44 }
  - { offset: 0x6568B, size: 0x8, addend: 0x0, symName: '__ZN13_typst_syntax11linked_node200_$LT$impl$u20$pyo3..impl_..pyclass..PyMethods$LT$_typst_syntax..linked_node..PyLinkedNode$GT$$u20$for$u20$pyo3..impl_..pyclass..PyClassImplCollector$LT$_typst_syntax..linked_node..PyLinkedNode$GT$$GT$10py_methods5ITEMS10trampoline17h2264d99e4453c193E', symObjAddr: 0x1CC4, symBinAddr: 0x16E38, symSize: 0x44 }
  - { offset: 0x656C5, size: 0x8, addend: 0x0, symName: '__ZN13_typst_syntax11linked_node200_$LT$impl$u20$pyo3..impl_..pyclass..PyMethods$LT$_typst_syntax..linked_node..PyLinkedNode$GT$$u20$for$u20$pyo3..impl_..pyclass..PyClassImplCollector$LT$_typst_syntax..linked_node..PyLinkedNode$GT$$GT$10py_methods5ITEMS10trampoline17h2881293b2948b7b0E', symObjAddr: 0x1D08, symBinAddr: 0x16E7C, symSize: 0x3C }
  - { offset: 0x656F9, size: 0x8, addend: 0x0, symName: '__ZN90_$LT$_typst_syntax..linked_node..PyLinkedNode$u20$as$u20$pyo3..type_object..PyTypeInfo$GT$15type_object_raw17hc6d56aa0f8138456E', symObjAddr: 0x890, symBinAddr: 0x15A04, symSize: 0x24 }
  - { offset: 0x65736, size: 0x8, addend: 0x0, symName: '__ZN114_$LT$$RF$_typst_syntax..linked_node..PyLinkedNode$u20$as$u20$pyo3..impl_..extract_argument..PyFunctionArgument$GT$7extract17h3157157684d418a2E', symObjAddr: 0x8B4, symBinAddr: 0x15A28, symSize: 0x2C }
  - { offset: 0x65776, size: 0x8, addend: 0x0, symName: '__ZN142_$LT$_typst_syntax..linked_node..PyLinkedNode$u20$as$u20$pyo3..conversion..IntoPy$LT$pyo3..instance..Py$LT$pyo3..types..any..PyAny$GT$$GT$$GT$7into_py17h159afe7d56a43ce0E', symObjAddr: 0x8E0, symBinAddr: 0x15A54, symSize: 0xA0 }
  - { offset: 0x664E4, size: 0x8, addend: 0x0, symName: __ZN13_typst_syntax11linked_node12PyLinkedNode20from_root_and_offset17hc03f1dc9a2dfda39E, symObjAddr: 0x0, symBinAddr: 0x15174, symSize: 0x5B8 }
  - { offset: 0x66668, size: 0x8, addend: 0x0, symName: __ZN13_typst_syntax11linked_node12PyLinkedNode16navigate_to_node17hc8bc6d828be9a546E, symObjAddr: 0x5B8, symBinAddr: 0x1572C, symSize: 0x2D8 }
  - { offset: 0x6675F, size: 0x8, addend: 0x0, symName: __ZN13_typst_syntax11linked_node12PyLinkedNode3get17h173c94f6539614d0E, symObjAddr: 0xA00, symBinAddr: 0x15B74, symSize: 0xE0 }
  - { offset: 0x66797, size: 0x8, addend: 0x0, symName: __ZN13_typst_syntax11linked_node12PyLinkedNode6offset17hbef8c395502f85faE, symObjAddr: 0xAE0, symBinAddr: 0x15C54, symSize: 0x3C }
  - { offset: 0x667D7, size: 0x8, addend: 0x0, symName: __ZN13_typst_syntax11linked_node12PyLinkedNode5range17hb4dafe348295e32bE, symObjAddr: 0xB1C, symBinAddr: 0x15C90, symSize: 0x4C }
  - { offset: 0x667F9, size: 0x8, addend: 0x0, symName: __ZN13_typst_syntax11linked_node12PyLinkedNode5index17h67ac025fac96f2a6E, symObjAddr: 0xB68, symBinAddr: 0x15CDC, symSize: 0x3C }
  - { offset: 0x6681B, size: 0x8, addend: 0x0, symName: __ZN13_typst_syntax11linked_node12PyLinkedNode8children17h70a0c879cdc55d9eE, symObjAddr: 0xBA4, symBinAddr: 0x15D18, symSize: 0xF8 }
  - { offset: 0x66870, size: 0x8, addend: 0x0, symName: __ZN13_typst_syntax11linked_node12PyLinkedNode6parent17h3ef01b79a3113602E, symObjAddr: 0xC9C, symBinAddr: 0x15E10, symSize: 0xE8 }
  - { offset: 0x668A7, size: 0x8, addend: 0x0, symName: __ZN13_typst_syntax11linked_node12PyLinkedNode12prev_sibling17h465a55012fb846faE, symObjAddr: 0xD84, symBinAddr: 0x15EF8, symSize: 0x1E4 }
  - { offset: 0x6692F, size: 0x8, addend: 0x0, symName: __ZN13_typst_syntax11linked_node12PyLinkedNode12next_sibling17h08353011d017c96fE, symObjAddr: 0xF68, symBinAddr: 0x160DC, symSize: 0x2EC }
  - { offset: 0x669EA, size: 0x8, addend: 0x0, symName: __ZN13_typst_syntax11linked_node12PyLinkedNode9prev_leaf17h7276c8163f48fdb0E, symObjAddr: 0x1254, symBinAddr: 0x163C8, symSize: 0x194 }
  - { offset: 0x66ACA, size: 0x8, addend: 0x0, symName: __ZN13_typst_syntax11linked_node12PyLinkedNode9next_leaf17h9574da0d2eccbe74E, symObjAddr: 0x13E8, symBinAddr: 0x1655C, symSize: 0x194 }
  - { offset: 0x66BAA, size: 0x8, addend: 0x0, symName: __ZN13_typst_syntax11linked_node12PyLinkedNode13leftmost_leaf17h98df99c19d0071d2E, symObjAddr: 0x157C, symBinAddr: 0x166F0, symSize: 0x194 }
  - { offset: 0x66C8A, size: 0x8, addend: 0x0, symName: __ZN13_typst_syntax11linked_node12PyLinkedNode14rightmost_leaf17h845d95a968782aefE, symObjAddr: 0x1710, symBinAddr: 0x16884, symSize: 0x194 }
  - { offset: 0x66D6A, size: 0x8, addend: 0x0, symName: __ZN13_typst_syntax11linked_node12PyLinkedNode8__repr__17h627ee43ffdbeadefE, symObjAddr: 0x18A4, symBinAddr: 0x16A18, symSize: 0x134 }
  - { offset: 0x66DFB, size: 0x8, addend: 0x0, symName: __ZN13_typst_syntax11linked_node12PyLinkedNode16__pymethod_get__17h0c01f56243abc842E, symObjAddr: 0x1D44, symBinAddr: 0x16EB8, symSize: 0x204 }
  - { offset: 0x66ED5, size: 0x8, addend: 0x0, symName: __ZN13_typst_syntax11linked_node12PyLinkedNode19__pymethod_offset__17h604779ce08ede476E, symObjAddr: 0x1F48, symBinAddr: 0x170BC, symSize: 0x1B4 }
  - { offset: 0x66FBF, size: 0x8, addend: 0x0, symName: __ZN13_typst_syntax11linked_node12PyLinkedNode18__pymethod_range__17h3548afb37dcd1711E, symObjAddr: 0x20FC, symBinAddr: 0x17270, symSize: 0x1C8 }
  - { offset: 0x670AD, size: 0x8, addend: 0x0, symName: __ZN13_typst_syntax11linked_node12PyLinkedNode18__pymethod_index__17h47fc514d6125c633E, symObjAddr: 0x22C4, symBinAddr: 0x17438, symSize: 0x1B4 }
  - { offset: 0x67197, size: 0x8, addend: 0x0, symName: __ZN13_typst_syntax11linked_node12PyLinkedNode21__pymethod_children__17h1f56b6c818b1c676E, symObjAddr: 0x2478, symBinAddr: 0x175EC, symSize: 0x1F4 }
  - { offset: 0x67270, size: 0x8, addend: 0x0, symName: __ZN13_typst_syntax11linked_node12PyLinkedNode19__pymethod_parent__17hacf5956797a578e3E, symObjAddr: 0x266C, symBinAddr: 0x177E0, symSize: 0x1FC }
  - { offset: 0x67349, size: 0x8, addend: 0x0, symName: __ZN13_typst_syntax11linked_node12PyLinkedNode25__pymethod_prev_sibling__17had7aa006dc697a64E, symObjAddr: 0x2868, symBinAddr: 0x179DC, symSize: 0x1FC }
  - { offset: 0x67422, size: 0x8, addend: 0x0, symName: __ZN13_typst_syntax11linked_node12PyLinkedNode25__pymethod_next_sibling__17h1c8ce09799f12242E, symObjAddr: 0x2A64, symBinAddr: 0x17BD8, symSize: 0x1FC }
  - { offset: 0x674FB, size: 0x8, addend: 0x0, symName: __ZN13_typst_syntax11linked_node12PyLinkedNode22__pymethod_prev_leaf__17h73c4ebb73d3caad5E, symObjAddr: 0x2C60, symBinAddr: 0x17DD4, symSize: 0x1FC }
  - { offset: 0x675D4, size: 0x8, addend: 0x0, symName: __ZN13_typst_syntax11linked_node12PyLinkedNode22__pymethod_next_leaf__17h9206007da5707812E, symObjAddr: 0x2E5C, symBinAddr: 0x17FD0, symSize: 0x1FC }
  - { offset: 0x676AD, size: 0x8, addend: 0x0, symName: __ZN13_typst_syntax11linked_node12PyLinkedNode26__pymethod_leftmost_leaf__17hc26e80b24ffdf015E, symObjAddr: 0x3058, symBinAddr: 0x181CC, symSize: 0x1FC }
  - { offset: 0x67786, size: 0x8, addend: 0x0, symName: __ZN13_typst_syntax11linked_node12PyLinkedNode27__pymethod_rightmost_leaf__17h5966db56c5979308E, symObjAddr: 0x3254, symBinAddr: 0x183C8, symSize: 0x1FC }
  - { offset: 0x6785F, size: 0x8, addend: 0x0, symName: __ZN13_typst_syntax11linked_node12PyLinkedNode21__pymethod___repr____17hdcab590ac372737cE, symObjAddr: 0x3450, symBinAddr: 0x185C4, symSize: 0x160 }
  - { offset: 0x67AF5, size: 0x8, addend: 0x0, symName: '__ZN63_$LT$typst_syntax..node..Repr$u20$as$u20$core..clone..Clone$GT$5clone17h7528093a1cde6734E', symObjAddr: 0x0, symBinAddr: 0x18724, symSize: 0xDC }
  - { offset: 0x67E4D, size: 0x8, addend: 0x0, symName: '__ZN63_$LT$typst_syntax..node..Repr$u20$as$u20$core..clone..Clone$GT$5clone17h7528093a1cde6734E', symObjAddr: 0x0, symBinAddr: 0x18724, symSize: 0xDC }
  - { offset: 0x67ED6, size: 0x8, addend: 0x0, symName: '__ZN67_$LT$typst_syntax..node..LeafNode$u20$as$u20$core..clone..Clone$GT$5clone17h3e0600b15a433a02E', symObjAddr: 0xDC, symBinAddr: 0x18800, symSize: 0x98 }
  - { offset: 0x67F0A, size: 0x8, addend: 0x0, symName: '__ZN69_$LT$typst_syntax..node..SyntaxNode$u20$as$u20$core..clone..Clone$GT$5clone17he5deeb56a7c2670dE', symObjAddr: 0x174, symBinAddr: 0x18898, symSize: 0x40 }
  - { offset: 0x685FE, size: 0x8, addend: 0x0, symName: '__ZN104_$LT$T$u20$as$u20$pyo3..callback..IntoPyCallbackOutput$LT$$BP$mut$u20$pyo3_ffi..object..PyObject$GT$$GT$7convert17hb30614049b8f3562E', symObjAddr: 0x0, symBinAddr: 0x188D8, symSize: 0x34 }
  - { offset: 0x68DCB, size: 0x8, addend: 0x0, symName: '__ZN50_$LT$T$u20$as$u20$core..convert..Into$LT$U$GT$$GT$4into17h09b5c426fd53abd9E', symObjAddr: 0x134, symBinAddr: 0x18A0C, symSize: 0x20 }
  - { offset: 0x68E0B, size: 0x8, addend: 0x0, symName: '__ZN50_$LT$T$u20$as$u20$core..convert..Into$LT$U$GT$$GT$4into17hc83fb5685ecfbb9bE', symObjAddr: 0x154, symBinAddr: 0x18A2C, symSize: 0x20 }
  - { offset: 0x69C20, size: 0x8, addend: 0x0, symName: '__ZN104_$LT$T$u20$as$u20$pyo3..callback..IntoPyCallbackOutput$LT$$BP$mut$u20$pyo3_ffi..object..PyObject$GT$$GT$7convert17hb30614049b8f3562E', symObjAddr: 0x0, symBinAddr: 0x188D8, symSize: 0x34 }
  - { offset: 0x69C7A, size: 0x8, addend: 0x0, symName: __ZN4pyo311type_object10PyTypeInfo16is_type_of_bound17hd1ce85905ab35d2aE, symObjAddr: 0x34, symBinAddr: 0x1890C, symSize: 0x50 }
  - { offset: 0x69CAF, size: 0x8, addend: 0x0, symName: __ZN4pyo311type_object10PyTypeInfo16is_type_of_bound17hfb660eb1937f1ccaE, symObjAddr: 0x84, symBinAddr: 0x1895C, symSize: 0x50 }
  - { offset: 0x69CEA, size: 0x8, addend: 0x0, symName: '__ZN52_$LT$T$u20$as$u20$pyo3..type_object..PyTypeCheck$GT$10type_check17h750917f9e09d8673E', symObjAddr: 0x174, symBinAddr: 0x18A4C, symSize: 0x24 }
  - { offset: 0x69D1F, size: 0x8, addend: 0x0, symName: '__ZN52_$LT$T$u20$as$u20$pyo3..type_object..PyTypeCheck$GT$10type_check17ha745d32a257b6406E', symObjAddr: 0x198, symBinAddr: 0x18A70, symSize: 0x24 }
  - { offset: 0x69D65, size: 0x8, addend: 0x0, symName: __ZN4pyo35impl_7pyclass11PyClassImpl11dict_offset17h860a682e14586c3cE, symObjAddr: 0xD4, symBinAddr: 0x189AC, symSize: 0x18 }
  - { offset: 0x69D8C, size: 0x8, addend: 0x0, symName: __ZN4pyo35impl_7pyclass11PyClassImpl11dict_offset17h8cb020abbbc6e038E, symObjAddr: 0xEC, symBinAddr: 0x189C4, symSize: 0x18 }
  - { offset: 0x69DB3, size: 0x8, addend: 0x0, symName: __ZN4pyo35impl_7pyclass11PyClassImpl15weaklist_offset17h0bfea649c9835dcfE, symObjAddr: 0x104, symBinAddr: 0x189DC, symSize: 0x18 }
  - { offset: 0x69DDA, size: 0x8, addend: 0x0, symName: __ZN4pyo35impl_7pyclass11PyClassImpl15weaklist_offset17h54b86cb322f9db40E, symObjAddr: 0x11C, symBinAddr: 0x189F4, symSize: 0x18 }
  - { offset: 0x6A2B6, size: 0x8, addend: 0x0, symName: '__ZN81_$LT$_typst_syntax..span..PySpan$u20$as$u20$pyo3..impl_..pyclass..PyClassImpl$GT$3doc28_$u7b$$u7b$closure$u7d$$u7d$17he315e7c9de76a9d0E', symObjAddr: 0x1BC, symBinAddr: 0x18A94, symSize: 0x58 }
  - { offset: 0x6A30E, size: 0x8, addend: 0x0, symName: '__ZN13_typst_syntax4span6PySpan7file_id28_$u7b$$u7b$closure$u7d$$u7d$17hba393d2bd119913cE', symObjAddr: 0x214, symBinAddr: 0x18AEC, symSize: 0x10 }
  - { offset: 0x6A351, size: 0x8, addend: 0x0, symName: '__ZN13_typst_syntax4span6PySpan5range28_$u7b$$u7b$closure$u7d$$u7d$17ha999a63dd7de85eaE', symObjAddr: 0x224, symBinAddr: 0x18AFC, symSize: 0x14 }
  - { offset: 0x6A39A, size: 0x8, addend: 0x0, symName: '__ZN83_$LT$_typst_syntax..span..PyFileId$u20$as$u20$pyo3..impl_..pyclass..PyClassImpl$GT$3doc28_$u7b$$u7b$closure$u7d$$u7d$17h1670b776db0b6094E', symObjAddr: 0x238, symBinAddr: 0x18B10, symSize: 0x58 }
  - { offset: 0x6A3F2, size: 0x8, addend: 0x0, symName: '__ZN13_typst_syntax4span8PyFileId7package28_$u7b$$u7b$closure$u7d$$u7d$17h5d331fa2277aed2dE', symObjAddr: 0x290, symBinAddr: 0x18B68, symSize: 0x24 }
  - { offset: 0x6ACB9, size: 0x8, addend: 0x0, symName: '__ZN50_$LT$T$u20$as$u20$core..convert..Into$LT$U$GT$$GT$4into17h0bc303f0094028a2E', symObjAddr: 0x0, symBinAddr: 0x18B8C, symSize: 0x24 }
  - { offset: 0x6B472, size: 0x8, addend: 0x0, symName: '__ZN50_$LT$T$u20$as$u20$core..convert..Into$LT$U$GT$$GT$4into17h0bc303f0094028a2E', symObjAddr: 0x0, symBinAddr: 0x18B8C, symSize: 0x24 }
  - { offset: 0x6C42A, size: 0x8, addend: 0x0, symName: __ZN3std5panic12catch_unwind17h17bc83f22e3c0a2dE, symObjAddr: 0x0, symBinAddr: 0x18BB0, symSize: 0xD4 }
  - { offset: 0x6E09C, size: 0x8, addend: 0x0, symName: __ZN3std5panic12catch_unwind17h17bc83f22e3c0a2dE, symObjAddr: 0x0, symBinAddr: 0x18BB0, symSize: 0xD4 }
  - { offset: 0x6E145, size: 0x8, addend: 0x0, symName: __ZN3std5panic12catch_unwind17h3717d2ed0222c46bE, symObjAddr: 0xD4, symBinAddr: 0x18C84, symSize: 0xD4 }
  - { offset: 0x6E1EE, size: 0x8, addend: 0x0, symName: __ZN3std5panic12catch_unwind17h3ce9d49e195fb34fE, symObjAddr: 0x1A8, symBinAddr: 0x18D58, symSize: 0xD8 }
  - { offset: 0x6E2B7, size: 0x8, addend: 0x0, symName: __ZN3std5panic12catch_unwind17h465fd78ea512a4dbE, symObjAddr: 0x280, symBinAddr: 0x18E30, symSize: 0xD4 }
  - { offset: 0x6E360, size: 0x8, addend: 0x0, symName: __ZN3std5panic12catch_unwind17h95365a28783ecbb4E, symObjAddr: 0x354, symBinAddr: 0x18F04, symSize: 0xC4 }
  - { offset: 0x6E409, size: 0x8, addend: 0x0, symName: __ZN3std5panic12catch_unwind17hc3c8ca422f84834cE, symObjAddr: 0x418, symBinAddr: 0x18FC8, symSize: 0xD4 }
  - { offset: 0x6E4B2, size: 0x8, addend: 0x0, symName: __ZN3std5panic12catch_unwind17he30b65e3aecbe051E, symObjAddr: 0x4EC, symBinAddr: 0x1909C, symSize: 0xD4 }
  - { offset: 0x6E55B, size: 0x8, addend: 0x0, symName: __ZN3std5panic12catch_unwind17heffe1f7c86fae8ceE, symObjAddr: 0x5C0, symBinAddr: 0x19170, symSize: 0xF0 }
  - { offset: 0x6F2D5, size: 0x8, addend: 0x0, symName: '__ZN115_$LT$core..iter..adapters..filter_map..FilterMap$LT$I$C$F$GT$$u20$as$u20$core..iter..traits..iterator..Iterator$GT$4next17h0af3aefc174e855fE', symObjAddr: 0x0, symBinAddr: 0x192B4, symSize: 0x2C }
  - { offset: 0x7060C, size: 0x8, addend: 0x0, symName: '__ZN115_$LT$core..iter..adapters..filter_map..FilterMap$LT$I$C$F$GT$$u20$as$u20$core..iter..traits..iterator..Iterator$GT$4next17h0af3aefc174e855fE', symObjAddr: 0x0, symBinAddr: 0x192B4, symSize: 0x2C }
  - { offset: 0x70653, size: 0x8, addend: 0x0, symName: '__ZN115_$LT$core..iter..adapters..filter_map..FilterMap$LT$I$C$F$GT$$u20$as$u20$core..iter..traits..iterator..Iterator$GT$4next17hc28d140b6e657c20E', symObjAddr: 0x2C, symBinAddr: 0x192E0, symSize: 0x2C }
  - { offset: 0x7069A, size: 0x8, addend: 0x0, symName: '__ZN115_$LT$core..iter..adapters..filter_map..FilterMap$LT$I$C$F$GT$$u20$as$u20$core..iter..traits..iterator..Iterator$GT$4next17hd7399c78c489736eE', symObjAddr: 0x58, symBinAddr: 0x1930C, symSize: 0x2C }
  - { offset: 0x706E1, size: 0x8, addend: 0x0, symName: '__ZN115_$LT$core..iter..adapters..filter_map..FilterMap$LT$I$C$F$GT$$u20$as$u20$core..iter..traits..iterator..Iterator$GT$4next17hf78569e01443ee0dE', symObjAddr: 0x84, symBinAddr: 0x19338, symSize: 0x2C }
  - { offset: 0x70728, size: 0x8, addend: 0x0, symName: '__ZN115_$LT$core..iter..adapters..filter_map..FilterMap$LT$I$C$F$GT$$u20$as$u20$core..iter..traits..iterator..Iterator$GT$9size_hint17h56a9e083548bbdd9E', symObjAddr: 0xB0, symBinAddr: 0x19364, symSize: 0x4C }
  - { offset: 0x7078C, size: 0x8, addend: 0x0, symName: '__ZN115_$LT$core..iter..adapters..filter_map..FilterMap$LT$I$C$F$GT$$u20$as$u20$core..iter..traits..iterator..Iterator$GT$9size_hint17h80cf67e36974db26E', symObjAddr: 0xFC, symBinAddr: 0x193B0, symSize: 0x4C }
  - { offset: 0x707F0, size: 0x8, addend: 0x0, symName: '__ZN115_$LT$core..iter..adapters..filter_map..FilterMap$LT$I$C$F$GT$$u20$as$u20$core..iter..traits..iterator..Iterator$GT$9size_hint17hbef192da20cbe811E', symObjAddr: 0x148, symBinAddr: 0x193FC, symSize: 0x4C }
  - { offset: 0x70854, size: 0x8, addend: 0x0, symName: '__ZN115_$LT$core..iter..adapters..filter_map..FilterMap$LT$I$C$F$GT$$u20$as$u20$core..iter..traits..iterator..Iterator$GT$9size_hint17hc2c0a67e03884ebcE', symObjAddr: 0x194, symBinAddr: 0x19448, symSize: 0x4C }
  - { offset: 0x70ACD, size: 0x8, addend: 0x0, symName: __ZN4core4iter6traits8iterator8Iterator3map17h59469e847a320618E, symObjAddr: 0x1E0, symBinAddr: 0x19494, symSize: 0x1C }
  - { offset: 0x70B25, size: 0x8, addend: 0x0, symName: __ZN4core4iter6traits8iterator8Iterator3map17h6531365e35d5618cE, symObjAddr: 0x1FC, symBinAddr: 0x194B0, symSize: 0x20 }
  - { offset: 0x70B92, size: 0x8, addend: 0x0, symName: __ZN4core4iter6traits8iterator8Iterator3map17h9557bc62659ea873E, symObjAddr: 0x21C, symBinAddr: 0x194D0, symSize: 0x1C }
  - { offset: 0x70BEA, size: 0x8, addend: 0x0, symName: __ZN4core4iter6traits8iterator8Iterator3map17ha99e65ff38b463a8E, symObjAddr: 0x238, symBinAddr: 0x194EC, symSize: 0x1C }
  - { offset: 0x715C7, size: 0x8, addend: 0x0, symName: __ZN4pyo36marker6Python14NotImplemented17hed32565d50a4ef9aE, symObjAddr: 0x0, symBinAddr: 0x19508, symSize: 0x20 }
  - { offset: 0x72C66, size: 0x8, addend: 0x0, symName: __ZN4pyo36marker6Python14NotImplemented17hed32565d50a4ef9aE, symObjAddr: 0x0, symBinAddr: 0x19508, symSize: 0x20 }
  - { offset: 0x72C95, size: 0x8, addend: 0x0, symName: __ZN4pyo36marker6Python19assume_gil_acquired17hbf8e865f0064b35bE, symObjAddr: 0x20, symBinAddr: 0x19528, symSize: 0x4 }
  - { offset: 0x72CA8, size: 0x8, addend: 0x0, symName: __ZN4pyo36marker6Python4None17h1bbc9902c8b7bfbeE, symObjAddr: 0x24, symBinAddr: 0x1952C, symSize: 0x20 }
  - { offset: 0x72CF5, size: 0x8, addend: 0x0, symName: __ZN4pyo35impl_10trampoline10trampoline17h4d171338668c030bE, symObjAddr: 0x0, symBinAddr: 0x1954C, symSize: 0x15C }
  - { offset: 0x74210, size: 0x8, addend: 0x0, symName: __ZN4pyo35impl_10trampoline10trampoline17h4d171338668c030bE, symObjAddr: 0x0, symBinAddr: 0x1954C, symSize: 0x15C }
  - { offset: 0x742B4, size: 0x8, addend: 0x0, symName: __ZN4pyo35impl_10trampoline10trampoline17h62f42afda90078c2E, symObjAddr: 0x15C, symBinAddr: 0x196A8, symSize: 0x158 }
  - { offset: 0x74357, size: 0x8, addend: 0x0, symName: __ZN4pyo35impl_10trampoline10trampoline17h6b358ae7f5511607E, symObjAddr: 0x2B4, symBinAddr: 0x19800, symSize: 0x158 }
  - { offset: 0x743FA, size: 0x8, addend: 0x0, symName: __ZN4pyo35impl_10trampoline10trampoline17h6cc73ab22fa9eb5dE, symObjAddr: 0x40C, symBinAddr: 0x19958, symSize: 0x158 }
  - { offset: 0x7449D, size: 0x8, addend: 0x0, symName: __ZN4pyo35impl_10trampoline10trampoline17h71755396c44778daE, symObjAddr: 0x564, symBinAddr: 0x19AB0, symSize: 0x158 }
  - { offset: 0x74540, size: 0x8, addend: 0x0, symName: __ZN4pyo35impl_10trampoline10trampoline17h8235500a7a320e1eE, symObjAddr: 0x6BC, symBinAddr: 0x19C08, symSize: 0x160 }
  - { offset: 0x745E4, size: 0x8, addend: 0x0, symName: __ZN4pyo35impl_10trampoline10trampoline17hf1705b4b357fcddaE, symObjAddr: 0x81C, symBinAddr: 0x19D68, symSize: 0x14C }
  - { offset: 0x7468C, size: 0x8, addend: 0x0, symName: '__ZN4pyo35impl_10trampoline10trampoline28_$u7b$$u7b$closure$u7d$$u7d$17h710f693693e5c529E', symObjAddr: 0x968, symBinAddr: 0x19EB4, symSize: 0x24 }
  - { offset: 0x746DA, size: 0x8, addend: 0x0, symName: '__ZN4pyo35impl_10trampoline10trampoline28_$u7b$$u7b$closure$u7d$$u7d$17h718e1fccef99feaeE', symObjAddr: 0x98C, symBinAddr: 0x19ED8, symSize: 0x2C }
  - { offset: 0x74728, size: 0x8, addend: 0x0, symName: '__ZN4pyo35impl_10trampoline10trampoline28_$u7b$$u7b$closure$u7d$$u7d$17h9a1c91fdfe00f123E', symObjAddr: 0x9B8, symBinAddr: 0x19F04, symSize: 0x34 }
  - { offset: 0x74777, size: 0x8, addend: 0x0, symName: '__ZN4pyo35impl_10trampoline10trampoline28_$u7b$$u7b$closure$u7d$$u7d$17hb67cbf1e34a02869E', symObjAddr: 0x9EC, symBinAddr: 0x19F38, symSize: 0x40 }
  - { offset: 0x747C6, size: 0x8, addend: 0x0, symName: '__ZN4pyo35impl_10trampoline10trampoline28_$u7b$$u7b$closure$u7d$$u7d$17hb6ce46f729d056d8E', symObjAddr: 0xA2C, symBinAddr: 0x19F78, symSize: 0x2C }
  - { offset: 0x74814, size: 0x8, addend: 0x0, symName: '__ZN4pyo35impl_10trampoline10trampoline28_$u7b$$u7b$closure$u7d$$u7d$17hc42a6d4638c60289E', symObjAddr: 0xA58, symBinAddr: 0x19FA4, symSize: 0x2C }
  - { offset: 0x74862, size: 0x8, addend: 0x0, symName: '__ZN4pyo35impl_10trampoline10trampoline28_$u7b$$u7b$closure$u7d$$u7d$17he26c08a188a65c7dE', symObjAddr: 0xA84, symBinAddr: 0x19FD0, symSize: 0x2C }
  - { offset: 0x748B6, size: 0x8, addend: 0x0, symName: '__ZN4pyo35impl_10trampoline11module_init28_$u7b$$u7b$closure$u7d$$u7d$17h304f40f9b5730f4eE', symObjAddr: 0xAB0, symBinAddr: 0x19FFC, symSize: 0x40 }
  - { offset: 0x74902, size: 0x8, addend: 0x0, symName: '__ZN4pyo35impl_10trampoline11module_init28_$u7b$$u7b$closure$u7d$$u7d$28_$u7b$$u7b$closure$u7d$$u7d$17h04ca74d1258e1cfdE', symObjAddr: 0xAF0, symBinAddr: 0x1A03C, symSize: 0x24 }
  - { offset: 0x74959, size: 0x8, addend: 0x0, symName: '__ZN4pyo35impl_10trampoline11richcmpfunc28_$u7b$$u7b$closure$u7d$$u7d$17h388e6dfb0727772fE', symObjAddr: 0xB14, symBinAddr: 0x1A060, symSize: 0x40 }
  - { offset: 0x74A05, size: 0x8, addend: 0x0, symName: __ZN4pyo35impl_10trampoline21trampoline_unraisable17hb7c099913615f599E, symObjAddr: 0xB54, symBinAddr: 0x1A0A0, symSize: 0x254 }
  - { offset: 0x74AA0, size: 0x8, addend: 0x0, symName: '__ZN4pyo35impl_10trampoline21trampoline_unraisable28_$u7b$$u7b$closure$u7d$$u7d$17h75fc1ef164a4d23dE', symObjAddr: 0xDA8, symBinAddr: 0x1A2F4, symSize: 0x2C }
  - { offset: 0x74AE5, size: 0x8, addend: 0x0, symName: '__ZN4pyo35impl_10trampoline21trampoline_unraisable28_$u7b$$u7b$closure$u7d$$u7d$17hf70bf42d9db68721E', symObjAddr: 0xDD4, symBinAddr: 0x1A320, symSize: 0x50 }
  - { offset: 0x74B31, size: 0x8, addend: 0x0, symName: '__ZN4pyo35impl_10trampoline22fastcall_with_keywords28_$u7b$$u7b$closure$u7d$$u7d$17hb34e57aa51776d1fE', symObjAddr: 0xE24, symBinAddr: 0x1A370, symSize: 0x48 }
  - { offset: 0x74BF8, size: 0x8, addend: 0x0, symName: __ZN4pyo35impl_10trampoline33panic_result_into_callback_output17hb6fda1fc18977d22E, symObjAddr: 0xE6C, symBinAddr: 0x1A3B8, symSize: 0xFC }
  - { offset: 0x74CC0, size: 0x8, addend: 0x0, symName: '__ZN4pyo35impl_10trampoline6noargs28_$u7b$$u7b$closure$u7d$$u7d$17h72ceebb588de8ba9E', symObjAddr: 0xF68, symBinAddr: 0x1A4B4, symSize: 0x34 }
  - { offset: 0x74D3D, size: 0x8, addend: 0x0, symName: '__ZN4pyo35impl_10trampoline7dealloc28_$u7b$$u7b$closure$u7d$$u7d$17he37aeac7fbba08ddE', symObjAddr: 0xF9C, symBinAddr: 0x1A4E8, symSize: 0x40 }
  - { offset: 0x74DBA, size: 0x8, addend: 0x0, symName: '__ZN4pyo35impl_10trampoline7lenfunc28_$u7b$$u7b$closure$u7d$$u7d$17h5e8f9c115cc68aedE', symObjAddr: 0xFDC, symBinAddr: 0x1A528, symSize: 0x34 }
  - { offset: 0x74E37, size: 0x8, addend: 0x0, symName: '__ZN4pyo35impl_10trampoline8hashfunc28_$u7b$$u7b$closure$u7d$$u7d$17he43f673c0ef60388E', symObjAddr: 0x1010, symBinAddr: 0x1A55C, symSize: 0x34 }
  - { offset: 0x74EB4, size: 0x8, addend: 0x0, symName: '__ZN4pyo35impl_10trampoline8reprfunc28_$u7b$$u7b$closure$u7d$$u7d$17h2b7cb7c594b29407E', symObjAddr: 0x1044, symBinAddr: 0x1A590, symSize: 0x34 }
  - { offset: 0x758A9, size: 0x8, addend: 0x0, symName: __ZN4core3fmt2rt8Argument9new_debug17h2d4858648ddf82baE, symObjAddr: 0x0, symBinAddr: 0x1A5C4, symSize: 0x2C }
  - { offset: 0x77329, size: 0x8, addend: 0x0, symName: __ZN4core3fmt2rt8Argument9new_debug17h2d4858648ddf82baE, symObjAddr: 0x0, symBinAddr: 0x1A5C4, symSize: 0x2C }
  - { offset: 0x77361, size: 0x8, addend: 0x0, symName: __ZN4core3fmt2rt8Argument9new_debug17h4ea7392329818269E, symObjAddr: 0x2C, symBinAddr: 0x1A5F0, symSize: 0x2C }
  - { offset: 0x77399, size: 0x8, addend: 0x0, symName: __ZN4core3fmt2rt8Argument9new_debug17h9c51c4a474b5c81dE, symObjAddr: 0x58, symBinAddr: 0x1A61C, symSize: 0x2C }
  - { offset: 0x77740, size: 0x8, addend: 0x0, symName: __ZN4core3fmt2rt8Argument9new_debug17hb101741224457801E, symObjAddr: 0x84, symBinAddr: 0x1A648, symSize: 0x2C }
  - { offset: 0x77778, size: 0x8, addend: 0x0, symName: __ZN4core3fmt2rt8Argument9new_debug17hc98bc0f9c30bbaeaE, symObjAddr: 0xB0, symBinAddr: 0x1A674, symSize: 0x2C }
  - { offset: 0x777B0, size: 0x8, addend: 0x0, symName: __ZN4core3fmt2rt8Argument9new_debug17he31dc8f24ce52c60E, symObjAddr: 0xDC, symBinAddr: 0x1A6A0, symSize: 0x2C }
  - { offset: 0x777E8, size: 0x8, addend: 0x0, symName: __ZN4core3fmt2rt8Argument9new_debug17hf19cb65f913ff181E, symObjAddr: 0x108, symBinAddr: 0x1A6CC, symSize: 0x2C }
  - { offset: 0x77820, size: 0x8, addend: 0x0, symName: __ZN4core3fmt2rt8Argument9new_debug17hfdf9538cf27ea574E, symObjAddr: 0x134, symBinAddr: 0x1A6F8, symSize: 0x2C }
  - { offset: 0x77869, size: 0x8, addend: 0x0, symName: '__ZN52_$LT$char$u20$as$u20$alloc..string..SpecToString$GT$14spec_to_string17h5b5b0656b3b3ca3fE', symObjAddr: 0x0, symBinAddr: 0x1A724, symSize: 0x8C }
  - { offset: 0x77EA3, size: 0x8, addend: 0x0, symName: '__ZN52_$LT$char$u20$as$u20$alloc..string..SpecToString$GT$14spec_to_string17h5b5b0656b3b3ca3fE', symObjAddr: 0x0, symBinAddr: 0x1A724, symSize: 0x8C }
  - { offset: 0x77FF3, size: 0x8, addend: 0x0, symName: '__ZN58_$LT$alloc..string..String$u20$as$u20$core..fmt..Write$GT$10write_char17h0ad4cd70c3b4daecE', symObjAddr: 0x8C, symBinAddr: 0x1A7B0, symSize: 0x38 }
  - { offset: 0x78030, size: 0x8, addend: 0x0, symName: '__ZN58_$LT$alloc..string..String$u20$as$u20$core..fmt..Write$GT$9write_str17h973068979c64d259E', symObjAddr: 0xC4, symBinAddr: 0x1A7E8, symSize: 0x40 }
  - { offset: 0x78073, size: 0x8, addend: 0x0, symName: '__ZN64_$LT$alloc..string..String$u20$as$u20$core..default..Default$GT$7default17h83f999c17a3c1011E', symObjAddr: 0x2CC, symBinAddr: 0x1A9F0, symSize: 0x30 }
  - { offset: 0x780C3, size: 0x8, addend: 0x0, symName: '__ZN65_$LT$alloc..string..String$u20$as$u20$core..ops..deref..Deref$GT$5deref17h8d3b59e1c6e11589E', symObjAddr: 0x2FC, symBinAddr: 0x1AA20, symSize: 0x24 }
  - { offset: 0x78115, size: 0x8, addend: 0x0, symName: '__ZN73_$LT$alloc..string..String$u20$as$u20$core..convert..AsRef$LT$str$GT$$GT$6as_ref17hae8f1fb1918c9dfdE', symObjAddr: 0x320, symBinAddr: 0x1AA44, symSize: 0x24 }
  - { offset: 0x785CB, size: 0x8, addend: 0x0, symName: __ZN5alloc6string6String4push17hb1173d12ae920703E, symObjAddr: 0x104, symBinAddr: 0x1A828, symSize: 0xF8 }
  - { offset: 0x78894, size: 0x8, addend: 0x0, symName: __ZN5alloc6string6String6as_str17h1a47d9cfb6750342E, symObjAddr: 0x1FC, symBinAddr: 0x1A920, symSize: 0x78 }
  - { offset: 0x78A7D, size: 0x8, addend: 0x0, symName: __ZN5alloc6string6String8push_str17hdd76d193c9525c23E, symObjAddr: 0x274, symBinAddr: 0x1A998, symSize: 0x58 }
  - { offset: 0x78C1F, size: 0x8, addend: 0x0, symName: '__ZN58_$LT$T$u20$as$u20$pyo3..err..err_state..PyErrArguments$GT$9arguments17hd3f33d709afc8bc4E', symObjAddr: 0x0, symBinAddr: 0x1AA68, symSize: 0x1C }
  - { offset: 0x79D31, size: 0x8, addend: 0x0, symName: '__ZN58_$LT$T$u20$as$u20$pyo3..err..err_state..PyErrArguments$GT$9arguments17hd3f33d709afc8bc4E', symObjAddr: 0x0, symBinAddr: 0x1AA68, symSize: 0x1C }
  - { offset: 0x7A30B, size: 0x8, addend: 0x0, symName: __ZN4ecow7dynamic10DynamicVec11from_inline17h744e33ec3fb44177E, symObjAddr: 0x0, symBinAddr: 0x1AA84, symSize: 0x1C }
  - { offset: 0x7A481, size: 0x8, addend: 0x0, symName: '__ZN64_$LT$ecow..dynamic..DynamicVec$u20$as$u20$core..clone..Clone$GT$5clone17hda652eba025d07f9E', symObjAddr: 0x24C, symBinAddr: 0x1ACD0, symSize: 0x78 }
  - { offset: 0x7A5F5, size: 0x8, addend: 0x0, symName: __ZN4ecow7dynamic10DynamicVec11from_inline17h744e33ec3fb44177E, symObjAddr: 0x0, symBinAddr: 0x1AA84, symSize: 0x1C }
  - { offset: 0x7A624, size: 0x8, addend: 0x0, symName: __ZN4ecow7dynamic10DynamicVec3len17h24e033931010930cE, symObjAddr: 0x1C, symBinAddr: 0x1AAA0, symSize: 0x64 }
  - { offset: 0x7A6A1, size: 0x8, addend: 0x0, symName: __ZN4ecow7dynamic10DynamicVec7variant17he683895ede650577E, symObjAddr: 0x80, symBinAddr: 0x1AB04, symSize: 0x64 }
  - { offset: 0x7A6EA, size: 0x8, addend: 0x0, symName: __ZN4ecow7dynamic10DynamicVec8as_slice17h8b65e692ce320166E, symObjAddr: 0xE4, symBinAddr: 0x1AB68, symSize: 0x70 }
  - { offset: 0x7A746, size: 0x8, addend: 0x0, symName: __ZN4ecow7dynamic10DynamicVec8from_eco17h4e2086a215925450E, symObjAddr: 0x154, symBinAddr: 0x1ABD8, symSize: 0x68 }
  - { offset: 0x7A78D, size: 0x8, addend: 0x0, symName: __ZN4ecow7dynamic10DynamicVec9is_inline17h6815a400e5a9dde2E, symObjAddr: 0x1BC, symBinAddr: 0x1AC40, symSize: 0x24 }
  - { offset: 0x7A7AF, size: 0x8, addend: 0x0, symName: __ZN4ecow7dynamic9InlineVec3len17h17b7d0ba9000c7cdE, symObjAddr: 0x1E0, symBinAddr: 0x1AC64, symSize: 0x28 }
  - { offset: 0x7A7F0, size: 0x8, addend: 0x0, symName: __ZN4ecow7dynamic9InlineVec8as_slice17h7a189b93ae9efd46E, symObjAddr: 0x208, symBinAddr: 0x1AC8C, symSize: 0x44 }
  - { offset: 0x7A831, size: 0x8, addend: 0x0, symName: '__ZN100_$LT$T$u20$as$u20$pyo3..callback..IntoPyCallbackOutput$LT$pyo3..callback..HashCallbackOutput$GT$$GT$7convert17h74bdccb98de00d8bE', symObjAddr: 0x0, symBinAddr: 0x1AD48, symSize: 0x30 }
  - { offset: 0x7C537, size: 0x8, addend: 0x0, symName: '__ZN100_$LT$T$u20$as$u20$pyo3..callback..IntoPyCallbackOutput$LT$pyo3..callback..HashCallbackOutput$GT$$GT$7convert17h74bdccb98de00d8bE', symObjAddr: 0x0, symBinAddr: 0x1AD48, symSize: 0x30 }
  - { offset: 0x7C585, size: 0x8, addend: 0x0, symName: '__ZN100_$LT$T$u20$as$u20$pyo3..callback..IntoPyCallbackOutput$LT$pyo3..callback..HashCallbackOutput$GT$$GT$7convert17hb80e39343b3e39b4E', symObjAddr: 0x30, symBinAddr: 0x1AD78, symSize: 0x30 }
  - { offset: 0x7C5D9, size: 0x8, addend: 0x0, symName: '__ZN104_$LT$T$u20$as$u20$pyo3..callback..IntoPyCallbackOutput$LT$$BP$mut$u20$pyo3_ffi..object..PyObject$GT$$GT$7convert17h09c194a8b66f824cE', symObjAddr: 0x60, symBinAddr: 0x1ADA8, symSize: 0x34 }
  - { offset: 0x7C627, size: 0x8, addend: 0x0, symName: '__ZN104_$LT$T$u20$as$u20$pyo3..callback..IntoPyCallbackOutput$LT$$BP$mut$u20$pyo3_ffi..object..PyObject$GT$$GT$7convert17h32fab290fd97a98fE', symObjAddr: 0x94, symBinAddr: 0x1ADDC, symSize: 0x34 }
  - { offset: 0x7C675, size: 0x8, addend: 0x0, symName: '__ZN104_$LT$T$u20$as$u20$pyo3..callback..IntoPyCallbackOutput$LT$$BP$mut$u20$pyo3_ffi..object..PyObject$GT$$GT$7convert17h6d0d0d7298e36ce0E', symObjAddr: 0xC8, symBinAddr: 0x1AE10, symSize: 0x34 }
  - { offset: 0x7C6C3, size: 0x8, addend: 0x0, symName: '__ZN104_$LT$T$u20$as$u20$pyo3..callback..IntoPyCallbackOutput$LT$$BP$mut$u20$pyo3_ffi..object..PyObject$GT$$GT$7convert17h75cd96edf655b8f4E', symObjAddr: 0xFC, symBinAddr: 0x1AE44, symSize: 0x3C }
  - { offset: 0x7C712, size: 0x8, addend: 0x0, symName: __ZN4pyo38callback7convert17h13f91f910a68a0faE, symObjAddr: 0x138, symBinAddr: 0x1AE80, symSize: 0x1C }
  - { offset: 0x7C76A, size: 0x8, addend: 0x0, symName: __ZN4pyo38callback7convert17h241ebd7da2096222E, symObjAddr: 0x154, symBinAddr: 0x1AE9C, symSize: 0x20 }
  - { offset: 0x7C7C1, size: 0x8, addend: 0x0, symName: __ZN4pyo38callback7convert17h29b51103f6bef326E, symObjAddr: 0x174, symBinAddr: 0x1AEBC, symSize: 0x28 }
  - { offset: 0x7C818, size: 0x8, addend: 0x0, symName: __ZN4pyo38callback7convert17h333cc55bc18bf6efE, symObjAddr: 0x19C, symBinAddr: 0x1AEE4, symSize: 0x24 }
  - { offset: 0x7C86F, size: 0x8, addend: 0x0, symName: __ZN4pyo38callback7convert17h3c4ede65ebddcbfaE, symObjAddr: 0x1C0, symBinAddr: 0x1AF08, symSize: 0x24 }
  - { offset: 0x7C8C6, size: 0x8, addend: 0x0, symName: __ZN4pyo38callback7convert17h500900ef16f392d0E, symObjAddr: 0x1E4, symBinAddr: 0x1AF2C, symSize: 0x20 }
  - { offset: 0x7C91D, size: 0x8, addend: 0x0, symName: __ZN4pyo38callback7convert17h571ab29808871301E, symObjAddr: 0x204, symBinAddr: 0x1AF4C, symSize: 0x20 }
  - { offset: 0x7C974, size: 0x8, addend: 0x0, symName: __ZN4pyo38callback7convert17h62745aa9af9c15c7E, symObjAddr: 0x224, symBinAddr: 0x1AF6C, symSize: 0x1C }
  - { offset: 0x7C9CC, size: 0x8, addend: 0x0, symName: __ZN4pyo38callback7convert17h6fac8f7780fdce97E, symObjAddr: 0x240, symBinAddr: 0x1AF88, symSize: 0x20 }
  - { offset: 0x7CA23, size: 0x8, addend: 0x0, symName: __ZN4pyo38callback7convert17h723ae7321c191fa4E, symObjAddr: 0x260, symBinAddr: 0x1AFA8, symSize: 0x1C }
  - { offset: 0x7CA7B, size: 0x8, addend: 0x0, symName: __ZN4pyo38callback7convert17h7f2f4c541d447594E, symObjAddr: 0x27C, symBinAddr: 0x1AFC4, symSize: 0x20 }
  - { offset: 0x7CAD2, size: 0x8, addend: 0x0, symName: __ZN4pyo38callback7convert17h867b5c26717116c0E, symObjAddr: 0x29C, symBinAddr: 0x1AFE4, symSize: 0x20 }
  - { offset: 0x7CB29, size: 0x8, addend: 0x0, symName: __ZN4pyo38callback7convert17h90ce1cc201f1cd1fE, symObjAddr: 0x2BC, symBinAddr: 0x1B004, symSize: 0x20 }
  - { offset: 0x7CB80, size: 0x8, addend: 0x0, symName: __ZN4pyo38callback7convert17h90d43a4fc61503b9E, symObjAddr: 0x2DC, symBinAddr: 0x1B024, symSize: 0x1C }
  - { offset: 0x7CBD8, size: 0x8, addend: 0x0, symName: __ZN4pyo38callback7convert17haf8f935f577dee47E, symObjAddr: 0x2F8, symBinAddr: 0x1B040, symSize: 0x20 }
  - { offset: 0x7CC2F, size: 0x8, addend: 0x0, symName: __ZN4pyo38callback7convert17he5303838e66db432E, symObjAddr: 0x318, symBinAddr: 0x1B060, symSize: 0x24 }
  - { offset: 0x7CC86, size: 0x8, addend: 0x0, symName: __ZN4pyo38callback7convert17he54fee9c0c949e85E, symObjAddr: 0x33C, symBinAddr: 0x1B084, symSize: 0x1C }
  - { offset: 0x7CCDE, size: 0x8, addend: 0x0, symName: __ZN4pyo38callback7convert17he7b0101e1cb1a77fE, symObjAddr: 0x358, symBinAddr: 0x1B0A0, symSize: 0x1C }
  - { offset: 0x7CD40, size: 0x8, addend: 0x0, symName: '__ZN75_$LT$usize$u20$as$u20$pyo3..callback..IntoPyCallbackOutput$LT$isize$GT$$GT$7convert28_$u7b$$u7b$closure$u7d$$u7d$17hea2acb2aec4e370fE', symObjAddr: 0x374, symBinAddr: 0x1B0BC, symSize: 0x1C }
  - { offset: 0x7D973, size: 0x8, addend: 0x0, symName: '__ZN102_$LT$core..iter..adapters..map..Map$LT$I$C$F$GT$$u20$as$u20$core..iter..traits..iterator..Iterator$GT$4fold17h2974171efba286dfE', symObjAddr: 0x0, symBinAddr: 0x1B0D8, symSize: 0x4C }
  - { offset: 0x7F52A, size: 0x8, addend: 0x0, symName: '__ZN4core4iter8adapters3map8map_fold28_$u7b$$u7b$closure$u7d$$u7d$17h20a7b77c7effad4fE', symObjAddr: 0x1540, symBinAddr: 0x1C618, symSize: 0x8C }
  - { offset: 0x7F5AF, size: 0x8, addend: 0x0, symName: '__ZN4core4iter8adapters3map8map_fold28_$u7b$$u7b$closure$u7d$$u7d$17h24b7a169bd9c054bE', symObjAddr: 0x15CC, symBinAddr: 0x1C6A4, symSize: 0x94 }
  - { offset: 0x7F634, size: 0x8, addend: 0x0, symName: '__ZN4core4iter8adapters3map8map_fold28_$u7b$$u7b$closure$u7d$$u7d$17h4043ebdff7965666E', symObjAddr: 0x1660, symBinAddr: 0x1C738, symSize: 0x8C }
  - { offset: 0x7F6B9, size: 0x8, addend: 0x0, symName: '__ZN4core4iter8adapters3map8map_fold28_$u7b$$u7b$closure$u7d$$u7d$17h7c3a5c438ad5310aE', symObjAddr: 0x16EC, symBinAddr: 0x1C7C4, symSize: 0x90 }
  - { offset: 0x7F73E, size: 0x8, addend: 0x0, symName: '__ZN4core4iter8adapters3map8map_fold28_$u7b$$u7b$closure$u7d$$u7d$17h8d270367efd029f7E', symObjAddr: 0x177C, symBinAddr: 0x1C854, symSize: 0x90 }
  - { offset: 0x7F7C3, size: 0x8, addend: 0x0, symName: '__ZN4core4iter8adapters3map8map_fold28_$u7b$$u7b$closure$u7d$$u7d$17hbb2c23482a8ee791E', symObjAddr: 0x180C, symBinAddr: 0x1C8E4, symSize: 0x8C }
  - { offset: 0x7F84E, size: 0x8, addend: 0x0, symName: '__ZN102_$LT$core..iter..adapters..map..Map$LT$I$C$F$GT$$u20$as$u20$core..iter..traits..iterator..Iterator$GT$4fold17h2974171efba286dfE', symObjAddr: 0x0, symBinAddr: 0x1B0D8, symSize: 0x4C }
  - { offset: 0x7F8E7, size: 0x8, addend: 0x0, symName: '__ZN102_$LT$core..iter..adapters..map..Map$LT$I$C$F$GT$$u20$as$u20$core..iter..traits..iterator..Iterator$GT$4fold17h3d2073f8c59f1ecdE', symObjAddr: 0x4C, symBinAddr: 0x1B124, symSize: 0x34 }
  - { offset: 0x7F958, size: 0x8, addend: 0x0, symName: '__ZN102_$LT$core..iter..adapters..map..Map$LT$I$C$F$GT$$u20$as$u20$core..iter..traits..iterator..Iterator$GT$4fold17h7caba0e080f16271E', symObjAddr: 0x80, symBinAddr: 0x1B158, symSize: 0x44 }
  - { offset: 0x7F9F0, size: 0x8, addend: 0x0, symName: '__ZN102_$LT$core..iter..adapters..map..Map$LT$I$C$F$GT$$u20$as$u20$core..iter..traits..iterator..Iterator$GT$4fold17hab0696baf6360cf4E', symObjAddr: 0xC4, symBinAddr: 0x1B19C, symSize: 0x44 }
  - { offset: 0x7FA88, size: 0x8, addend: 0x0, symName: '__ZN102_$LT$core..iter..adapters..map..Map$LT$I$C$F$GT$$u20$as$u20$core..iter..traits..iterator..Iterator$GT$4fold17hd9cfa32c164598f2E', symObjAddr: 0x108, symBinAddr: 0x1B1E0, symSize: 0x44 }
  - { offset: 0x7FB20, size: 0x8, addend: 0x0, symName: '__ZN102_$LT$core..iter..adapters..map..Map$LT$I$C$F$GT$$u20$as$u20$core..iter..traits..iterator..Iterator$GT$4fold17hdb78bacdc46cd998E', symObjAddr: 0x14C, symBinAddr: 0x1B224, symSize: 0x4C }
  - { offset: 0x7FBB9, size: 0x8, addend: 0x0, symName: '__ZN102_$LT$core..iter..adapters..map..Map$LT$I$C$F$GT$$u20$as$u20$core..iter..traits..iterator..Iterator$GT$4next17h0885556dcf460edcE', symObjAddr: 0x198, symBinAddr: 0x1B270, symSize: 0x94 }
  - { offset: 0x7FC51, size: 0x8, addend: 0x0, symName: '__ZN102_$LT$core..iter..adapters..map..Map$LT$I$C$F$GT$$u20$as$u20$core..iter..traits..iterator..Iterator$GT$4next17h2b00c9d684a82528E', symObjAddr: 0x22C, symBinAddr: 0x1B304, symSize: 0x98 }
  - { offset: 0x7FCE9, size: 0x8, addend: 0x0, symName: '__ZN102_$LT$core..iter..adapters..map..Map$LT$I$C$F$GT$$u20$as$u20$core..iter..traits..iterator..Iterator$GT$4next17h6d6a0c427a38ca2bE', symObjAddr: 0x2C4, symBinAddr: 0x1B39C, symSize: 0xA4 }
  - { offset: 0x7FD81, size: 0x8, addend: 0x0, symName: '__ZN102_$LT$core..iter..adapters..map..Map$LT$I$C$F$GT$$u20$as$u20$core..iter..traits..iterator..Iterator$GT$4next17h8e39582b394db10fE', symObjAddr: 0x368, symBinAddr: 0x1B440, symSize: 0x90 }
  - { offset: 0x7FE19, size: 0x8, addend: 0x0, symName: '__ZN102_$LT$core..iter..adapters..map..Map$LT$I$C$F$GT$$u20$as$u20$core..iter..traits..iterator..Iterator$GT$4next17h9e99bf8088ac72b0E', symObjAddr: 0x3F8, symBinAddr: 0x1B4D0, symSize: 0xA0 }
  - { offset: 0x7FEB3, size: 0x8, addend: 0x0, symName: '__ZN102_$LT$core..iter..adapters..map..Map$LT$I$C$F$GT$$u20$as$u20$core..iter..traits..iterator..Iterator$GT$4next17h9f87d3b5ab1abfd8E', symObjAddr: 0x498, symBinAddr: 0x1B570, symSize: 0x8C }
  - { offset: 0x7FF4B, size: 0x8, addend: 0x0, symName: '__ZN102_$LT$core..iter..adapters..map..Map$LT$I$C$F$GT$$u20$as$u20$core..iter..traits..iterator..Iterator$GT$4next17hdc3c0266dc914fdfE', symObjAddr: 0x524, symBinAddr: 0x1B5FC, symSize: 0xA0 }
  - { offset: 0x7FFE5, size: 0x8, addend: 0x0, symName: '__ZN102_$LT$core..iter..adapters..map..Map$LT$I$C$F$GT$$u20$as$u20$core..iter..traits..iterator..Iterator$GT$4next17he4374f80fb9f0a24E', symObjAddr: 0x5C4, symBinAddr: 0x1B69C, symSize: 0x94 }
  - { offset: 0x8007D, size: 0x8, addend: 0x0, symName: '__ZN102_$LT$core..iter..adapters..map..Map$LT$I$C$F$GT$$u20$as$u20$core..iter..traits..iterator..Iterator$GT$4next17heb0394a5f8771f56E', symObjAddr: 0x658, symBinAddr: 0x1B730, symSize: 0xA4 }
  - { offset: 0x80115, size: 0x8, addend: 0x0, symName: '__ZN102_$LT$core..iter..adapters..map..Map$LT$I$C$F$GT$$u20$as$u20$core..iter..traits..iterator..Iterator$GT$8try_fold17h29ac2e6ec138801dE', symObjAddr: 0x6FC, symBinAddr: 0x1B7D4, symSize: 0x34 }
  - { offset: 0x80193, size: 0x8, addend: 0x0, symName: '__ZN102_$LT$core..iter..adapters..map..Map$LT$I$C$F$GT$$u20$as$u20$core..iter..traits..iterator..Iterator$GT$8try_fold17h3a709892081ee2c7E', symObjAddr: 0x730, symBinAddr: 0x1B808, symSize: 0x34 }
  - { offset: 0x80211, size: 0x8, addend: 0x0, symName: '__ZN102_$LT$core..iter..adapters..map..Map$LT$I$C$F$GT$$u20$as$u20$core..iter..traits..iterator..Iterator$GT$8try_fold17ha36a52dac8e0cd5aE', symObjAddr: 0x764, symBinAddr: 0x1B83C, symSize: 0x34 }
  - { offset: 0x8028F, size: 0x8, addend: 0x0, symName: '__ZN102_$LT$core..iter..adapters..map..Map$LT$I$C$F$GT$$u20$as$u20$core..iter..traits..iterator..Iterator$GT$8try_fold17hc1ac77121ff960f7E', symObjAddr: 0x798, symBinAddr: 0x1B870, symSize: 0x34 }
  - { offset: 0x8030D, size: 0x8, addend: 0x0, symName: '__ZN102_$LT$core..iter..adapters..map..Map$LT$I$C$F$GT$$u20$as$u20$core..iter..traits..iterator..Iterator$GT$9size_hint17h19a7ec5121abaa3bE', symObjAddr: 0x7CC, symBinAddr: 0x1B8A4, symSize: 0x24 }
  - { offset: 0x80354, size: 0x8, addend: 0x0, symName: '__ZN102_$LT$core..iter..adapters..map..Map$LT$I$C$F$GT$$u20$as$u20$core..iter..traits..iterator..Iterator$GT$9size_hint17h1e3c36df1061427fE', symObjAddr: 0x7F0, symBinAddr: 0x1B8C8, symSize: 0x24 }
  - { offset: 0x8039B, size: 0x8, addend: 0x0, symName: '__ZN102_$LT$core..iter..adapters..map..Map$LT$I$C$F$GT$$u20$as$u20$core..iter..traits..iterator..Iterator$GT$9size_hint17h2be056fd5253aa5fE', symObjAddr: 0x814, symBinAddr: 0x1B8EC, symSize: 0x24 }
  - { offset: 0x803E2, size: 0x8, addend: 0x0, symName: '__ZN102_$LT$core..iter..adapters..map..Map$LT$I$C$F$GT$$u20$as$u20$core..iter..traits..iterator..Iterator$GT$9size_hint17h2eb9a4b0dad5da84E', symObjAddr: 0x838, symBinAddr: 0x1B910, symSize: 0x24 }
  - { offset: 0x80429, size: 0x8, addend: 0x0, symName: '__ZN102_$LT$core..iter..adapters..map..Map$LT$I$C$F$GT$$u20$as$u20$core..iter..traits..iterator..Iterator$GT$9size_hint17h56b518023d78feffE', symObjAddr: 0x85C, symBinAddr: 0x1B934, symSize: 0x24 }
  - { offset: 0x80470, size: 0x8, addend: 0x0, symName: '__ZN102_$LT$core..iter..adapters..map..Map$LT$I$C$F$GT$$u20$as$u20$core..iter..traits..iterator..Iterator$GT$9size_hint17h73e1bfe88183dba0E', symObjAddr: 0x880, symBinAddr: 0x1B958, symSize: 0x24 }
  - { offset: 0x804B7, size: 0x8, addend: 0x0, symName: '__ZN102_$LT$core..iter..adapters..map..Map$LT$I$C$F$GT$$u20$as$u20$core..iter..traits..iterator..Iterator$GT$9size_hint17h839b64ab7a38c1f6E', symObjAddr: 0x8A4, symBinAddr: 0x1B97C, symSize: 0x24 }
  - { offset: 0x804FE, size: 0x8, addend: 0x0, symName: '__ZN102_$LT$core..iter..adapters..map..Map$LT$I$C$F$GT$$u20$as$u20$core..iter..traits..iterator..Iterator$GT$9size_hint17h9c0a69df02ea0ec2E', symObjAddr: 0x8C8, symBinAddr: 0x1B9A0, symSize: 0x24 }
  - { offset: 0x80545, size: 0x8, addend: 0x0, symName: '__ZN102_$LT$core..iter..adapters..map..Map$LT$I$C$F$GT$$u20$as$u20$core..iter..traits..iterator..Iterator$GT$9size_hint17ha620e67adb7190e4E', symObjAddr: 0x8EC, symBinAddr: 0x1B9C4, symSize: 0x24 }
  - { offset: 0x8058C, size: 0x8, addend: 0x0, symName: '__ZN102_$LT$core..iter..adapters..map..Map$LT$I$C$F$GT$$u20$as$u20$core..iter..traits..iterator..Iterator$GT$9size_hint17hbf77dfe0a893c6d9E', symObjAddr: 0x910, symBinAddr: 0x1B9E8, symSize: 0x24 }
  - { offset: 0x805D3, size: 0x8, addend: 0x0, symName: '__ZN102_$LT$core..iter..adapters..map..Map$LT$I$C$F$GT$$u20$as$u20$core..iter..traits..iterator..Iterator$GT$9size_hint17hc793e524f51b4100E', symObjAddr: 0x934, symBinAddr: 0x1BA0C, symSize: 0x24 }
  - { offset: 0x8061A, size: 0x8, addend: 0x0, symName: '__ZN102_$LT$core..iter..adapters..map..Map$LT$I$C$F$GT$$u20$as$u20$core..iter..traits..iterator..Iterator$GT$9size_hint17hd5b8c0ad86aafc6fE', symObjAddr: 0x958, symBinAddr: 0x1BA30, symSize: 0x24 }
  - { offset: 0x80661, size: 0x8, addend: 0x0, symName: '__ZN102_$LT$core..iter..adapters..map..Map$LT$I$C$F$GT$$u20$as$u20$core..iter..traits..iterator..Iterator$GT$9size_hint17he815edc793da8376E', symObjAddr: 0x97C, symBinAddr: 0x1BA54, symSize: 0x24 }
  - { offset: 0x807FE, size: 0x8, addend: 0x0, symName: '__ZN113_$LT$core..iter..adapters..map..Map$LT$I$C$F$GT$$u20$as$u20$core..iter..traits..exact_size..ExactSizeIterator$GT$3len17h16079731d3faf7b6E', symObjAddr: 0x9A0, symBinAddr: 0x1BA78, symSize: 0x24 }
  - { offset: 0x80845, size: 0x8, addend: 0x0, symName: '__ZN113_$LT$core..iter..adapters..map..Map$LT$I$C$F$GT$$u20$as$u20$core..iter..traits..exact_size..ExactSizeIterator$GT$3len17h2cc787070ad5c389E', symObjAddr: 0x9C4, symBinAddr: 0x1BA9C, symSize: 0x24 }
  - { offset: 0x8088C, size: 0x8, addend: 0x0, symName: '__ZN113_$LT$core..iter..adapters..map..Map$LT$I$C$F$GT$$u20$as$u20$core..iter..traits..exact_size..ExactSizeIterator$GT$3len17hd80152f06098fad1E', symObjAddr: 0x9E8, symBinAddr: 0x1BAC0, symSize: 0x24 }
  - { offset: 0x808D3, size: 0x8, addend: 0x0, symName: '__ZN113_$LT$core..iter..adapters..map..Map$LT$I$C$F$GT$$u20$as$u20$core..iter..traits..exact_size..ExactSizeIterator$GT$3len17hef1305135763a6faE', symObjAddr: 0xA0C, symBinAddr: 0x1BAE4, symSize: 0x24 }
  - { offset: 0x8091A, size: 0x8, addend: 0x0, symName: '__ZN113_$LT$core..iter..adapters..map..Map$LT$I$C$F$GT$$u20$as$u20$core..iter..traits..exact_size..ExactSizeIterator$GT$8is_empty17h0db4f67a15618758E', symObjAddr: 0xA30, symBinAddr: 0x1BB08, symSize: 0x24 }
  - { offset: 0x80961, size: 0x8, addend: 0x0, symName: '__ZN113_$LT$core..iter..adapters..map..Map$LT$I$C$F$GT$$u20$as$u20$core..iter..traits..exact_size..ExactSizeIterator$GT$8is_empty17h51260670b0db3c8cE', symObjAddr: 0xA54, symBinAddr: 0x1BB2C, symSize: 0x24 }
  - { offset: 0x809A8, size: 0x8, addend: 0x0, symName: '__ZN113_$LT$core..iter..adapters..map..Map$LT$I$C$F$GT$$u20$as$u20$core..iter..traits..exact_size..ExactSizeIterator$GT$8is_empty17h5a22126702480237E', symObjAddr: 0xA78, symBinAddr: 0x1BB50, symSize: 0x24 }
  - { offset: 0x809EF, size: 0x8, addend: 0x0, symName: '__ZN113_$LT$core..iter..adapters..map..Map$LT$I$C$F$GT$$u20$as$u20$core..iter..traits..exact_size..ExactSizeIterator$GT$8is_empty17h9e6727333cc43c52E', symObjAddr: 0xA9C, symBinAddr: 0x1BB74, symSize: 0x24 }
  - { offset: 0x80A3C, size: 0x8, addend: 0x0, symName: '__ZN4core4iter8adapters3map12map_try_fold28_$u7b$$u7b$closure$u7d$$u7d$17h2cebb61ffad6961aE', symObjAddr: 0x1288, symBinAddr: 0x1C360, symSize: 0xA4 }
  - { offset: 0x80ACF, size: 0x8, addend: 0x0, symName: '__ZN4core4iter8adapters3map12map_try_fold28_$u7b$$u7b$closure$u7d$$u7d$17h6a02ee4e8913b55fE', symObjAddr: 0x132C, symBinAddr: 0x1C404, symSize: 0xA4 }
  - { offset: 0x80B62, size: 0x8, addend: 0x0, symName: '__ZN4core4iter8adapters3map12map_try_fold28_$u7b$$u7b$closure$u7d$$u7d$17h7ffe6790f2adebe0E', symObjAddr: 0x13D0, symBinAddr: 0x1C4A8, symSize: 0xB8 }
  - { offset: 0x80BF5, size: 0x8, addend: 0x0, symName: '__ZN4core4iter8adapters3map12map_try_fold28_$u7b$$u7b$closure$u7d$$u7d$17hf111c7bf4297da65E', symObjAddr: 0x1488, symBinAddr: 0x1C560, symSize: 0xB8 }
  - { offset: 0x811DD, size: 0x8, addend: 0x0, symName: __ZN4core4iter6traits8iterator8Iterator10advance_by17h9322ff48971ffc61E, symObjAddr: 0xAC0, symBinAddr: 0x1BB98, symSize: 0x28 }
  - { offset: 0x81223, size: 0x8, addend: 0x0, symName: __ZN4core4iter6traits8iterator8Iterator10advance_by17ha03444d9deaa49d2E, symObjAddr: 0xAE8, symBinAddr: 0x1BBC0, symSize: 0x28 }
  - { offset: 0x81269, size: 0x8, addend: 0x0, symName: __ZN4core4iter6traits8iterator8Iterator10advance_by17hb5f1575f5f35f8b4E, symObjAddr: 0xB10, symBinAddr: 0x1BBE8, symSize: 0x28 }
  - { offset: 0x812AF, size: 0x8, addend: 0x0, symName: __ZN4core4iter6traits8iterator8Iterator10advance_by17hd1232bca8afc7fcaE, symObjAddr: 0xB38, symBinAddr: 0x1BC10, symSize: 0x28 }
  - { offset: 0x812F5, size: 0x8, addend: 0x0, symName: __ZN4core4iter6traits8iterator8Iterator3nth17h16318d14ea2f34c5E, symObjAddr: 0xB60, symBinAddr: 0x1BC38, symSize: 0x7C }
  - { offset: 0x813C1, size: 0x8, addend: 0x0, symName: __ZN4core4iter6traits8iterator8Iterator3nth17h8f6e3a630592e5e5E, symObjAddr: 0xBDC, symBinAddr: 0x1BCB4, symSize: 0x7C }
  - { offset: 0x8148D, size: 0x8, addend: 0x0, symName: __ZN4core4iter6traits8iterator8Iterator3nth17hd949302d4a9bbe8dE, symObjAddr: 0xC58, symBinAddr: 0x1BD30, symSize: 0x7C }
  - { offset: 0x81559, size: 0x8, addend: 0x0, symName: __ZN4core4iter6traits8iterator8Iterator3nth17hf18649b675038d00E, symObjAddr: 0xCD4, symBinAddr: 0x1BDAC, symSize: 0x7C }
  - { offset: 0x81625, size: 0x8, addend: 0x0, symName: __ZN4core4iter6traits8iterator8Iterator7collect17h2a736fcb5b5725b2E, symObjAddr: 0xD50, symBinAddr: 0x1BE28, symSize: 0x60 }
  - { offset: 0x816BA, size: 0x8, addend: 0x0, symName: __ZN4core4iter6traits8iterator8Iterator7collect17h3538ca9e2c4e5184E, symObjAddr: 0xDB0, symBinAddr: 0x1BE88, symSize: 0x60 }
  - { offset: 0x8174F, size: 0x8, addend: 0x0, symName: __ZN4core4iter6traits8iterator8Iterator7collect17h4fad53b1d4037f01E, symObjAddr: 0xE10, symBinAddr: 0x1BEE8, symSize: 0x60 }
  - { offset: 0x817E4, size: 0x8, addend: 0x0, symName: __ZN4core4iter6traits8iterator8Iterator7collect17h6e94f36d94d48959E, symObjAddr: 0xE70, symBinAddr: 0x1BF48, symSize: 0x68 }
  - { offset: 0x8187A, size: 0x8, addend: 0x0, symName: __ZN4core4iter6traits8iterator8Iterator7collect17h70559bece9db1132E, symObjAddr: 0xED8, symBinAddr: 0x1BFB0, symSize: 0x58 }
  - { offset: 0x8190F, size: 0x8, addend: 0x0, symName: __ZN4core4iter6traits8iterator8Iterator7collect17h97db7bed9d93cb9cE, symObjAddr: 0xF30, symBinAddr: 0x1C008, symSize: 0x68 }
  - { offset: 0x819A5, size: 0x8, addend: 0x0, symName: __ZN4core4iter6traits8iterator8Iterator7collect17hc2a93a98c9840b9fE, symObjAddr: 0xF98, symBinAddr: 0x1C070, symSize: 0x60 }
  - { offset: 0x81A3A, size: 0x8, addend: 0x0, symName: __ZN4core4iter6traits8iterator8Iterator7collect17hcb614e4ffe866bc9E, symObjAddr: 0xFF8, symBinAddr: 0x1C0D0, symSize: 0x68 }
  - { offset: 0x81AD0, size: 0x8, addend: 0x0, symName: __ZN4core4iter6traits8iterator8Iterator7collect17hcd3bf91f76e9a5f4E, symObjAddr: 0x1060, symBinAddr: 0x1C138, symSize: 0x60 }
  - { offset: 0x81B65, size: 0x8, addend: 0x0, symName: __ZN4core4iter6traits8iterator8Iterator7collect17he5aaf48d4ad7f26cE, symObjAddr: 0x10C0, symBinAddr: 0x1C198, symSize: 0x60 }
  - { offset: 0x81BFA, size: 0x8, addend: 0x0, symName: __ZN4core4iter6traits8iterator8Iterator8for_each17h0e171cef525c0517E, symObjAddr: 0x1120, symBinAddr: 0x1C1F8, symSize: 0x44 }
  - { offset: 0x81C65, size: 0x8, addend: 0x0, symName: __ZN4core4iter6traits8iterator8Iterator8for_each17h1fe60f5d55ddb554E, symObjAddr: 0x1164, symBinAddr: 0x1C23C, symSize: 0x44 }
  - { offset: 0x81CD0, size: 0x8, addend: 0x0, symName: __ZN4core4iter6traits8iterator8Iterator8for_each17h23488cdc5137a81cE, symObjAddr: 0x11A8, symBinAddr: 0x1C280, symSize: 0x34 }
  - { offset: 0x81D1B, size: 0x8, addend: 0x0, symName: __ZN4core4iter6traits8iterator8Iterator8for_each17h43be27b1e129123aE, symObjAddr: 0x11DC, symBinAddr: 0x1C2B4, symSize: 0x34 }
  - { offset: 0x81D87, size: 0x8, addend: 0x0, symName: __ZN4core4iter6traits8iterator8Iterator8for_each17h8292526f9bf33425E, symObjAddr: 0x1210, symBinAddr: 0x1C2E8, symSize: 0x34 }
  - { offset: 0x81DF3, size: 0x8, addend: 0x0, symName: __ZN4core4iter6traits8iterator8Iterator8for_each17h9c15594adf29077aE, symObjAddr: 0x1244, symBinAddr: 0x1C31C, symSize: 0x44 }
  - { offset: 0x81E68, size: 0x8, addend: 0x0, symName: '__ZN87_$LT$I$u20$as$u20$core..iter..traits..iterator..Iterator..advance_by..SpecAdvanceBy$GT$15spec_advance_by17h405b32766ac27980E', symObjAddr: 0x19A0, symBinAddr: 0x1CA78, symSize: 0x8C }
  - { offset: 0x81F16, size: 0x8, addend: 0x0, symName: '__ZN87_$LT$I$u20$as$u20$core..iter..traits..iterator..Iterator..advance_by..SpecAdvanceBy$GT$15spec_advance_by17h4c34b1984ecaf7d3E', symObjAddr: 0x1A2C, symBinAddr: 0x1CB04, symSize: 0x8C }
  - { offset: 0x81FC4, size: 0x8, addend: 0x0, symName: '__ZN87_$LT$I$u20$as$u20$core..iter..traits..iterator..Iterator..advance_by..SpecAdvanceBy$GT$15spec_advance_by17h82db5bceb145082aE', symObjAddr: 0x1AB8, symBinAddr: 0x1CB90, symSize: 0x8C }
  - { offset: 0x82072, size: 0x8, addend: 0x0, symName: '__ZN87_$LT$I$u20$as$u20$core..iter..traits..iterator..Iterator..advance_by..SpecAdvanceBy$GT$15spec_advance_by17had5106d2b08f1e1bE', symObjAddr: 0x1B44, symBinAddr: 0x1CC1C, symSize: 0x8C }
  - { offset: 0x82150, size: 0x8, addend: 0x0, symName: '__ZN63_$LT$I$u20$as$u20$core..iter..traits..collect..IntoIterator$GT$9into_iter17h111d6b0aeb50efb2E', symObjAddr: 0x1898, symBinAddr: 0x1C970, symSize: 0x1C }
  - { offset: 0x82187, size: 0x8, addend: 0x0, symName: '__ZN63_$LT$I$u20$as$u20$core..iter..traits..collect..IntoIterator$GT$9into_iter17h221ef2dfdec85296E', symObjAddr: 0x18B4, symBinAddr: 0x1C98C, symSize: 0x1C }
  - { offset: 0x821BE, size: 0x8, addend: 0x0, symName: '__ZN63_$LT$I$u20$as$u20$core..iter..traits..collect..IntoIterator$GT$9into_iter17h2ddfa5acc805d651E', symObjAddr: 0x18D0, symBinAddr: 0x1C9A8, symSize: 0x1C }
  - { offset: 0x821F5, size: 0x8, addend: 0x0, symName: '__ZN63_$LT$I$u20$as$u20$core..iter..traits..collect..IntoIterator$GT$9into_iter17h64a5aa771440c1b6E', symObjAddr: 0x18EC, symBinAddr: 0x1C9C4, symSize: 0x18 }
  - { offset: 0x8222C, size: 0x8, addend: 0x0, symName: '__ZN63_$LT$I$u20$as$u20$core..iter..traits..collect..IntoIterator$GT$9into_iter17h9588916a664cafb8E', symObjAddr: 0x1904, symBinAddr: 0x1C9DC, symSize: 0x1C }
  - { offset: 0x82263, size: 0x8, addend: 0x0, symName: '__ZN63_$LT$I$u20$as$u20$core..iter..traits..collect..IntoIterator$GT$9into_iter17hb6b420690f6ded3fE', symObjAddr: 0x1920, symBinAddr: 0x1C9F8, symSize: 0x14 }
  - { offset: 0x8229A, size: 0x8, addend: 0x0, symName: '__ZN63_$LT$I$u20$as$u20$core..iter..traits..collect..IntoIterator$GT$9into_iter17hbbd3823f505abbd9E', symObjAddr: 0x1934, symBinAddr: 0x1CA0C, symSize: 0x18 }
  - { offset: 0x822D1, size: 0x8, addend: 0x0, symName: '__ZN63_$LT$I$u20$as$u20$core..iter..traits..collect..IntoIterator$GT$9into_iter17hc2a186938c6fc127E', symObjAddr: 0x194C, symBinAddr: 0x1CA24, symSize: 0x1C }
  - { offset: 0x82308, size: 0x8, addend: 0x0, symName: '__ZN63_$LT$I$u20$as$u20$core..iter..traits..collect..IntoIterator$GT$9into_iter17hdd3b0b7e37a5a601E', symObjAddr: 0x1968, symBinAddr: 0x1CA40, symSize: 0x1C }
  - { offset: 0x8233F, size: 0x8, addend: 0x0, symName: '__ZN63_$LT$I$u20$as$u20$core..iter..traits..collect..IntoIterator$GT$9into_iter17heb3ad9b6e0a86951E', symObjAddr: 0x1984, symBinAddr: 0x1CA5C, symSize: 0x1C }
  - { offset: 0x85A19, size: 0x8, addend: 0x0, symName: __ZN4core5slice3raw14from_raw_parts18precondition_check17h60e7f12a98dc50ceE, symObjAddr: 0x0, symBinAddr: 0x1CCA8, symSize: 0x1DC }
  - { offset: 0x85F7C, size: 0x8, addend: 0x0, symName: __ZN4core5slice3raw14from_raw_parts18precondition_check17h60e7f12a98dc50ceE, symObjAddr: 0x0, symBinAddr: 0x1CCA8, symSize: 0x1DC }
  - { offset: 0x86100, size: 0x8, addend: 0x0, symName: __ZN4core5slice3raw18from_raw_parts_mut18precondition_check17ha49fbe24cf1f281cE, symObjAddr: 0x1DC, symBinAddr: 0x1CE84, symSize: 0x1DC }
  - { offset: 0x86463, size: 0x8, addend: 0x0, symName: __ZN4pyo35impl_10trampoline11module_init17hca9b68b9bedb0ec0E, symObjAddr: 0x0, symBinAddr: 0x1D060, symSize: 0x28 }
  - { offset: 0x8787F, size: 0x8, addend: 0x0, symName: __ZN4pyo35impl_10trampoline11module_init17hca9b68b9bedb0ec0E, symObjAddr: 0x0, symBinAddr: 0x1D060, symSize: 0x28 }
  - { offset: 0x878AB, size: 0x8, addend: 0x0, symName: __ZN4pyo35impl_10trampoline11richcmpfunc17h0498dbd0790112f5E, symObjAddr: 0x28, symBinAddr: 0x1D088, symSize: 0x50 }
  - { offset: 0x87901, size: 0x8, addend: 0x0, symName: __ZN4pyo35impl_10trampoline22fastcall_with_keywords17hf8a8d1599f144b15E, symObjAddr: 0x78, symBinAddr: 0x1D0D8, symSize: 0x5C }
  - { offset: 0x87965, size: 0x8, addend: 0x0, symName: __ZN4pyo35impl_10trampoline6noargs17h2776e3cf9a7e2f29E, symObjAddr: 0xD4, symBinAddr: 0x1D134, symSize: 0x64 }
  - { offset: 0x879AD, size: 0x8, addend: 0x0, symName: __ZN4pyo35impl_10trampoline7dealloc17h7bcb5e62f54e7f00E, symObjAddr: 0x138, symBinAddr: 0x1D198, symSize: 0x34 }
  - { offset: 0x879E3, size: 0x8, addend: 0x0, symName: __ZN4pyo35impl_10trampoline7lenfunc17h34202971bbb18ddcE, symObjAddr: 0x16C, symBinAddr: 0x1D1CC, symSize: 0x30 }
  - { offset: 0x87A1D, size: 0x8, addend: 0x0, symName: __ZN4pyo35impl_10trampoline8hashfunc17hc64f61756afdb987E, symObjAddr: 0x19C, symBinAddr: 0x1D1FC, symSize: 0x30 }
  - { offset: 0x87A57, size: 0x8, addend: 0x0, symName: __ZN4pyo35impl_10trampoline8reprfunc17hdeaa9024c74c6ff2E, symObjAddr: 0x1CC, symBinAddr: 0x1D22C, symSize: 0x30 }
  - { offset: 0x88315, size: 0x8, addend: 0x0, symName: __ZN4pyo35impl_16extract_argument16extract_argument17h0a9d1ec7a06a527bE, symObjAddr: 0x0, symBinAddr: 0x1D25C, symSize: 0x124 }
  - { offset: 0x8E359, size: 0x8, addend: 0x0, symName: __ZN4pyo35impl_16extract_argument16extract_argument17h0a9d1ec7a06a527bE, symObjAddr: 0x0, symBinAddr: 0x1D25C, symSize: 0x124 }
  - { offset: 0x8E3DE, size: 0x8, addend: 0x0, symName: __ZN4pyo35impl_16extract_argument16extract_argument17h1174fefee3e1ee3cE, symObjAddr: 0x124, symBinAddr: 0x1D380, symSize: 0x124 }
  - { offset: 0x8E463, size: 0x8, addend: 0x0, symName: __ZN4pyo35impl_16extract_argument16extract_argument17h1cf20afb37358699E, symObjAddr: 0x248, symBinAddr: 0x1D4A4, symSize: 0x124 }
  - { offset: 0x8E4E8, size: 0x8, addend: 0x0, symName: __ZN4pyo35impl_16extract_argument16extract_argument17h2026116cb24decc1E, symObjAddr: 0x36C, symBinAddr: 0x1D5C8, symSize: 0x124 }
  - { offset: 0x8E56D, size: 0x8, addend: 0x0, symName: __ZN4pyo35impl_16extract_argument16extract_argument17h2a90ce8f8b586f9eE, symObjAddr: 0x490, symBinAddr: 0x1D6EC, symSize: 0x124 }
  - { offset: 0x8E5F2, size: 0x8, addend: 0x0, symName: __ZN4pyo35impl_16extract_argument16extract_argument17h7cc1b0711f181c60E, symObjAddr: 0x5B4, symBinAddr: 0x1D810, symSize: 0x124 }
  - { offset: 0x8E677, size: 0x8, addend: 0x0, symName: __ZN4pyo35impl_16extract_argument16extract_argument17h8c474d2491f5c1ffE, symObjAddr: 0x6D8, symBinAddr: 0x1D934, symSize: 0x124 }
  - { offset: 0x8E6FC, size: 0x8, addend: 0x0, symName: __ZN4pyo35impl_16extract_argument16extract_argument17hb9a4e799fa485f3dE, symObjAddr: 0x7FC, symBinAddr: 0x1DA58, symSize: 0x130 }
  - { offset: 0x8E88B, size: 0x8, addend: 0x0, symName: '__ZN4pyo35impl_16extract_argument19FunctionDescription26extract_arguments_fastcall28_$u7b$$u7b$closure$u7d$$u7d$17hae0e695d33dde2c7E', symObjAddr: 0x15F0, symBinAddr: 0x1E84C, symSize: 0x24 }
  - { offset: 0x8E8E3, size: 0x8, addend: 0x0, symName: '__ZN4pyo35impl_16extract_argument19FunctionDescription36find_keyword_parameter_in_positional28_$u7b$$u7b$closure$u7d$$u7d$17hfaaeca96f480239cE', symObjAddr: 0x1614, symBinAddr: 0x1E870, symSize: 0x48 }
  - { offset: 0x8E943, size: 0x8, addend: 0x0, symName: '__ZN4pyo35impl_16extract_argument19FunctionDescription38find_keyword_parameter_in_keyword_only28_$u7b$$u7b$closure$u7d$$u7d$17h2051215243273faeE', symObjAddr: 0x165C, symBinAddr: 0x1E8B8, symSize: 0x38 }
  - { offset: 0x8E985, size: 0x8, addend: 0x0, symName: __ZN4pyo35impl_16extract_argument19extract_pyclass_ref17h07543632e7cffd32E, symObjAddr: 0x1694, symBinAddr: 0x1E8F0, symSize: 0xA0 }
  - { offset: 0x8E9E5, size: 0x8, addend: 0x0, symName: __ZN4pyo35impl_16extract_argument19extract_pyclass_ref17h088727d5aaa7c6e9E, symObjAddr: 0x1734, symBinAddr: 0x1E990, symSize: 0xA0 }
  - { offset: 0x8EA45, size: 0x8, addend: 0x0, symName: __ZN4pyo35impl_16extract_argument19extract_pyclass_ref17h0b3ee2e5b74370a0E, symObjAddr: 0x17D4, symBinAddr: 0x1EA30, symSize: 0xA0 }
  - { offset: 0x8EAA5, size: 0x8, addend: 0x0, symName: __ZN4pyo35impl_16extract_argument19extract_pyclass_ref17h0d89e114b9132345E, symObjAddr: 0x1874, symBinAddr: 0x1EAD0, symSize: 0xA0 }
  - { offset: 0x8EB05, size: 0x8, addend: 0x0, symName: __ZN4pyo35impl_16extract_argument19extract_pyclass_ref17h1190c8d2894ff69cE, symObjAddr: 0x1914, symBinAddr: 0x1EB70, symSize: 0xA0 }
  - { offset: 0x8EB65, size: 0x8, addend: 0x0, symName: __ZN4pyo35impl_16extract_argument19extract_pyclass_ref17h13153192e2ecc8bfE, symObjAddr: 0x19B4, symBinAddr: 0x1EC10, symSize: 0xA0 }
  - { offset: 0x8EBC5, size: 0x8, addend: 0x0, symName: __ZN4pyo35impl_16extract_argument19extract_pyclass_ref17h1442ae9e4ab779a0E, symObjAddr: 0x1A54, symBinAddr: 0x1ECB0, symSize: 0xA0 }
  - { offset: 0x8EC25, size: 0x8, addend: 0x0, symName: __ZN4pyo35impl_16extract_argument19extract_pyclass_ref17h1b0a2bcb634e0109E, symObjAddr: 0x1AF4, symBinAddr: 0x1ED50, symSize: 0xA0 }
  - { offset: 0x8EC85, size: 0x8, addend: 0x0, symName: __ZN4pyo35impl_16extract_argument19extract_pyclass_ref17h1d8f872fa25ad7a6E, symObjAddr: 0x1B94, symBinAddr: 0x1EDF0, symSize: 0xA0 }
  - { offset: 0x8ECE5, size: 0x8, addend: 0x0, symName: __ZN4pyo35impl_16extract_argument19extract_pyclass_ref17h2abc07d0f663a8f2E, symObjAddr: 0x1C34, symBinAddr: 0x1EE90, symSize: 0xA0 }
  - { offset: 0x8ED45, size: 0x8, addend: 0x0, symName: __ZN4pyo35impl_16extract_argument19extract_pyclass_ref17h3065821b25487866E, symObjAddr: 0x1CD4, symBinAddr: 0x1EF30, symSize: 0xA0 }
  - { offset: 0x8EDA5, size: 0x8, addend: 0x0, symName: __ZN4pyo35impl_16extract_argument19extract_pyclass_ref17h34a99630e919499dE, symObjAddr: 0x1D74, symBinAddr: 0x1EFD0, symSize: 0xA0 }
  - { offset: 0x8EE05, size: 0x8, addend: 0x0, symName: __ZN4pyo35impl_16extract_argument19extract_pyclass_ref17h3c1beb0a9f892f8fE, symObjAddr: 0x1E14, symBinAddr: 0x1F070, symSize: 0xA0 }
  - { offset: 0x8EE65, size: 0x8, addend: 0x0, symName: __ZN4pyo35impl_16extract_argument19extract_pyclass_ref17h3d2a4adb0623143bE, symObjAddr: 0x1EB4, symBinAddr: 0x1F110, symSize: 0xA0 }
  - { offset: 0x8EEC5, size: 0x8, addend: 0x0, symName: __ZN4pyo35impl_16extract_argument19extract_pyclass_ref17h3d37cd1d93a51d59E, symObjAddr: 0x1F54, symBinAddr: 0x1F1B0, symSize: 0xA0 }
  - { offset: 0x8EF25, size: 0x8, addend: 0x0, symName: __ZN4pyo35impl_16extract_argument19extract_pyclass_ref17h494098d54fdcc9efE, symObjAddr: 0x1FF4, symBinAddr: 0x1F250, symSize: 0xA0 }
  - { offset: 0x8EF85, size: 0x8, addend: 0x0, symName: __ZN4pyo35impl_16extract_argument19extract_pyclass_ref17h542811aa3b4e967dE, symObjAddr: 0x2094, symBinAddr: 0x1F2F0, symSize: 0xA0 }
  - { offset: 0x8EFE5, size: 0x8, addend: 0x0, symName: __ZN4pyo35impl_16extract_argument19extract_pyclass_ref17h54bba405b80c82edE, symObjAddr: 0x2134, symBinAddr: 0x1F390, symSize: 0xA0 }
  - { offset: 0x8F045, size: 0x8, addend: 0x0, symName: __ZN4pyo35impl_16extract_argument19extract_pyclass_ref17h603150177d9026c1E, symObjAddr: 0x21D4, symBinAddr: 0x1F430, symSize: 0xA0 }
  - { offset: 0x8F0A5, size: 0x8, addend: 0x0, symName: __ZN4pyo35impl_16extract_argument19extract_pyclass_ref17h647d5f81b2ed4780E, symObjAddr: 0x2274, symBinAddr: 0x1F4D0, symSize: 0xA0 }
  - { offset: 0x8F105, size: 0x8, addend: 0x0, symName: __ZN4pyo35impl_16extract_argument19extract_pyclass_ref17h6a23ea45ca389b5eE, symObjAddr: 0x2314, symBinAddr: 0x1F570, symSize: 0xA0 }
  - { offset: 0x8F165, size: 0x8, addend: 0x0, symName: __ZN4pyo35impl_16extract_argument19extract_pyclass_ref17h6c06ac9af01cba92E, symObjAddr: 0x23B4, symBinAddr: 0x1F610, symSize: 0xA0 }
  - { offset: 0x8F1C5, size: 0x8, addend: 0x0, symName: __ZN4pyo35impl_16extract_argument19extract_pyclass_ref17h750fb00bcd8eae0eE, symObjAddr: 0x2454, symBinAddr: 0x1F6B0, symSize: 0xA0 }
  - { offset: 0x8F225, size: 0x8, addend: 0x0, symName: __ZN4pyo35impl_16extract_argument19extract_pyclass_ref17h76efd21c311d5746E, symObjAddr: 0x24F4, symBinAddr: 0x1F750, symSize: 0xA0 }
  - { offset: 0x8F285, size: 0x8, addend: 0x0, symName: __ZN4pyo35impl_16extract_argument19extract_pyclass_ref17h7910587f5c4a35a9E, symObjAddr: 0x2594, symBinAddr: 0x1F7F0, symSize: 0xA0 }
  - { offset: 0x8F2E5, size: 0x8, addend: 0x0, symName: __ZN4pyo35impl_16extract_argument19extract_pyclass_ref17h79b31b4119cd58e3E, symObjAddr: 0x2634, symBinAddr: 0x1F890, symSize: 0xA0 }
  - { offset: 0x8F345, size: 0x8, addend: 0x0, symName: __ZN4pyo35impl_16extract_argument19extract_pyclass_ref17h830a2f9a38beaa64E, symObjAddr: 0x26D4, symBinAddr: 0x1F930, symSize: 0xA0 }
  - { offset: 0x8F3A5, size: 0x8, addend: 0x0, symName: __ZN4pyo35impl_16extract_argument19extract_pyclass_ref17h87a74eb0199f2db2E, symObjAddr: 0x2774, symBinAddr: 0x1F9D0, symSize: 0xA0 }
  - { offset: 0x8F405, size: 0x8, addend: 0x0, symName: __ZN4pyo35impl_16extract_argument19extract_pyclass_ref17h8b0eeb4b650b69deE, symObjAddr: 0x2814, symBinAddr: 0x1FA70, symSize: 0xA0 }
  - { offset: 0x8F465, size: 0x8, addend: 0x0, symName: __ZN4pyo35impl_16extract_argument19extract_pyclass_ref17h8f28327e9c5d91b6E, symObjAddr: 0x28B4, symBinAddr: 0x1FB10, symSize: 0xA0 }
  - { offset: 0x8F4C5, size: 0x8, addend: 0x0, symName: __ZN4pyo35impl_16extract_argument19extract_pyclass_ref17h8ff69f8127b30dc9E, symObjAddr: 0x2954, symBinAddr: 0x1FBB0, symSize: 0xA0 }
  - { offset: 0x8F525, size: 0x8, addend: 0x0, symName: __ZN4pyo35impl_16extract_argument19extract_pyclass_ref17h9046a8d66b752949E, symObjAddr: 0x29F4, symBinAddr: 0x1FC50, symSize: 0xA0 }
  - { offset: 0x8F585, size: 0x8, addend: 0x0, symName: __ZN4pyo35impl_16extract_argument19extract_pyclass_ref17h951dedadf194bb62E, symObjAddr: 0x2A94, symBinAddr: 0x1FCF0, symSize: 0xA0 }
  - { offset: 0x8F5E5, size: 0x8, addend: 0x0, symName: __ZN4pyo35impl_16extract_argument19extract_pyclass_ref17h99db53e8c1b8791bE, symObjAddr: 0x2B34, symBinAddr: 0x1FD90, symSize: 0xA0 }
  - { offset: 0x8F645, size: 0x8, addend: 0x0, symName: __ZN4pyo35impl_16extract_argument19extract_pyclass_ref17h9ae18a777e05dff9E, symObjAddr: 0x2BD4, symBinAddr: 0x1FE30, symSize: 0xA0 }
  - { offset: 0x8F6A5, size: 0x8, addend: 0x0, symName: __ZN4pyo35impl_16extract_argument19extract_pyclass_ref17h9ef0772d129cc135E, symObjAddr: 0x2C74, symBinAddr: 0x1FED0, symSize: 0xA0 }
  - { offset: 0x8F705, size: 0x8, addend: 0x0, symName: __ZN4pyo35impl_16extract_argument19extract_pyclass_ref17ha9324cb8d30114bfE, symObjAddr: 0x2D14, symBinAddr: 0x1FF70, symSize: 0xA0 }
  - { offset: 0x8F765, size: 0x8, addend: 0x0, symName: __ZN4pyo35impl_16extract_argument19extract_pyclass_ref17haabcc20d44ae2d4eE, symObjAddr: 0x2DB4, symBinAddr: 0x20010, symSize: 0xA0 }
  - { offset: 0x8F7C5, size: 0x8, addend: 0x0, symName: __ZN4pyo35impl_16extract_argument19extract_pyclass_ref17hadacf1b4c63f88c0E, symObjAddr: 0x2E54, symBinAddr: 0x200B0, symSize: 0xA0 }
  - { offset: 0x8F825, size: 0x8, addend: 0x0, symName: __ZN4pyo35impl_16extract_argument19extract_pyclass_ref17hb2c17d2e67cd522fE, symObjAddr: 0x2EF4, symBinAddr: 0x20150, symSize: 0xA0 }
  - { offset: 0x8F885, size: 0x8, addend: 0x0, symName: __ZN4pyo35impl_16extract_argument19extract_pyclass_ref17hb4f7444e2aa2f6faE, symObjAddr: 0x2F94, symBinAddr: 0x201F0, symSize: 0xA0 }
  - { offset: 0x8F8E5, size: 0x8, addend: 0x0, symName: __ZN4pyo35impl_16extract_argument19extract_pyclass_ref17hb6028adc1a9bcd6bE, symObjAddr: 0x3034, symBinAddr: 0x20290, symSize: 0xA0 }
  - { offset: 0x8F945, size: 0x8, addend: 0x0, symName: __ZN4pyo35impl_16extract_argument19extract_pyclass_ref17hb71759ec4ac63e85E, symObjAddr: 0x30D4, symBinAddr: 0x20330, symSize: 0xA0 }
  - { offset: 0x8F9A5, size: 0x8, addend: 0x0, symName: __ZN4pyo35impl_16extract_argument19extract_pyclass_ref17hb92934e9722bbbe1E, symObjAddr: 0x3174, symBinAddr: 0x203D0, symSize: 0xA0 }
  - { offset: 0x8FA05, size: 0x8, addend: 0x0, symName: __ZN4pyo35impl_16extract_argument19extract_pyclass_ref17hbc6af56303549317E, symObjAddr: 0x3214, symBinAddr: 0x20470, symSize: 0xA0 }
  - { offset: 0x8FA65, size: 0x8, addend: 0x0, symName: __ZN4pyo35impl_16extract_argument19extract_pyclass_ref17hbd9500e17547305aE, symObjAddr: 0x32B4, symBinAddr: 0x20510, symSize: 0xA0 }
  - { offset: 0x8FAC5, size: 0x8, addend: 0x0, symName: __ZN4pyo35impl_16extract_argument19extract_pyclass_ref17hbdc3454bb21cbf4dE, symObjAddr: 0x3354, symBinAddr: 0x205B0, symSize: 0xA0 }
  - { offset: 0x8FB25, size: 0x8, addend: 0x0, symName: __ZN4pyo35impl_16extract_argument19extract_pyclass_ref17hc6b61d12ac0aac96E, symObjAddr: 0x33F4, symBinAddr: 0x20650, symSize: 0xA0 }
  - { offset: 0x8FB85, size: 0x8, addend: 0x0, symName: __ZN4pyo35impl_16extract_argument19extract_pyclass_ref17hc8880b4aaef9732dE, symObjAddr: 0x3494, symBinAddr: 0x206F0, symSize: 0xA0 }
  - { offset: 0x8FBE5, size: 0x8, addend: 0x0, symName: __ZN4pyo35impl_16extract_argument19extract_pyclass_ref17hd62c89c1b6a15aa7E, symObjAddr: 0x3534, symBinAddr: 0x20790, symSize: 0xA0 }
  - { offset: 0x8FC45, size: 0x8, addend: 0x0, symName: __ZN4pyo35impl_16extract_argument19extract_pyclass_ref17hd6d15119f3d0c9e7E, symObjAddr: 0x35D4, symBinAddr: 0x20830, symSize: 0xA0 }
  - { offset: 0x8FCA5, size: 0x8, addend: 0x0, symName: __ZN4pyo35impl_16extract_argument19extract_pyclass_ref17hd9c9c96623572242E, symObjAddr: 0x3674, symBinAddr: 0x208D0, symSize: 0xA0 }
  - { offset: 0x8FD05, size: 0x8, addend: 0x0, symName: __ZN4pyo35impl_16extract_argument19extract_pyclass_ref17hde7a2d6a1486ef7eE, symObjAddr: 0x3714, symBinAddr: 0x20970, symSize: 0xA0 }
  - { offset: 0x8FD65, size: 0x8, addend: 0x0, symName: __ZN4pyo35impl_16extract_argument19extract_pyclass_ref17he2cd9633e12387fbE, symObjAddr: 0x37B4, symBinAddr: 0x20A10, symSize: 0xA0 }
  - { offset: 0x8FDC5, size: 0x8, addend: 0x0, symName: __ZN4pyo35impl_16extract_argument19extract_pyclass_ref17hea87645e3bd84fb2E, symObjAddr: 0x3854, symBinAddr: 0x20AB0, symSize: 0xA0 }
  - { offset: 0x8FE25, size: 0x8, addend: 0x0, symName: __ZN4pyo35impl_16extract_argument19extract_pyclass_ref17hf499555dc64b9fe7E, symObjAddr: 0x38F4, symBinAddr: 0x20B50, symSize: 0xA0 }
  - { offset: 0x8FE85, size: 0x8, addend: 0x0, symName: __ZN4pyo35impl_16extract_argument19extract_pyclass_ref17hf90d6221c722a6e9E, symObjAddr: 0x3994, symBinAddr: 0x20BF0, symSize: 0xA0 }
  - { offset: 0x8FEE5, size: 0x8, addend: 0x0, symName: __ZN4pyo35impl_16extract_argument19extract_pyclass_ref17hfdda5325206deba9E, symObjAddr: 0x3A34, symBinAddr: 0x20C90, symSize: 0xA0 }
  - { offset: 0x8FF45, size: 0x8, addend: 0x0, symName: __ZN4pyo35impl_16extract_argument23extract_pyclass_ref_mut17h87e9c12a08b5de55E, symObjAddr: 0x3AD4, symBinAddr: 0x20D30, symSize: 0xA0 }
  - { offset: 0x8FFAA, size: 0x8, addend: 0x0, symName: '__ZN71_$LT$T$u20$as$u20$pyo3..impl_..extract_argument..PyFunctionArgument$GT$7extract17h8e8c2458a260190bE', symObjAddr: 0x3B74, symBinAddr: 0x20DD0, symSize: 0x28 }
  - { offset: 0x8FFE9, size: 0x8, addend: 0x0, symName: '__ZN71_$LT$T$u20$as$u20$pyo3..impl_..extract_argument..PyFunctionArgument$GT$7extract17hc93853ea7604b801E', symObjAddr: 0x3B9C, symBinAddr: 0x20DF8, symSize: 0x28 }
  - { offset: 0x92384, size: 0x8, addend: 0x0, symName: __ZN4pyo35impl_16extract_argument19FunctionDescription13handle_kwargs17h986997bc079cde0bE, symObjAddr: 0x92C, symBinAddr: 0x1DB88, symSize: 0x6F4 }
  - { offset: 0x9259D, size: 0x8, addend: 0x0, symName: __ZN4pyo35impl_16extract_argument19FunctionDescription26extract_arguments_fastcall17hebaf25d0dfec947aE, symObjAddr: 0x1020, symBinAddr: 0x1E27C, symSize: 0x5D0 }
  - { offset: 0x93B4F, size: 0x8, addend: 0x0, symName: '__ZN13_typst_syntax11syntax_kind216_$LT$impl$u20$pyo3..impl_..pyclass..PyClass__eq__SlotFragment$LT$_typst_syntax..syntax_kind..PySyntaxKind$GT$$u20$for$u20$pyo3..impl_..pyclass..PyClassImplCollector$LT$_typst_syntax..syntax_kind..PySyntaxKind$GT$$GT$6__eq__17h8a56049c3316590aE', symObjAddr: 0x0, symBinAddr: 0x20E20, symSize: 0x2C }
  - { offset: 0x95C85, size: 0x8, addend: 0x0, symName: '__ZN13_typst_syntax11syntax_kind216_$LT$impl$u20$pyo3..impl_..pyclass..PyClass__eq__SlotFragment$LT$_typst_syntax..syntax_kind..PySyntaxKind$GT$$u20$for$u20$pyo3..impl_..pyclass..PyClassImplCollector$LT$_typst_syntax..syntax_kind..PySyntaxKind$GT$$GT$6__eq__17h8a56049c3316590aE', symObjAddr: 0x0, symBinAddr: 0x20E20, symSize: 0x2C }
  - { offset: 0x95CF7, size: 0x8, addend: 0x0, symName: '__ZN13_typst_syntax11syntax_kind200_$LT$impl$u20$pyo3..impl_..pyclass..PyMethods$LT$_typst_syntax..syntax_kind..PySyntaxKind$GT$$u20$for$u20$pyo3..impl_..pyclass..PyClassImplCollector$LT$_typst_syntax..syntax_kind..PySyntaxKind$GT$$GT$10py_methods17hc4050e07b623bf7fE', symObjAddr: 0x2C, symBinAddr: 0x20E4C, symSize: 0x14 }
  - { offset: 0x95D4F, size: 0x8, addend: 0x0, symName: '__ZN13_typst_syntax4span174_$LT$impl$u20$pyo3..impl_..pyclass..PyMethods$LT$_typst_syntax..span..PySpan$GT$$u20$for$u20$pyo3..impl_..pyclass..PyClassImplCollector$LT$_typst_syntax..span..PySpan$GT$$GT$10py_methods17hce881b7e358be4e1E', symObjAddr: 0x40, symBinAddr: 0x20E60, symSize: 0x14 }
  - { offset: 0x95D8C, size: 0x8, addend: 0x0, symName: '__ZN13_typst_syntax4span178_$LT$impl$u20$pyo3..impl_..pyclass..PyMethods$LT$_typst_syntax..span..PyFileId$GT$$u20$for$u20$pyo3..impl_..pyclass..PyClassImplCollector$LT$_typst_syntax..span..PyFileId$GT$$GT$10py_methods17hb24ba4ae3a16fd4fE', symObjAddr: 0x54, symBinAddr: 0x20E74, symSize: 0x14 }
  - { offset: 0x95DF9, size: 0x8, addend: 0x0, symName: '__ZN13_typst_syntax5error190_$LT$impl$u20$pyo3..impl_..pyclass..PyMethods$LT$_typst_syntax..error..PySyntaxError$GT$$u20$for$u20$pyo3..impl_..pyclass..PyClassImplCollector$LT$_typst_syntax..error..PySyntaxError$GT$$GT$10py_methods17h128392931d28f798E', symObjAddr: 0x68, symBinAddr: 0x20E88, symSize: 0x14 }
  - { offset: 0x95E69, size: 0x8, addend: 0x0, symName: '__ZN13_typst_syntax11syntax_node200_$LT$impl$u20$pyo3..impl_..pyclass..PyMethods$LT$_typst_syntax..syntax_node..PySyntaxNode$GT$$u20$for$u20$pyo3..impl_..pyclass..PyClassImplCollector$LT$_typst_syntax..syntax_node..PySyntaxNode$GT$$GT$10py_methods17hf367db97730d8731E', symObjAddr: 0x7C, symBinAddr: 0x20E9C, symSize: 0x14 }
  - { offset: 0x95EC1, size: 0x8, addend: 0x0, symName: '__ZN13_typst_syntax6source182_$LT$impl$u20$pyo3..impl_..pyclass..PyMethods$LT$_typst_syntax..source..PySource$GT$$u20$for$u20$pyo3..impl_..pyclass..PyClassImplCollector$LT$_typst_syntax..source..PySource$GT$$GT$10py_methods17hb7461a959eae966fE', symObjAddr: 0x90, symBinAddr: 0x20EB0, symSize: 0x14 }
  - { offset: 0x95EFE, size: 0x8, addend: 0x0, symName: '__ZN13_typst_syntax6source180_$LT$impl$u20$pyo3..impl_..pyclass..PyMethods$LT$_typst_syntax..source..PyLines$GT$$u20$for$u20$pyo3..impl_..pyclass..PyClassImplCollector$LT$_typst_syntax..source..PyLines$GT$$GT$10py_methods17hb6e3b72806b01812E', symObjAddr: 0xA4, symBinAddr: 0x20EC4, symSize: 0x14 }
  - { offset: 0x95F6B, size: 0x8, addend: 0x0, symName: '__ZN13_typst_syntax11linked_node200_$LT$impl$u20$pyo3..impl_..pyclass..PyMethods$LT$_typst_syntax..linked_node..PyLinkedNode$GT$$u20$for$u20$pyo3..impl_..pyclass..PyClassImplCollector$LT$_typst_syntax..linked_node..PyLinkedNode$GT$$GT$10py_methods17ha495337861200369E', symObjAddr: 0xB8, symBinAddr: 0x20ED8, symSize: 0x14 }
  - { offset: 0x95FCF, size: 0x8, addend: 0x0, symName: '__ZN13_typst_syntax9highlight198_$LT$impl$u20$pyo3..impl_..pyclass..PyClass__eq__SlotFragment$LT$_typst_syntax..highlight..PyTag$GT$$u20$for$u20$pyo3..impl_..pyclass..PyClassImplCollector$LT$_typst_syntax..highlight..PyTag$GT$$GT$6__eq__17h59002ece002d1ff8E', symObjAddr: 0xCC, symBinAddr: 0x20EEC, symSize: 0x2C }
  - { offset: 0x96041, size: 0x8, addend: 0x0, symName: '__ZN13_typst_syntax9highlight182_$LT$impl$u20$pyo3..impl_..pyclass..PyMethods$LT$_typst_syntax..highlight..PyTag$GT$$u20$for$u20$pyo3..impl_..pyclass..PyClassImplCollector$LT$_typst_syntax..highlight..PyTag$GT$$GT$10py_methods17h24498a70479a61cdE', symObjAddr: 0xF8, symBinAddr: 0x20F18, symSize: 0x14 }
  - { offset: 0x9609E, size: 0x8, addend: 0x0, symName: '__ZN13_typst_syntax3ast6markup192_$LT$impl$u20$pyo3..impl_..pyclass..PyMethods$LT$_typst_syntax..ast..markup..PyMarkup$GT$$u20$for$u20$pyo3..impl_..pyclass..PyClassImplCollector$LT$_typst_syntax..ast..markup..PyMarkup$GT$$GT$10py_methods17haa0fffa9d230459eE', symObjAddr: 0x10C, symBinAddr: 0x20F2C, symSize: 0x14 }
  - { offset: 0x960DB, size: 0x8, addend: 0x0, symName: '__ZN13_typst_syntax3ast6markup194_$LT$impl$u20$pyo3..impl_..pyclass..PyMethods$LT$_typst_syntax..ast..markup..PyHeading$GT$$u20$for$u20$pyo3..impl_..pyclass..PyClassImplCollector$LT$_typst_syntax..ast..markup..PyHeading$GT$$GT$10py_methods17hd6543ffc9e30398bE', symObjAddr: 0x120, symBinAddr: 0x20F40, symSize: 0x14 }
  - { offset: 0x96118, size: 0x8, addend: 0x0, symName: '__ZN13_typst_syntax3ast6markup192_$LT$impl$u20$pyo3..impl_..pyclass..PyMethods$LT$_typst_syntax..ast..markup..PyStrong$GT$$u20$for$u20$pyo3..impl_..pyclass..PyClassImplCollector$LT$_typst_syntax..ast..markup..PyStrong$GT$$GT$10py_methods17hd3674635709cf46dE', symObjAddr: 0x134, symBinAddr: 0x20F54, symSize: 0x14 }
  - { offset: 0x96155, size: 0x8, addend: 0x0, symName: '__ZN13_typst_syntax3ast6markup188_$LT$impl$u20$pyo3..impl_..pyclass..PyMethods$LT$_typst_syntax..ast..markup..PyEmph$GT$$u20$for$u20$pyo3..impl_..pyclass..PyClassImplCollector$LT$_typst_syntax..ast..markup..PyEmph$GT$$GT$10py_methods17h1efa6a28bb94c499E', symObjAddr: 0x148, symBinAddr: 0x20F68, symSize: 0x14 }
  - { offset: 0x96192, size: 0x8, addend: 0x0, symName: '__ZN13_typst_syntax3ast6markup186_$LT$impl$u20$pyo3..impl_..pyclass..PyMethods$LT$_typst_syntax..ast..markup..PyRaw$GT$$u20$for$u20$pyo3..impl_..pyclass..PyClassImplCollector$LT$_typst_syntax..ast..markup..PyRaw$GT$$GT$10py_methods17h49bd81cc4a4df133E', symObjAddr: 0x15C, symBinAddr: 0x20F7C, symSize: 0x14 }
  - { offset: 0x961CF, size: 0x8, addend: 0x0, symName: '__ZN13_typst_syntax3ast6markup188_$LT$impl$u20$pyo3..impl_..pyclass..PyMethods$LT$_typst_syntax..ast..markup..PyLink$GT$$u20$for$u20$pyo3..impl_..pyclass..PyClassImplCollector$LT$_typst_syntax..ast..markup..PyLink$GT$$GT$10py_methods17h50c794068e5e2716E', symObjAddr: 0x170, symBinAddr: 0x20F90, symSize: 0x14 }
  - { offset: 0x9620C, size: 0x8, addend: 0x0, symName: '__ZN13_typst_syntax3ast6markup190_$LT$impl$u20$pyo3..impl_..pyclass..PyMethods$LT$_typst_syntax..ast..markup..PyLabel$GT$$u20$for$u20$pyo3..impl_..pyclass..PyClassImplCollector$LT$_typst_syntax..ast..markup..PyLabel$GT$$GT$10py_methods17h28f455ec7546fd16E', symObjAddr: 0x184, symBinAddr: 0x20FA4, symSize: 0x14 }
  - { offset: 0x96249, size: 0x8, addend: 0x0, symName: '__ZN13_typst_syntax3ast6markup186_$LT$impl$u20$pyo3..impl_..pyclass..PyMethods$LT$_typst_syntax..ast..markup..PyRef$GT$$u20$for$u20$pyo3..impl_..pyclass..PyClassImplCollector$LT$_typst_syntax..ast..markup..PyRef$GT$$GT$10py_methods17h33e5b61df15cea3cE', symObjAddr: 0x198, symBinAddr: 0x20FB8, symSize: 0x14 }
  - { offset: 0x96286, size: 0x8, addend: 0x0, symName: '__ZN13_typst_syntax3ast6markup196_$LT$impl$u20$pyo3..impl_..pyclass..PyMethods$LT$_typst_syntax..ast..markup..PyListItem$GT$$u20$for$u20$pyo3..impl_..pyclass..PyClassImplCollector$LT$_typst_syntax..ast..markup..PyListItem$GT$$GT$10py_methods17he2da293c878df94dE', symObjAddr: 0x1AC, symBinAddr: 0x20FCC, symSize: 0x14 }
  - { offset: 0x962C3, size: 0x8, addend: 0x0, symName: '__ZN13_typst_syntax3ast6markup196_$LT$impl$u20$pyo3..impl_..pyclass..PyMethods$LT$_typst_syntax..ast..markup..PyEnumItem$GT$$u20$for$u20$pyo3..impl_..pyclass..PyClassImplCollector$LT$_typst_syntax..ast..markup..PyEnumItem$GT$$GT$10py_methods17h3e0a23de6fc62783E', symObjAddr: 0x1C0, symBinAddr: 0x20FE0, symSize: 0x14 }
  - { offset: 0x96300, size: 0x8, addend: 0x0, symName: '__ZN13_typst_syntax3ast6markup196_$LT$impl$u20$pyo3..impl_..pyclass..PyMethods$LT$_typst_syntax..ast..markup..PyTermItem$GT$$u20$for$u20$pyo3..impl_..pyclass..PyClassImplCollector$LT$_typst_syntax..ast..markup..PyTermItem$GT$$GT$10py_methods17h4a349d33169e5003E', symObjAddr: 0x1D4, symBinAddr: 0x20FF4, symSize: 0x14 }
  - { offset: 0x9633D, size: 0x8, addend: 0x0, symName: '__ZN13_typst_syntax3ast6markup200_$LT$impl$u20$pyo3..impl_..pyclass..PyMethods$LT$_typst_syntax..ast..markup..PySmartQuote$GT$$u20$for$u20$pyo3..impl_..pyclass..PyClassImplCollector$LT$_typst_syntax..ast..markup..PySmartQuote$GT$$GT$10py_methods17h39d022ba310d1b9cE', symObjAddr: 0x1E8, symBinAddr: 0x21008, symSize: 0x14 }
  - { offset: 0x9637A, size: 0x8, addend: 0x0, symName: '__ZN13_typst_syntax3ast6markup192_$LT$impl$u20$pyo3..impl_..pyclass..PyMethods$LT$_typst_syntax..ast..markup..PyEscape$GT$$u20$for$u20$pyo3..impl_..pyclass..PyClassImplCollector$LT$_typst_syntax..ast..markup..PyEscape$GT$$GT$10py_methods17hd7a9ba4fe8aabb19E', symObjAddr: 0x1FC, symBinAddr: 0x2101C, symSize: 0x14 }
  - { offset: 0x963BA, size: 0x8, addend: 0x0, symName: '__ZN13_typst_syntax3ast6markup198_$LT$impl$u20$pyo3..impl_..pyclass..PyMethods$LT$_typst_syntax..ast..markup..PyShorthand$GT$$u20$for$u20$pyo3..impl_..pyclass..PyClassImplCollector$LT$_typst_syntax..ast..markup..PyShorthand$GT$$GT$10py_methods17h86cd0ac4d4e43476E', symObjAddr: 0x210, symBinAddr: 0x21030, symSize: 0x14 }
  - { offset: 0x96526, size: 0x8, addend: 0x0, symName: '__ZN13_typst_syntax3ast4code186_$LT$impl$u20$pyo3..impl_..pyclass..PyMethods$LT$_typst_syntax..ast..code..PyIdent$GT$$u20$for$u20$pyo3..impl_..pyclass..PyClassImplCollector$LT$_typst_syntax..ast..code..PyIdent$GT$$GT$10py_methods17hc12e58e49a343ce3E', symObjAddr: 0x224, symBinAddr: 0x21044, symSize: 0x14 }
  - { offset: 0x96563, size: 0x8, addend: 0x0, symName: '__ZN13_typst_syntax3ast4code184_$LT$impl$u20$pyo3..impl_..pyclass..PyMethods$LT$_typst_syntax..ast..code..PyBool$GT$$u20$for$u20$pyo3..impl_..pyclass..PyClassImplCollector$LT$_typst_syntax..ast..code..PyBool$GT$$GT$10py_methods17h45e3b8f9e5aa0fefE', symObjAddr: 0x238, symBinAddr: 0x21058, symSize: 0x14 }
  - { offset: 0x965A0, size: 0x8, addend: 0x0, symName: '__ZN13_typst_syntax3ast4code182_$LT$impl$u20$pyo3..impl_..pyclass..PyMethods$LT$_typst_syntax..ast..code..PyInt$GT$$u20$for$u20$pyo3..impl_..pyclass..PyClassImplCollector$LT$_typst_syntax..ast..code..PyInt$GT$$GT$10py_methods17h275f3b66804440ebE', symObjAddr: 0x24C, symBinAddr: 0x2106C, symSize: 0x14 }
  - { offset: 0x965DD, size: 0x8, addend: 0x0, symName: '__ZN13_typst_syntax3ast4code186_$LT$impl$u20$pyo3..impl_..pyclass..PyMethods$LT$_typst_syntax..ast..code..PyFloat$GT$$u20$for$u20$pyo3..impl_..pyclass..PyClassImplCollector$LT$_typst_syntax..ast..code..PyFloat$GT$$GT$10py_methods17h56162efe6a599d46E', symObjAddr: 0x260, symBinAddr: 0x21080, symSize: 0x14 }
  - { offset: 0x9661A, size: 0x8, addend: 0x0, symName: '__ZN13_typst_syntax3ast4code182_$LT$impl$u20$pyo3..impl_..pyclass..PyMethods$LT$_typst_syntax..ast..code..PyStr$GT$$u20$for$u20$pyo3..impl_..pyclass..PyClassImplCollector$LT$_typst_syntax..ast..code..PyStr$GT$$GT$10py_methods17h80226b502f75fd2aE', symObjAddr: 0x274, symBinAddr: 0x21094, symSize: 0x14 }
  - { offset: 0x96657, size: 0x8, addend: 0x0, symName: '__ZN13_typst_syntax3ast4code190_$LT$impl$u20$pyo3..impl_..pyclass..PyMethods$LT$_typst_syntax..ast..code..PyNumeric$GT$$u20$for$u20$pyo3..impl_..pyclass..PyClassImplCollector$LT$_typst_syntax..ast..code..PyNumeric$GT$$GT$10py_methods17h58269f73e06a3b3cE', symObjAddr: 0x288, symBinAddr: 0x210A8, symSize: 0x14 }
  - { offset: 0x96694, size: 0x8, addend: 0x0, symName: '__ZN13_typst_syntax3ast4code186_$LT$impl$u20$pyo3..impl_..pyclass..PyMethods$LT$_typst_syntax..ast..code..PyArray$GT$$u20$for$u20$pyo3..impl_..pyclass..PyClassImplCollector$LT$_typst_syntax..ast..code..PyArray$GT$$GT$10py_methods17h1b54839af8191cbeE', symObjAddr: 0x29C, symBinAddr: 0x210BC, symSize: 0x14 }
  - { offset: 0x966D1, size: 0x8, addend: 0x0, symName: '__ZN13_typst_syntax3ast4code184_$LT$impl$u20$pyo3..impl_..pyclass..PyMethods$LT$_typst_syntax..ast..code..PyDict$GT$$u20$for$u20$pyo3..impl_..pyclass..PyClassImplCollector$LT$_typst_syntax..ast..code..PyDict$GT$$GT$10py_methods17h9ec3bcd0c81549aeE', symObjAddr: 0x2B0, symBinAddr: 0x210D0, symSize: 0x14 }
  - { offset: 0x9670E, size: 0x8, addend: 0x0, symName: '__ZN13_typst_syntax3ast4code186_$LT$impl$u20$pyo3..impl_..pyclass..PyMethods$LT$_typst_syntax..ast..code..PyNamed$GT$$u20$for$u20$pyo3..impl_..pyclass..PyClassImplCollector$LT$_typst_syntax..ast..code..PyNamed$GT$$GT$10py_methods17he3d53cb555d5f2e4E', symObjAddr: 0x2C4, symBinAddr: 0x210E4, symSize: 0x14 }
  - { offset: 0x9674B, size: 0x8, addend: 0x0, symName: '__ZN13_typst_syntax3ast4code198_$LT$impl$u20$pyo3..impl_..pyclass..PyMethods$LT$_typst_syntax..ast..code..PyFieldAccess$GT$$u20$for$u20$pyo3..impl_..pyclass..PyClassImplCollector$LT$_typst_syntax..ast..code..PyFieldAccess$GT$$GT$10py_methods17h7c21670f164956acE', symObjAddr: 0x2D8, symBinAddr: 0x210F8, symSize: 0x14 }
  - { offset: 0x96788, size: 0x8, addend: 0x0, symName: '__ZN13_typst_syntax3ast4code192_$LT$impl$u20$pyo3..impl_..pyclass..PyMethods$LT$_typst_syntax..ast..code..PyFuncCall$GT$$u20$for$u20$pyo3..impl_..pyclass..PyClassImplCollector$LT$_typst_syntax..ast..code..PyFuncCall$GT$$GT$10py_methods17h5af0fabb137f5524E', symObjAddr: 0x2EC, symBinAddr: 0x2110C, symSize: 0x14 }
  - { offset: 0x967C5, size: 0x8, addend: 0x0, symName: '__ZN13_typst_syntax3ast4code190_$LT$impl$u20$pyo3..impl_..pyclass..PyMethods$LT$_typst_syntax..ast..code..PyClosure$GT$$u20$for$u20$pyo3..impl_..pyclass..PyClassImplCollector$LT$_typst_syntax..ast..code..PyClosure$GT$$GT$10py_methods17hed7073b1dae802d5E', symObjAddr: 0x300, symBinAddr: 0x21120, symSize: 0x14 }
  - { offset: 0x96802, size: 0x8, addend: 0x0, symName: '__ZN13_typst_syntax3ast4code196_$LT$impl$u20$pyo3..impl_..pyclass..PyMethods$LT$_typst_syntax..ast..code..PyLetBinding$GT$$u20$for$u20$pyo3..impl_..pyclass..PyClassImplCollector$LT$_typst_syntax..ast..code..PyLetBinding$GT$$GT$10py_methods17h0e84fc80a3266206E', symObjAddr: 0x314, symBinAddr: 0x21134, symSize: 0x14 }
  - { offset: 0x9683F, size: 0x8, addend: 0x0, symName: '__ZN13_typst_syntax3ast4code190_$LT$impl$u20$pyo3..impl_..pyclass..PyMethods$LT$_typst_syntax..ast..code..PySetRule$GT$$u20$for$u20$pyo3..impl_..pyclass..PyClassImplCollector$LT$_typst_syntax..ast..code..PySetRule$GT$$GT$10py_methods17h9767bcb4a46564bfE', symObjAddr: 0x328, symBinAddr: 0x21148, symSize: 0x14 }
  - { offset: 0x9687F, size: 0x8, addend: 0x0, symName: '__ZN13_typst_syntax3ast4code192_$LT$impl$u20$pyo3..impl_..pyclass..PyMethods$LT$_typst_syntax..ast..code..PyShowRule$GT$$u20$for$u20$pyo3..impl_..pyclass..PyClassImplCollector$LT$_typst_syntax..ast..code..PyShowRule$GT$$GT$10py_methods17hb884934d5f54f46fE', symObjAddr: 0x33C, symBinAddr: 0x2115C, symSize: 0x14 }
  - { offset: 0x968BF, size: 0x8, addend: 0x0, symName: '__ZN13_typst_syntax3ast4code198_$LT$impl$u20$pyo3..impl_..pyclass..PyMethods$LT$_typst_syntax..ast..code..PyConditional$GT$$u20$for$u20$pyo3..impl_..pyclass..PyClassImplCollector$LT$_typst_syntax..ast..code..PyConditional$GT$$GT$10py_methods17h7414412700834992E', symObjAddr: 0x350, symBinAddr: 0x21170, symSize: 0x14 }
  - { offset: 0x968FF, size: 0x8, addend: 0x0, symName: '__ZN13_typst_syntax3ast4code194_$LT$impl$u20$pyo3..impl_..pyclass..PyMethods$LT$_typst_syntax..ast..code..PyWhileLoop$GT$$u20$for$u20$pyo3..impl_..pyclass..PyClassImplCollector$LT$_typst_syntax..ast..code..PyWhileLoop$GT$$GT$10py_methods17h46f11dbd027d7b09E', symObjAddr: 0x364, symBinAddr: 0x21184, symSize: 0x14 }
  - { offset: 0x9693F, size: 0x8, addend: 0x0, symName: '__ZN13_typst_syntax3ast4code190_$LT$impl$u20$pyo3..impl_..pyclass..PyMethods$LT$_typst_syntax..ast..code..PyForLoop$GT$$u20$for$u20$pyo3..impl_..pyclass..PyClassImplCollector$LT$_typst_syntax..ast..code..PyForLoop$GT$$GT$10py_methods17hfdfc7feb1c846136E', symObjAddr: 0x378, symBinAddr: 0x21198, symSize: 0x14 }
  - { offset: 0x9697F, size: 0x8, addend: 0x0, symName: '__ZN13_typst_syntax3ast4code200_$LT$impl$u20$pyo3..impl_..pyclass..PyMethods$LT$_typst_syntax..ast..code..PyModuleImport$GT$$u20$for$u20$pyo3..impl_..pyclass..PyClassImplCollector$LT$_typst_syntax..ast..code..PyModuleImport$GT$$GT$10py_methods17h94e9deb0ca7efd4bE', symObjAddr: 0x38C, symBinAddr: 0x211AC, symSize: 0x14 }
  - { offset: 0x969BF, size: 0x8, addend: 0x0, symName: '__ZN13_typst_syntax3ast4code202_$LT$impl$u20$pyo3..impl_..pyclass..PyMethods$LT$_typst_syntax..ast..code..PyModuleInclude$GT$$u20$for$u20$pyo3..impl_..pyclass..PyClassImplCollector$LT$_typst_syntax..ast..code..PyModuleInclude$GT$$GT$10py_methods17hf58b59e3af067d14E', symObjAddr: 0x3A0, symBinAddr: 0x211C0, symSize: 0x14 }
  - { offset: 0x969FF, size: 0x8, addend: 0x0, symName: '__ZN13_typst_syntax3ast4code188_$LT$impl$u20$pyo3..impl_..pyclass..PyMethods$LT$_typst_syntax..ast..code..PyBinary$GT$$u20$for$u20$pyo3..impl_..pyclass..PyClassImplCollector$LT$_typst_syntax..ast..code..PyBinary$GT$$GT$10py_methods17hee08267461c6b70bE', symObjAddr: 0x3B4, symBinAddr: 0x211D4, symSize: 0x14 }
  - { offset: 0x96A3F, size: 0x8, addend: 0x0, symName: '__ZN13_typst_syntax3ast4code186_$LT$impl$u20$pyo3..impl_..pyclass..PyMethods$LT$_typst_syntax..ast..code..PyUnary$GT$$u20$for$u20$pyo3..impl_..pyclass..PyClassImplCollector$LT$_typst_syntax..ast..code..PyUnary$GT$$GT$10py_methods17h69dd936bf356cf30E', symObjAddr: 0x3C8, symBinAddr: 0x211E8, symSize: 0x14 }
  - { offset: 0x96A7F, size: 0x8, addend: 0x0, symName: '__ZN13_typst_syntax3ast4code196_$LT$impl$u20$pyo3..impl_..pyclass..PyMethods$LT$_typst_syntax..ast..code..PyFuncReturn$GT$$u20$for$u20$pyo3..impl_..pyclass..PyClassImplCollector$LT$_typst_syntax..ast..code..PyFuncReturn$GT$$GT$10py_methods17h24b1f6af5b7d4608E', symObjAddr: 0x3DC, symBinAddr: 0x211FC, symSize: 0x14 }
  - { offset: 0x96ABF, size: 0x8, addend: 0x0, symName: '__ZN13_typst_syntax3ast4code202_$LT$impl$u20$pyo3..impl_..pyclass..PyMethods$LT$_typst_syntax..ast..code..PyParenthesized$GT$$u20$for$u20$pyo3..impl_..pyclass..PyClassImplCollector$LT$_typst_syntax..ast..code..PyParenthesized$GT$$GT$10py_methods17h3c07ee66dca1bcd0E', symObjAddr: 0x3F0, symBinAddr: 0x21210, symSize: 0x14 }
  - { offset: 0x96AFF, size: 0x8, addend: 0x0, symName: '__ZN13_typst_syntax3ast4code194_$LT$impl$u20$pyo3..impl_..pyclass..PyMethods$LT$_typst_syntax..ast..code..PyCodeBlock$GT$$u20$for$u20$pyo3..impl_..pyclass..PyClassImplCollector$LT$_typst_syntax..ast..code..PyCodeBlock$GT$$GT$10py_methods17h1d29dfd5dcb0eca5E', symObjAddr: 0x404, symBinAddr: 0x21224, symSize: 0x14 }
  - { offset: 0x96B3F, size: 0x8, addend: 0x0, symName: '__ZN13_typst_syntax3ast4code200_$LT$impl$u20$pyo3..impl_..pyclass..PyMethods$LT$_typst_syntax..ast..code..PyContentBlock$GT$$u20$for$u20$pyo3..impl_..pyclass..PyClassImplCollector$LT$_typst_syntax..ast..code..PyContentBlock$GT$$GT$10py_methods17h48a0c3362308dd97E', symObjAddr: 0x418, symBinAddr: 0x21238, symSize: 0x14 }
  - { offset: 0x96B7F, size: 0x8, addend: 0x0, symName: '__ZN13_typst_syntax3ast4code194_$LT$impl$u20$pyo3..impl_..pyclass..PyMethods$LT$_typst_syntax..ast..code..PyLoopBreak$GT$$u20$for$u20$pyo3..impl_..pyclass..PyClassImplCollector$LT$_typst_syntax..ast..code..PyLoopBreak$GT$$GT$10py_methods17h599d0bb82ed82cf6E', symObjAddr: 0x42C, symBinAddr: 0x2124C, symSize: 0x14 }
  - { offset: 0x96BBF, size: 0x8, addend: 0x0, symName: '__ZN13_typst_syntax3ast4code200_$LT$impl$u20$pyo3..impl_..pyclass..PyMethods$LT$_typst_syntax..ast..code..PyLoopContinue$GT$$u20$for$u20$pyo3..impl_..pyclass..PyClassImplCollector$LT$_typst_syntax..ast..code..PyLoopContinue$GT$$GT$10py_methods17h10bede5291ee4c63E', symObjAddr: 0x440, symBinAddr: 0x21260, symSize: 0x14 }
  - { offset: 0x96E51, size: 0x8, addend: 0x0, symName: '__ZN13_typst_syntax3ast4math192_$LT$impl$u20$pyo3..impl_..pyclass..PyMethods$LT$_typst_syntax..ast..math..PyEquation$GT$$u20$for$u20$pyo3..impl_..pyclass..PyClassImplCollector$LT$_typst_syntax..ast..math..PyEquation$GT$$GT$10py_methods17hfb8b7dd4cfd46ddaE', symObjAddr: 0x454, symBinAddr: 0x21274, symSize: 0x14 }
  - { offset: 0x96E8E, size: 0x8, addend: 0x0, symName: '__ZN13_typst_syntax3ast4math194_$LT$impl$u20$pyo3..impl_..pyclass..PyMethods$LT$_typst_syntax..ast..math..PyMathIdent$GT$$u20$for$u20$pyo3..impl_..pyclass..PyClassImplCollector$LT$_typst_syntax..ast..math..PyMathIdent$GT$$GT$10py_methods17hcd489d0429cfe56bE', symObjAddr: 0x468, symBinAddr: 0x21288, symSize: 0x14 }
  - { offset: 0x96ECB, size: 0x8, addend: 0x0, symName: '__ZN13_typst_syntax3ast4math196_$LT$impl$u20$pyo3..impl_..pyclass..PyMethods$LT$_typst_syntax..ast..math..PyMathAttach$GT$$u20$for$u20$pyo3..impl_..pyclass..PyClassImplCollector$LT$_typst_syntax..ast..math..PyMathAttach$GT$$GT$10py_methods17hb314424ec20d48e0E', symObjAddr: 0x47C, symBinAddr: 0x2129C, symSize: 0x14 }
  - { offset: 0x96F08, size: 0x8, addend: 0x0, symName: '__ZN13_typst_syntax3ast4math202_$LT$impl$u20$pyo3..impl_..pyclass..PyMethods$LT$_typst_syntax..ast..math..PyMathDelimited$GT$$u20$for$u20$pyo3..impl_..pyclass..PyClassImplCollector$LT$_typst_syntax..ast..math..PyMathDelimited$GT$$GT$10py_methods17hef3dcf7e0bf0dadfE', symObjAddr: 0x490, symBinAddr: 0x212B0, symSize: 0x14 }
  - { offset: 0x96F45, size: 0x8, addend: 0x0, symName: '__ZN13_typst_syntax3ast4math192_$LT$impl$u20$pyo3..impl_..pyclass..PyMethods$LT$_typst_syntax..ast..math..PyMathFrac$GT$$u20$for$u20$pyo3..impl_..pyclass..PyClassImplCollector$LT$_typst_syntax..ast..math..PyMathFrac$GT$$GT$10py_methods17h3ff01386729aa612E', symObjAddr: 0x4A4, symBinAddr: 0x212C4, symSize: 0x14 }
  - { offset: 0x96F82, size: 0x8, addend: 0x0, symName: '__ZN13_typst_syntax3ast4math192_$LT$impl$u20$pyo3..impl_..pyclass..PyMethods$LT$_typst_syntax..ast..math..PyMathRoot$GT$$u20$for$u20$pyo3..impl_..pyclass..PyClassImplCollector$LT$_typst_syntax..ast..math..PyMathRoot$GT$$GT$10py_methods17hde76856584def0b1E', symObjAddr: 0x4B8, symBinAddr: 0x212D8, symSize: 0x14 }
  - { offset: 0x96FBF, size: 0x8, addend: 0x0, symName: '__ZN13_typst_syntax3ast4math196_$LT$impl$u20$pyo3..impl_..pyclass..PyMethods$LT$_typst_syntax..ast..math..PyMathPrimes$GT$$u20$for$u20$pyo3..impl_..pyclass..PyClassImplCollector$LT$_typst_syntax..ast..math..PyMathPrimes$GT$$GT$10py_methods17h5661565bcc3ba586E', symObjAddr: 0x4CC, symBinAddr: 0x212EC, symSize: 0x14 }
  - { offset: 0x988F1, size: 0x8, addend: 0x0, symName: __ZN4core9ub_checks23maybe_is_nonoverlapping7runtime17hc44f51d91e72bb86E, symObjAddr: 0x0, symBinAddr: 0x21300, symSize: 0xD8 }
  - { offset: 0x98A76, size: 0x8, addend: 0x0, symName: __ZN4core9ub_checks23maybe_is_nonoverlapping7runtime17hc44f51d91e72bb86E, symObjAddr: 0x0, symBinAddr: 0x21300, symSize: 0xD8 }
  - { offset: 0x98C85, size: 0x8, addend: 0x0, symName: '__ZN59_$LT$typst_syntax..ast..Int$u20$as$u20$core..fmt..Debug$GT$3fmt17h2cf882e7d75c52c8E', symObjAddr: 0x0, symBinAddr: 0x213D8, symSize: 0x54 }
  - { offset: 0x9A02B, size: 0x8, addend: 0x0, symName: '__ZN59_$LT$typst_syntax..ast..Int$u20$as$u20$core..fmt..Debug$GT$3fmt17h2cf882e7d75c52c8E', symObjAddr: 0x0, symBinAddr: 0x213D8, symSize: 0x54 }
  - { offset: 0x9A06B, size: 0x8, addend: 0x0, symName: '__ZN59_$LT$typst_syntax..ast..Raw$u20$as$u20$core..fmt..Debug$GT$3fmt17hff19750568d4462dE', symObjAddr: 0x54, symBinAddr: 0x2142C, symSize: 0x54 }
  - { offset: 0x9A0AB, size: 0x8, addend: 0x0, symName: '__ZN59_$LT$typst_syntax..ast..Ref$u20$as$u20$core..fmt..Debug$GT$3fmt17h4873812e9730d005E', symObjAddr: 0xA8, symBinAddr: 0x21480, symSize: 0x54 }
  - { offset: 0x9A0EB, size: 0x8, addend: 0x0, symName: '__ZN59_$LT$typst_syntax..ast..Str$u20$as$u20$core..fmt..Debug$GT$3fmt17h8d95bdc6a3a834aaE', symObjAddr: 0xFC, symBinAddr: 0x214D4, symSize: 0x54 }
  - { offset: 0x9A12B, size: 0x8, addend: 0x0, symName: '__ZN60_$LT$typst_syntax..ast..Auto$u20$as$u20$core..fmt..Debug$GT$3fmt17h3678c91f21af0f55E', symObjAddr: 0x150, symBinAddr: 0x21528, symSize: 0x54 }
  - { offset: 0x9A16B, size: 0x8, addend: 0x0, symName: '__ZN60_$LT$typst_syntax..ast..Bool$u20$as$u20$core..fmt..Debug$GT$3fmt17hc195c3251072c0e4E', symObjAddr: 0x1A4, symBinAddr: 0x2157C, symSize: 0x54 }
  - { offset: 0x9A1AB, size: 0x8, addend: 0x0, symName: '__ZN60_$LT$typst_syntax..ast..Dict$u20$as$u20$core..fmt..Debug$GT$3fmt17hc32157ebea8a21a2E', symObjAddr: 0x1F8, symBinAddr: 0x215D0, symSize: 0x54 }
  - { offset: 0x9A1EB, size: 0x8, addend: 0x0, symName: '__ZN60_$LT$typst_syntax..ast..Emph$u20$as$u20$core..fmt..Debug$GT$3fmt17h8ad48faa7faaa8c9E', symObjAddr: 0x24C, symBinAddr: 0x21624, symSize: 0x54 }
  - { offset: 0x9A22B, size: 0x8, addend: 0x0, symName: '__ZN60_$LT$typst_syntax..ast..Expr$u20$as$u20$core..fmt..Debug$GT$3fmt17h1c957e9f2bd852bfE', symObjAddr: 0x2A0, symBinAddr: 0x21678, symSize: 0xE00 }
  - { offset: 0x9A974, size: 0x8, addend: 0x0, symName: '__ZN60_$LT$typst_syntax..ast..Link$u20$as$u20$core..fmt..Debug$GT$3fmt17hc1d9d77c3b997e25E', symObjAddr: 0x10A0, symBinAddr: 0x22478, symSize: 0x54 }
  - { offset: 0x9A9B4, size: 0x8, addend: 0x0, symName: '__ZN60_$LT$typst_syntax..ast..Math$u20$as$u20$core..fmt..Debug$GT$3fmt17h2980bfabf085482aE', symObjAddr: 0x10F4, symBinAddr: 0x224CC, symSize: 0x54 }
  - { offset: 0x9A9F4, size: 0x8, addend: 0x0, symName: '__ZN60_$LT$typst_syntax..ast..None$u20$as$u20$core..fmt..Debug$GT$3fmt17h83c77f31aa460ff9E', symObjAddr: 0x1148, symBinAddr: 0x22520, symSize: 0x54 }
  - { offset: 0x9AA34, size: 0x8, addend: 0x0, symName: '__ZN60_$LT$typst_syntax..ast..Text$u20$as$u20$core..fmt..Debug$GT$3fmt17h222a05d91d6b21eaE', symObjAddr: 0x119C, symBinAddr: 0x22574, symSize: 0x54 }
  - { offset: 0x9AA74, size: 0x8, addend: 0x0, symName: '__ZN60_$LT$typst_syntax..ast..UnOp$u20$as$u20$core..fmt..Debug$GT$3fmt17h7df62bc6dcbe0cb6E', symObjAddr: 0x11F0, symBinAddr: 0x225C8, symSize: 0xA4 }
  - { offset: 0x9AAB7, size: 0x8, addend: 0x0, symName: '__ZN60_$LT$typst_syntax..ast..Unit$u20$as$u20$core..fmt..Debug$GT$3fmt17hd461caa21c1189eeE', symObjAddr: 0x1294, symBinAddr: 0x2266C, symSize: 0x194 }
  - { offset: 0x9AAFA, size: 0x8, addend: 0x0, symName: '__ZN61_$LT$typst_syntax..ast..Array$u20$as$u20$core..fmt..Debug$GT$3fmt17h859cb41c506a7c5bE', symObjAddr: 0x1428, symBinAddr: 0x22800, symSize: 0x54 }
  - { offset: 0x9AB3A, size: 0x8, addend: 0x0, symName: '__ZN61_$LT$typst_syntax..ast..BinOp$u20$as$u20$core..fmt..Debug$GT$3fmt17h894847944c30cc28E', symObjAddr: 0x147C, symBinAddr: 0x22854, symSize: 0x228 }
  - { offset: 0x9AB7D, size: 0x8, addend: 0x0, symName: '__ZN61_$LT$typst_syntax..ast..Float$u20$as$u20$core..fmt..Debug$GT$3fmt17hc16e822aaced7bc9E', symObjAddr: 0x16A4, symBinAddr: 0x22A7C, symSize: 0x54 }
  - { offset: 0x9ABBD, size: 0x8, addend: 0x0, symName: '__ZN61_$LT$typst_syntax..ast..Ident$u20$as$u20$core..fmt..Debug$GT$3fmt17hfda1947edfef57eaE', symObjAddr: 0x16F8, symBinAddr: 0x22AD0, symSize: 0x54 }
  - { offset: 0x9ABFD, size: 0x8, addend: 0x0, symName: '__ZN61_$LT$typst_syntax..ast..Label$u20$as$u20$core..fmt..Debug$GT$3fmt17h7926a711e1e5fc3aE', symObjAddr: 0x174C, symBinAddr: 0x22B24, symSize: 0x54 }
  - { offset: 0x9AC3D, size: 0x8, addend: 0x0, symName: '__ZN61_$LT$typst_syntax..ast..Space$u20$as$u20$core..fmt..Debug$GT$3fmt17ha0f3a25a06494ecaE', symObjAddr: 0x17A0, symBinAddr: 0x22B78, symSize: 0x54 }
  - { offset: 0x9AC7D, size: 0x8, addend: 0x0, symName: '__ZN61_$LT$typst_syntax..ast..Unary$u20$as$u20$core..fmt..Debug$GT$3fmt17h911dfdeed5d116c4E', symObjAddr: 0x17F4, symBinAddr: 0x22BCC, symSize: 0x54 }
  - { offset: 0x9ACBD, size: 0x8, addend: 0x0, symName: '__ZN62_$LT$typst_syntax..ast..Binary$u20$as$u20$core..fmt..Debug$GT$3fmt17hba875dfd1ca1c76aE', symObjAddr: 0x1848, symBinAddr: 0x22C20, symSize: 0x54 }
  - { offset: 0x9ACFD, size: 0x8, addend: 0x0, symName: '__ZN62_$LT$typst_syntax..ast..Escape$u20$as$u20$core..fmt..Debug$GT$3fmt17h771952d0f183f273E', symObjAddr: 0x189C, symBinAddr: 0x22C74, symSize: 0x54 }
  - { offset: 0x9AD3D, size: 0x8, addend: 0x0, symName: '__ZN62_$LT$typst_syntax..ast..Strong$u20$as$u20$core..fmt..Debug$GT$3fmt17h5d5c05fb54360dedE', symObjAddr: 0x18F0, symBinAddr: 0x22CC8, symSize: 0x54 }
  - { offset: 0x9AD7D, size: 0x8, addend: 0x0, symName: '__ZN63_$LT$typst_syntax..ast..Closure$u20$as$u20$core..fmt..Debug$GT$3fmt17h11b567e9e1e27054E', symObjAddr: 0x1944, symBinAddr: 0x22D1C, symSize: 0x54 }
  - { offset: 0x9ADBD, size: 0x8, addend: 0x0, symName: '__ZN63_$LT$typst_syntax..ast..ForLoop$u20$as$u20$core..fmt..Debug$GT$3fmt17h0bf453d3b55a2577E', symObjAddr: 0x1998, symBinAddr: 0x22D70, symSize: 0x54 }
  - { offset: 0x9ADFD, size: 0x8, addend: 0x0, symName: '__ZN63_$LT$typst_syntax..ast..Heading$u20$as$u20$core..fmt..Debug$GT$3fmt17h2087c63e393f2c07E', symObjAddr: 0x19EC, symBinAddr: 0x22DC4, symSize: 0x54 }
  - { offset: 0x9AE3D, size: 0x8, addend: 0x0, symName: '__ZN63_$LT$typst_syntax..ast..Numeric$u20$as$u20$core..fmt..Debug$GT$3fmt17h5c57802e2632dfddE', symObjAddr: 0x1A40, symBinAddr: 0x22E18, symSize: 0x54 }
  - { offset: 0x9AE7D, size: 0x8, addend: 0x0, symName: '__ZN63_$LT$typst_syntax..ast..Pattern$u20$as$u20$core..fmt..Debug$GT$3fmt17hb10d2527872aa43bE', symObjAddr: 0x1A94, symBinAddr: 0x22E6C, symSize: 0x154 }
  - { offset: 0x9AF38, size: 0x8, addend: 0x0, symName: '__ZN63_$LT$typst_syntax..ast..SetRule$u20$as$u20$core..fmt..Debug$GT$3fmt17h9bdebf5de866964bE', symObjAddr: 0x1BE8, symBinAddr: 0x22FC0, symSize: 0x54 }
  - { offset: 0x9AF78, size: 0x8, addend: 0x0, symName: '__ZN64_$LT$typst_syntax..ast..EnumItem$u20$as$u20$core..fmt..Debug$GT$3fmt17h7ac32b2197d67cadE', symObjAddr: 0x1C3C, symBinAddr: 0x23014, symSize: 0x54 }
  - { offset: 0x9AFB8, size: 0x8, addend: 0x0, symName: '__ZN64_$LT$typst_syntax..ast..Equation$u20$as$u20$core..fmt..Debug$GT$3fmt17hfbcb4a75ebf21585E', symObjAddr: 0x1C90, symBinAddr: 0x23068, symSize: 0x54 }
  - { offset: 0x9AFF8, size: 0x8, addend: 0x0, symName: '__ZN64_$LT$typst_syntax..ast..FuncCall$u20$as$u20$core..fmt..Debug$GT$3fmt17h7f5e137b54857286E', symObjAddr: 0x1CE4, symBinAddr: 0x230BC, symSize: 0x54 }
  - { offset: 0x9B038, size: 0x8, addend: 0x0, symName: '__ZN64_$LT$typst_syntax..ast..ListItem$u20$as$u20$core..fmt..Debug$GT$3fmt17h7d3fb00e35a787c1E', symObjAddr: 0x1D38, symBinAddr: 0x23110, symSize: 0x54 }
  - { offset: 0x9B078, size: 0x8, addend: 0x0, symName: '__ZN64_$LT$typst_syntax..ast..MathFrac$u20$as$u20$core..fmt..Debug$GT$3fmt17h9eb79255c0037d3dE', symObjAddr: 0x1D8C, symBinAddr: 0x23164, symSize: 0x54 }
  - { offset: 0x9B0B8, size: 0x8, addend: 0x0, symName: '__ZN64_$LT$typst_syntax..ast..MathRoot$u20$as$u20$core..fmt..Debug$GT$3fmt17hd3671968297191efE', symObjAddr: 0x1DE0, symBinAddr: 0x231B8, symSize: 0x54 }
  - { offset: 0x9B0F8, size: 0x8, addend: 0x0, symName: '__ZN64_$LT$typst_syntax..ast..MathText$u20$as$u20$core..fmt..Debug$GT$3fmt17h4a0537c467b54de5E', symObjAddr: 0x1E34, symBinAddr: 0x2320C, symSize: 0x54 }
  - { offset: 0x9B138, size: 0x8, addend: 0x0, symName: '__ZN64_$LT$typst_syntax..ast..Parbreak$u20$as$u20$core..fmt..Debug$GT$3fmt17hefd662a55ec84399E', symObjAddr: 0x1E88, symBinAddr: 0x23260, symSize: 0x54 }
  - { offset: 0x9B178, size: 0x8, addend: 0x0, symName: '__ZN64_$LT$typst_syntax..ast..ShowRule$u20$as$u20$core..fmt..Debug$GT$3fmt17h56369f979163ccfcE', symObjAddr: 0x1EDC, symBinAddr: 0x232B4, symSize: 0x54 }
  - { offset: 0x9B1B8, size: 0x8, addend: 0x0, symName: '__ZN64_$LT$typst_syntax..ast..TermItem$u20$as$u20$core..fmt..Debug$GT$3fmt17h06a447e585451029E', symObjAddr: 0x1F30, symBinAddr: 0x23308, symSize: 0x54 }
  - { offset: 0x9B1F8, size: 0x8, addend: 0x0, symName: '__ZN65_$LT$typst_syntax..ast..CodeBlock$u20$as$u20$core..fmt..Debug$GT$3fmt17hdd27e024b47f5624E', symObjAddr: 0x1F84, symBinAddr: 0x2335C, symSize: 0x54 }
  - { offset: 0x9B238, size: 0x8, addend: 0x0, symName: '__ZN65_$LT$typst_syntax..ast..Linebreak$u20$as$u20$core..fmt..Debug$GT$3fmt17h76a4bc9d1191cc18E', symObjAddr: 0x1FD8, symBinAddr: 0x233B0, symSize: 0x54 }
  - { offset: 0x9B278, size: 0x8, addend: 0x0, symName: '__ZN65_$LT$typst_syntax..ast..LoopBreak$u20$as$u20$core..fmt..Debug$GT$3fmt17h6e2021cbdf08a7b3E', symObjAddr: 0x202C, symBinAddr: 0x23404, symSize: 0x54 }
  - { offset: 0x9B2B8, size: 0x8, addend: 0x0, symName: '__ZN65_$LT$typst_syntax..ast..MathIdent$u20$as$u20$core..fmt..Debug$GT$3fmt17hdd887bc3a66e234aE', symObjAddr: 0x2080, symBinAddr: 0x23458, symSize: 0x54 }
  - { offset: 0x9B2F8, size: 0x8, addend: 0x0, symName: '__ZN65_$LT$typst_syntax..ast..Shorthand$u20$as$u20$core..fmt..Debug$GT$3fmt17h3e16338af11f6da2E', symObjAddr: 0x20D4, symBinAddr: 0x234AC, symSize: 0x54 }
  - { offset: 0x9B338, size: 0x8, addend: 0x0, symName: '__ZN65_$LT$typst_syntax..ast..WhileLoop$u20$as$u20$core..fmt..Debug$GT$3fmt17h5b218b406bfbf68eE', symObjAddr: 0x2128, symBinAddr: 0x23500, symSize: 0x54 }
  - { offset: 0x9B378, size: 0x8, addend: 0x0, symName: '__ZN66_$LT$typst_syntax..ast..Contextual$u20$as$u20$core..fmt..Debug$GT$3fmt17h5a929bc75b35a7e9E', symObjAddr: 0x217C, symBinAddr: 0x23554, symSize: 0x54 }
  - { offset: 0x9B3B8, size: 0x8, addend: 0x0, symName: '__ZN66_$LT$typst_syntax..ast..FuncReturn$u20$as$u20$core..fmt..Debug$GT$3fmt17h5ab62a98042b1375E', symObjAddr: 0x21D0, symBinAddr: 0x235A8, symSize: 0x54 }
  - { offset: 0x9B3F8, size: 0x8, addend: 0x0, symName: '__ZN66_$LT$typst_syntax..ast..LetBinding$u20$as$u20$core..fmt..Debug$GT$3fmt17h138033c678ba6171E', symObjAddr: 0x2224, symBinAddr: 0x235FC, symSize: 0x54 }
  - { offset: 0x9B438, size: 0x8, addend: 0x0, symName: '__ZN66_$LT$typst_syntax..ast..MathAttach$u20$as$u20$core..fmt..Debug$GT$3fmt17he3f1bb1708a522a8E', symObjAddr: 0x2278, symBinAddr: 0x23650, symSize: 0x54 }
  - { offset: 0x9B478, size: 0x8, addend: 0x0, symName: '__ZN66_$LT$typst_syntax..ast..MathPrimes$u20$as$u20$core..fmt..Debug$GT$3fmt17h6d5756b808e4c2caE', symObjAddr: 0x22CC, symBinAddr: 0x236A4, symSize: 0x54 }
  - { offset: 0x9B4B8, size: 0x8, addend: 0x0, symName: '__ZN66_$LT$typst_syntax..ast..SmartQuote$u20$as$u20$core..fmt..Debug$GT$3fmt17hd2cab254a4f00113E', symObjAddr: 0x2320, symBinAddr: 0x236F8, symSize: 0x54 }
  - { offset: 0x9B4F8, size: 0x8, addend: 0x0, symName: '__ZN66_$LT$typst_syntax..ast..Underscore$u20$as$u20$core..fmt..Debug$GT$3fmt17h6d5539e2a52a2411E', symObjAddr: 0x2374, symBinAddr: 0x2374C, symSize: 0x54 }
  - { offset: 0x9B538, size: 0x8, addend: 0x0, symName: '__ZN67_$LT$typst_syntax..ast..Conditional$u20$as$u20$core..fmt..Debug$GT$3fmt17hc53f03e9867329acE', symObjAddr: 0x23C8, symBinAddr: 0x237A0, symSize: 0x54 }
  - { offset: 0x9B578, size: 0x8, addend: 0x0, symName: '__ZN67_$LT$typst_syntax..ast..FieldAccess$u20$as$u20$core..fmt..Debug$GT$3fmt17hfb3c15ae18b3805cE', symObjAddr: 0x241C, symBinAddr: 0x237F4, symSize: 0x54 }
  - { offset: 0x9B5B8, size: 0x8, addend: 0x0, symName: '__ZN68_$LT$typst_syntax..ast..ContentBlock$u20$as$u20$core..fmt..Debug$GT$3fmt17ha7c79d42518d4f38E', symObjAddr: 0x2470, symBinAddr: 0x23848, symSize: 0x54 }
  - { offset: 0x9B5F8, size: 0x8, addend: 0x0, symName: '__ZN68_$LT$typst_syntax..ast..LoopContinue$u20$as$u20$core..fmt..Debug$GT$3fmt17ha7d69b41a875cd79E', symObjAddr: 0x24C4, symBinAddr: 0x2389C, symSize: 0x54 }
  - { offset: 0x9B638, size: 0x8, addend: 0x0, symName: '__ZN68_$LT$typst_syntax..ast..ModuleImport$u20$as$u20$core..fmt..Debug$GT$3fmt17h5d2bf63066756269E', symObjAddr: 0x2518, symBinAddr: 0x238F0, symSize: 0x54 }
  - { offset: 0x9B678, size: 0x8, addend: 0x0, symName: '__ZN69_$LT$typst_syntax..ast..Destructuring$u20$as$u20$core..fmt..Debug$GT$3fmt17hd2b8c8c0d0ef06aeE', symObjAddr: 0x256C, symBinAddr: 0x23944, symSize: 0x54 }
  - { offset: 0x9B6B8, size: 0x8, addend: 0x0, symName: '__ZN69_$LT$typst_syntax..ast..Int$u20$as$u20$typst_syntax..ast..AstNode$GT$12from_untyped17h92c9d3abe75225a1E', symObjAddr: 0x25C0, symBinAddr: 0x23998, symSize: 0x60 }
  - { offset: 0x9B6EA, size: 0x8, addend: 0x0, symName: '__ZN69_$LT$typst_syntax..ast..MathDelimited$u20$as$u20$core..fmt..Debug$GT$3fmt17h62d5fa2232eea085E', symObjAddr: 0x2620, symBinAddr: 0x239F8, symSize: 0x54 }
  - { offset: 0x9B72A, size: 0x8, addend: 0x0, symName: '__ZN69_$LT$typst_syntax..ast..MathShorthand$u20$as$u20$core..fmt..Debug$GT$3fmt17hb1ef7ae68570bdf3E', symObjAddr: 0x2674, symBinAddr: 0x23A4C, symSize: 0x54 }
  - { offset: 0x9B76A, size: 0x8, addend: 0x0, symName: '__ZN69_$LT$typst_syntax..ast..ModuleInclude$u20$as$u20$core..fmt..Debug$GT$3fmt17h7a1b566b48758831E', symObjAddr: 0x26C8, symBinAddr: 0x23AA0, symSize: 0x54 }
  - { offset: 0x9B7AA, size: 0x8, addend: 0x0, symName: '__ZN69_$LT$typst_syntax..ast..Parenthesized$u20$as$u20$core..fmt..Debug$GT$3fmt17hb03f89ad1b9da0cfE', symObjAddr: 0x271C, symBinAddr: 0x23AF4, symSize: 0x54 }
  - { offset: 0x9B7EA, size: 0x8, addend: 0x0, symName: '__ZN69_$LT$typst_syntax..ast..Raw$u20$as$u20$typst_syntax..ast..AstNode$GT$12from_untyped17h6482712e8b633408E', symObjAddr: 0x2770, symBinAddr: 0x23B48, symSize: 0x60 }
  - { offset: 0x9B81C, size: 0x8, addend: 0x0, symName: '__ZN69_$LT$typst_syntax..ast..Ref$u20$as$u20$typst_syntax..ast..AstNode$GT$12from_untyped17h0b5b02d84544beccE', symObjAddr: 0x27D0, symBinAddr: 0x23BA8, symSize: 0x60 }
  - { offset: 0x9B84E, size: 0x8, addend: 0x0, symName: '__ZN69_$LT$typst_syntax..ast..Str$u20$as$u20$typst_syntax..ast..AstNode$GT$12from_untyped17hf505b25a24b19aecE', symObjAddr: 0x2830, symBinAddr: 0x23C08, symSize: 0x60 }
  - { offset: 0x9B880, size: 0x8, addend: 0x0, symName: '__ZN70_$LT$typst_syntax..ast..Args$u20$as$u20$typst_syntax..ast..AstNode$GT$10to_untyped17h92ebbc643294ab92E', symObjAddr: 0x2890, symBinAddr: 0x23C68, symSize: 0x14 }
  - { offset: 0x9B8B2, size: 0x8, addend: 0x0, symName: '__ZN70_$LT$typst_syntax..ast..Bool$u20$as$u20$typst_syntax..ast..AstNode$GT$12from_untyped17h5e7075e3beb9fc56E', symObjAddr: 0x28A4, symBinAddr: 0x23C7C, symSize: 0x60 }
  - { offset: 0x9B8E4, size: 0x8, addend: 0x0, symName: '__ZN70_$LT$typst_syntax..ast..Code$u20$as$u20$typst_syntax..ast..AstNode$GT$10to_untyped17he54ddda4c723cd0bE', symObjAddr: 0x2904, symBinAddr: 0x23CDC, symSize: 0x14 }
  - { offset: 0x9B916, size: 0x8, addend: 0x0, symName: '__ZN70_$LT$typst_syntax..ast..Dict$u20$as$u20$typst_syntax..ast..AstNode$GT$12from_untyped17h7b21e38a193d091aE', symObjAddr: 0x2918, symBinAddr: 0x23CF0, symSize: 0x60 }
  - { offset: 0x9B948, size: 0x8, addend: 0x0, symName: '__ZN70_$LT$typst_syntax..ast..Emph$u20$as$u20$typst_syntax..ast..AstNode$GT$12from_untyped17h7f2b6e44d23aae93E', symObjAddr: 0x2978, symBinAddr: 0x23D50, symSize: 0x60 }
  - { offset: 0x9B97A, size: 0x8, addend: 0x0, symName: '__ZN70_$LT$typst_syntax..ast..LetBindingKind$u20$as$u20$core..fmt..Debug$GT$3fmt17he6604fdd54a0943fE', symObjAddr: 0x29D8, symBinAddr: 0x23DB0, symSize: 0xB8 }
  - { offset: 0x9B9F9, size: 0x8, addend: 0x0, symName: '__ZN70_$LT$typst_syntax..ast..Link$u20$as$u20$typst_syntax..ast..AstNode$GT$12from_untyped17h039402f4689a1742E', symObjAddr: 0x2A90, symBinAddr: 0x23E68, symSize: 0x60 }
  - { offset: 0x9BA2B, size: 0x8, addend: 0x0, symName: '__ZN70_$LT$typst_syntax..ast..Math$u20$as$u20$typst_syntax..ast..AstNode$GT$10to_untyped17h587c1f7dc0c62875E', symObjAddr: 0x2AF0, symBinAddr: 0x23EC8, symSize: 0x14 }
  - { offset: 0x9BA5D, size: 0x8, addend: 0x0, symName: '__ZN70_$LT$typst_syntax..ast..MathAlignPoint$u20$as$u20$core..fmt..Debug$GT$3fmt17hc24a2de978a76163E', symObjAddr: 0x2B04, symBinAddr: 0x23EDC, symSize: 0x54 }
  - { offset: 0x9BA9D, size: 0x8, addend: 0x0, symName: '__ZN70_$LT$typst_syntax..ast..Text$u20$as$u20$typst_syntax..ast..AstNode$GT$12from_untyped17h10c3437618d5795fE', symObjAddr: 0x2B58, symBinAddr: 0x23F30, symSize: 0x60 }
  - { offset: 0x9BACF, size: 0x8, addend: 0x0, symName: '__ZN71_$LT$typst_syntax..ast..Array$u20$as$u20$typst_syntax..ast..AstNode$GT$12from_untyped17h4208148dbc963681E', symObjAddr: 0x2BB8, symBinAddr: 0x23F90, symSize: 0x60 }
  - { offset: 0x9BB01, size: 0x8, addend: 0x0, symName: '__ZN71_$LT$typst_syntax..ast..Float$u20$as$u20$typst_syntax..ast..AstNode$GT$12from_untyped17h4dfc24aec2cfefbeE', symObjAddr: 0x2C18, symBinAddr: 0x23FF0, symSize: 0x60 }
  - { offset: 0x9BB33, size: 0x8, addend: 0x0, symName: '__ZN71_$LT$typst_syntax..ast..Ident$u20$as$u20$typst_syntax..ast..AstNode$GT$10to_untyped17hd36aa146cb5a68fdE', symObjAddr: 0x2C78, symBinAddr: 0x24050, symSize: 0x14 }
  - { offset: 0x9BB65, size: 0x8, addend: 0x0, symName: '__ZN71_$LT$typst_syntax..ast..Label$u20$as$u20$typst_syntax..ast..AstNode$GT$12from_untyped17hd61e49b67a0a35b0E', symObjAddr: 0x2C8C, symBinAddr: 0x24064, symSize: 0x60 }
  - { offset: 0x9BB97, size: 0x8, addend: 0x0, symName: '__ZN71_$LT$typst_syntax..ast..Named$u20$as$u20$typst_syntax..ast..AstNode$GT$12from_untyped17hadf4384773ee7c69E', symObjAddr: 0x2CEC, symBinAddr: 0x240C4, symSize: 0x60 }
  - { offset: 0x9BBC9, size: 0x8, addend: 0x0, symName: '__ZN71_$LT$typst_syntax..ast..Unary$u20$as$u20$typst_syntax..ast..AstNode$GT$12from_untyped17h50106be6494555aeE', symObjAddr: 0x2D4C, symBinAddr: 0x24124, symSize: 0x60 }
  - { offset: 0x9BBFB, size: 0x8, addend: 0x0, symName: '__ZN72_$LT$typst_syntax..ast..Binary$u20$as$u20$typst_syntax..ast..AstNode$GT$12from_untyped17h1e1c1e1851dde5ffE', symObjAddr: 0x2DAC, symBinAddr: 0x24184, symSize: 0x60 }
  - { offset: 0x9BC2D, size: 0x8, addend: 0x0, symName: '__ZN72_$LT$typst_syntax..ast..Escape$u20$as$u20$typst_syntax..ast..AstNode$GT$12from_untyped17hb4fae44c5eaae3d9E', symObjAddr: 0x2E0C, symBinAddr: 0x241E4, symSize: 0x60 }
  - { offset: 0x9BC5F, size: 0x8, addend: 0x0, symName: '__ZN72_$LT$typst_syntax..ast..Markup$u20$as$u20$typst_syntax..ast..AstNode$GT$10to_untyped17h774b6281ae34b785E', symObjAddr: 0x2E6C, symBinAddr: 0x24244, symSize: 0x14 }
  - { offset: 0x9BC91, size: 0x8, addend: 0x0, symName: '__ZN72_$LT$typst_syntax..ast..Params$u20$as$u20$typst_syntax..ast..AstNode$GT$10to_untyped17h6c3e1586043d6f60E', symObjAddr: 0x2E80, symBinAddr: 0x24258, symSize: 0x14 }
  - { offset: 0x9BCC3, size: 0x8, addend: 0x0, symName: '__ZN72_$LT$typst_syntax..ast..Strong$u20$as$u20$typst_syntax..ast..AstNode$GT$12from_untyped17h0e869a92e262d3ebE', symObjAddr: 0x2E94, symBinAddr: 0x2426C, symSize: 0x60 }
  - { offset: 0x9BCF5, size: 0x8, addend: 0x0, symName: '__ZN73_$LT$typst_syntax..ast..Closure$u20$as$u20$typst_syntax..ast..AstNode$GT$12from_untyped17h6c31342a98f39420E', symObjAddr: 0x2EF4, symBinAddr: 0x242CC, symSize: 0x60 }
  - { offset: 0x9BD27, size: 0x8, addend: 0x0, symName: '__ZN73_$LT$typst_syntax..ast..ForLoop$u20$as$u20$typst_syntax..ast..AstNode$GT$12from_untyped17h07acdb5266d2df29E', symObjAddr: 0x2F54, symBinAddr: 0x2432C, symSize: 0x60 }
  - { offset: 0x9BD59, size: 0x8, addend: 0x0, symName: '__ZN73_$LT$typst_syntax..ast..Heading$u20$as$u20$typst_syntax..ast..AstNode$GT$12from_untyped17hadc66d6e5dfd60caE', symObjAddr: 0x2FB4, symBinAddr: 0x2438C, symSize: 0x60 }
  - { offset: 0x9BD8B, size: 0x8, addend: 0x0, symName: '__ZN73_$LT$typst_syntax..ast..Numeric$u20$as$u20$typst_syntax..ast..AstNode$GT$12from_untyped17h6ebffee740b521b4E', symObjAddr: 0x3014, symBinAddr: 0x243EC, symSize: 0x60 }
  - { offset: 0x9BDBD, size: 0x8, addend: 0x0, symName: '__ZN73_$LT$typst_syntax..ast..SetRule$u20$as$u20$typst_syntax..ast..AstNode$GT$12from_untyped17h29c861e9200b3d36E', symObjAddr: 0x3074, symBinAddr: 0x2444C, symSize: 0x60 }
  - { offset: 0x9BDEF, size: 0x8, addend: 0x0, symName: '__ZN74_$LT$typst_syntax..ast..DestructAssignment$u20$as$u20$core..fmt..Debug$GT$3fmt17hf665a5b949813494E', symObjAddr: 0x30D4, symBinAddr: 0x244AC, symSize: 0x54 }
  - { offset: 0x9BE2F, size: 0x8, addend: 0x0, symName: '__ZN74_$LT$typst_syntax..ast..EnumItem$u20$as$u20$typst_syntax..ast..AstNode$GT$12from_untyped17h7d5ad65b71212499E', symObjAddr: 0x3128, symBinAddr: 0x24500, symSize: 0x60 }
  - { offset: 0x9BE61, size: 0x8, addend: 0x0, symName: '__ZN74_$LT$typst_syntax..ast..Equation$u20$as$u20$typst_syntax..ast..AstNode$GT$12from_untyped17h3a1df85468c127a3E', symObjAddr: 0x3188, symBinAddr: 0x24560, symSize: 0x60 }
  - { offset: 0x9BE93, size: 0x8, addend: 0x0, symName: '__ZN74_$LT$typst_syntax..ast..FuncCall$u20$as$u20$typst_syntax..ast..AstNode$GT$12from_untyped17h8d8a44e2e395b13bE', symObjAddr: 0x31E8, symBinAddr: 0x245C0, symSize: 0x60 }
  - { offset: 0x9BEC5, size: 0x8, addend: 0x0, symName: '__ZN74_$LT$typst_syntax..ast..ListItem$u20$as$u20$typst_syntax..ast..AstNode$GT$12from_untyped17h8cbf8b96f30221e1E', symObjAddr: 0x3248, symBinAddr: 0x24620, symSize: 0x60 }
  - { offset: 0x9BEF7, size: 0x8, addend: 0x0, symName: '__ZN74_$LT$typst_syntax..ast..MathFrac$u20$as$u20$typst_syntax..ast..AstNode$GT$12from_untyped17h49a59242f9e48af8E', symObjAddr: 0x32A8, symBinAddr: 0x24680, symSize: 0x60 }
  - { offset: 0x9BF29, size: 0x8, addend: 0x0, symName: '__ZN74_$LT$typst_syntax..ast..MathRoot$u20$as$u20$typst_syntax..ast..AstNode$GT$12from_untyped17he68d0a4b5a4229b7E', symObjAddr: 0x3308, symBinAddr: 0x246E0, symSize: 0x60 }
  - { offset: 0x9BF5B, size: 0x8, addend: 0x0, symName: '__ZN74_$LT$typst_syntax..ast..ShowRule$u20$as$u20$typst_syntax..ast..AstNode$GT$12from_untyped17h21bb51e5251a80f5E', symObjAddr: 0x3368, symBinAddr: 0x24740, symSize: 0x60 }
  - { offset: 0x9BF8D, size: 0x8, addend: 0x0, symName: '__ZN74_$LT$typst_syntax..ast..TermItem$u20$as$u20$typst_syntax..ast..AstNode$GT$12from_untyped17h9571a8ac336dfbf4E', symObjAddr: 0x33C8, symBinAddr: 0x247A0, symSize: 0x60 }
  - { offset: 0x9BFBF, size: 0x8, addend: 0x0, symName: '__ZN75_$LT$typst_syntax..ast..CodeBlock$u20$as$u20$typst_syntax..ast..AstNode$GT$12from_untyped17h167c2ba27e7e4eddE', symObjAddr: 0x3428, symBinAddr: 0x24800, symSize: 0x60 }
  - { offset: 0x9BFF1, size: 0x8, addend: 0x0, symName: '__ZN75_$LT$typst_syntax..ast..MathIdent$u20$as$u20$typst_syntax..ast..AstNode$GT$12from_untyped17h9adfded692395d87E', symObjAddr: 0x3488, symBinAddr: 0x24860, symSize: 0x60 }
  - { offset: 0x9C023, size: 0x8, addend: 0x0, symName: '__ZN75_$LT$typst_syntax..ast..Shorthand$u20$as$u20$typst_syntax..ast..AstNode$GT$12from_untyped17h69b58308f0cf6f91E', symObjAddr: 0x34E8, symBinAddr: 0x248C0, symSize: 0x60 }
  - { offset: 0x9C055, size: 0x8, addend: 0x0, symName: '__ZN75_$LT$typst_syntax..ast..WhileLoop$u20$as$u20$typst_syntax..ast..AstNode$GT$12from_untyped17hda6f626a38f3f42eE', symObjAddr: 0x3548, symBinAddr: 0x24920, symSize: 0x60 }
  - { offset: 0x9C087, size: 0x8, addend: 0x0, symName: '__ZN76_$LT$typst_syntax..ast..FuncReturn$u20$as$u20$typst_syntax..ast..AstNode$GT$12from_untyped17ha6cd2a8e6435855eE', symObjAddr: 0x35A8, symBinAddr: 0x24980, symSize: 0x60 }
  - { offset: 0x9C0B9, size: 0x8, addend: 0x0, symName: '__ZN76_$LT$typst_syntax..ast..LetBinding$u20$as$u20$typst_syntax..ast..AstNode$GT$12from_untyped17hfd988cc5938dd82eE', symObjAddr: 0x3608, symBinAddr: 0x249E0, symSize: 0x60 }
  - { offset: 0x9C0EB, size: 0x8, addend: 0x0, symName: '__ZN76_$LT$typst_syntax..ast..MathAttach$u20$as$u20$typst_syntax..ast..AstNode$GT$12from_untyped17hf8c56dac260f4120E', symObjAddr: 0x3668, symBinAddr: 0x24A40, symSize: 0x60 }
  - { offset: 0x9C11D, size: 0x8, addend: 0x0, symName: '__ZN76_$LT$typst_syntax..ast..SmartQuote$u20$as$u20$typst_syntax..ast..AstNode$GT$12from_untyped17h50be4dc4ec3f5e32E', symObjAddr: 0x36C8, symBinAddr: 0x24AA0, symSize: 0x60 }
  - { offset: 0x9C14F, size: 0x8, addend: 0x0, symName: '__ZN77_$LT$typst_syntax..ast..Conditional$u20$as$u20$typst_syntax..ast..AstNode$GT$12from_untyped17ha031340ea8150fb5E', symObjAddr: 0x3728, symBinAddr: 0x24B00, symSize: 0x60 }
  - { offset: 0x9C181, size: 0x8, addend: 0x0, symName: '__ZN77_$LT$typst_syntax..ast..FieldAccess$u20$as$u20$typst_syntax..ast..AstNode$GT$12from_untyped17h2cad86a2a4f59399E', symObjAddr: 0x3788, symBinAddr: 0x24B60, symSize: 0x60 }
  - { offset: 0x9C1B3, size: 0x8, addend: 0x0, symName: '__ZN77_$LT$typst_syntax..ast..ImportItems$u20$as$u20$typst_syntax..ast..AstNode$GT$10to_untyped17h953a9e393aaf95f0E', symObjAddr: 0x37E8, symBinAddr: 0x24BC0, symSize: 0x14 }
  - { offset: 0x9C1E5, size: 0x8, addend: 0x0, symName: '__ZN78_$LT$typst_syntax..ast..ContentBlock$u20$as$u20$typst_syntax..ast..AstNode$GT$10to_untyped17h0dc8b6088b61cd60E', symObjAddr: 0x37FC, symBinAddr: 0x24BD4, symSize: 0x14 }
  - { offset: 0x9C217, size: 0x8, addend: 0x0, symName: '__ZN78_$LT$typst_syntax..ast..ModuleImport$u20$as$u20$typst_syntax..ast..AstNode$GT$12from_untyped17h5ccc7b9c0e6ea7d2E', symObjAddr: 0x3810, symBinAddr: 0x24BE8, symSize: 0x60 }
  - { offset: 0x9C249, size: 0x8, addend: 0x0, symName: '__ZN79_$LT$typst_syntax..ast..MathDelimited$u20$as$u20$typst_syntax..ast..AstNode$GT$12from_untyped17hddd84031ea4d30b8E', symObjAddr: 0x3870, symBinAddr: 0x24C48, symSize: 0x60 }
  - { offset: 0x9C27B, size: 0x8, addend: 0x0, symName: '__ZN79_$LT$typst_syntax..ast..ModuleInclude$u20$as$u20$typst_syntax..ast..AstNode$GT$12from_untyped17h2bccbc278ca42d0bE', symObjAddr: 0x38D0, symBinAddr: 0x24CA8, symSize: 0x60 }
  - { offset: 0x9C2AD, size: 0x8, addend: 0x0, symName: '__ZN79_$LT$typst_syntax..ast..Parenthesized$u20$as$u20$typst_syntax..ast..AstNode$GT$12from_untyped17h0397cf8389c1202cE', symObjAddr: 0x3930, symBinAddr: 0x24D08, symSize: 0x60 }
  - { offset: 0x9DE0A, size: 0x8, addend: 0x0, symName: __ZN13_typst_syntax3ast4math4node17hf45cb5e4e1fadadaE, symObjAddr: 0x0, symBinAddr: 0x24D68, symSize: 0x40 }
  - { offset: 0xA17D4, size: 0x8, addend: 0x0, symName: '__ZN90_$LT$_typst_syntax..ast..math..PyEquation$u20$as$u20$pyo3..impl_..pyclass..PyClassImpl$GT$10items_iter15INTRINSIC_ITEMS17h6c1d92a169eb9a60E', symObjAddr: 0x4F50, symBinAddr: 0x1B1658, symSize: 0x0 }
  - { offset: 0xA17F4, size: 0x8, addend: 0x0, symName: '__ZN90_$LT$_typst_syntax..ast..math..PyEquation$u20$as$u20$pyo3..impl_..pyclass..PyClassImpl$GT$3doc3DOC17he4198d8bb8242aa9E', symObjAddr: 0x5140, symBinAddr: 0x2A84E0, symSize: 0x0 }
  - { offset: 0xA1814, size: 0x8, addend: 0x0, symName: '__ZN90_$LT$_typst_syntax..ast..math..PyEquation$u20$as$u20$pyo3..impl_..pyclass..PyClassImpl$GT$16lazy_type_object11TYPE_OBJECT17h0298658c62ba9e06E', symObjAddr: 0x5158, symBinAddr: 0x2A84F8, symSize: 0x0 }
  - { offset: 0xA1822, size: 0x8, addend: 0x0, symName: '__ZN90_$LT$_typst_syntax..ast..math..PyEquation$u20$as$u20$pyo3..impl_..pyclass..PyClassImpl$GT$10items_iter17he7966e49c35f531aE', symObjAddr: 0x388, symBinAddr: 0x250F0, symSize: 0x38 }
  - { offset: 0xA185D, size: 0x8, addend: 0x0, symName: '__ZN90_$LT$_typst_syntax..ast..math..PyEquation$u20$as$u20$pyo3..impl_..pyclass..PyClassImpl$GT$3doc17h2e1573f7614302feE', symObjAddr: 0x3C0, symBinAddr: 0x25128, symSize: 0x3C }
  - { offset: 0xA1894, size: 0x8, addend: 0x0, symName: '__ZN90_$LT$_typst_syntax..ast..math..PyEquation$u20$as$u20$pyo3..impl_..pyclass..PyClassImpl$GT$16lazy_type_object17h21012868d2f6f90bE', symObjAddr: 0x3FC, symBinAddr: 0x25164, symSize: 0xC }
  - { offset: 0xA199A, size: 0x8, addend: 0x0, symName: '__ZN13_typst_syntax3ast4math192_$LT$impl$u20$pyo3..impl_..pyclass..PyMethods$LT$_typst_syntax..ast..math..PyEquation$GT$$u20$for$u20$pyo3..impl_..pyclass..PyClassImplCollector$LT$_typst_syntax..ast..math..PyEquation$GT$$GT$10py_methods5ITEMS17h5a1006de678cd1aeE', symObjAddr: 0x4770, symBinAddr: 0x292008, symSize: 0x0 }
  - { offset: 0xA19AC, size: 0x8, addend: 0x0, symName: '__ZN13_typst_syntax3ast4math192_$LT$impl$u20$pyo3..impl_..pyclass..PyMethods$LT$_typst_syntax..ast..math..PyEquation$GT$$u20$for$u20$pyo3..impl_..pyclass..PyClassImplCollector$LT$_typst_syntax..ast..math..PyEquation$GT$$GT$10py_methods5ITEMS10trampoline17hbe1661b72a942085E', symObjAddr: 0x52C, symBinAddr: 0x25294, symSize: 0x44 }
  - { offset: 0xA19E6, size: 0x8, addend: 0x0, symName: '__ZN13_typst_syntax3ast4math192_$LT$impl$u20$pyo3..impl_..pyclass..PyMethods$LT$_typst_syntax..ast..math..PyEquation$GT$$u20$for$u20$pyo3..impl_..pyclass..PyClassImplCollector$LT$_typst_syntax..ast..math..PyEquation$GT$$GT$10py_methods5ITEMS10trampoline17h74ce573fea27cea1E', symObjAddr: 0x570, symBinAddr: 0x252D8, symSize: 0x3C }
  - { offset: 0xA1A2C, size: 0x8, addend: 0x0, symName: '__ZN91_$LT$_typst_syntax..ast..math..PyMathIdent$u20$as$u20$pyo3..impl_..pyclass..PyClassImpl$GT$10items_iter15INTRINSIC_ITEMS17hc6764c220b95fdeaE', symObjAddr: 0x4F80, symBinAddr: 0x1B1688, symSize: 0x0 }
  - { offset: 0xA1A4C, size: 0x8, addend: 0x0, symName: '__ZN91_$LT$_typst_syntax..ast..math..PyMathIdent$u20$as$u20$pyo3..impl_..pyclass..PyClassImpl$GT$3doc3DOC17he29b26a22ccf3e19E', symObjAddr: 0x51A0, symBinAddr: 0x2A8540, symSize: 0x0 }
  - { offset: 0xA1A6C, size: 0x8, addend: 0x0, symName: '__ZN91_$LT$_typst_syntax..ast..math..PyMathIdent$u20$as$u20$pyo3..impl_..pyclass..PyClassImpl$GT$16lazy_type_object11TYPE_OBJECT17ha7ef469a685d5fc3E', symObjAddr: 0x51B8, symBinAddr: 0x2A8558, symSize: 0x0 }
  - { offset: 0xA1A7A, size: 0x8, addend: 0x0, symName: '__ZN91_$LT$_typst_syntax..ast..math..PyMathIdent$u20$as$u20$pyo3..impl_..pyclass..PyClassImpl$GT$10items_iter17hd3d6f502d041d7ddE', symObjAddr: 0xC0C, symBinAddr: 0x25974, symSize: 0x38 }
  - { offset: 0xA1AB5, size: 0x8, addend: 0x0, symName: '__ZN91_$LT$_typst_syntax..ast..math..PyMathIdent$u20$as$u20$pyo3..impl_..pyclass..PyClassImpl$GT$3doc17h3428d9bce13d1535E', symObjAddr: 0xC44, symBinAddr: 0x259AC, symSize: 0x3C }
  - { offset: 0xA1AEC, size: 0x8, addend: 0x0, symName: '__ZN91_$LT$_typst_syntax..ast..math..PyMathIdent$u20$as$u20$pyo3..impl_..pyclass..PyClassImpl$GT$16lazy_type_object17h9c64e59613e93795E', symObjAddr: 0xC80, symBinAddr: 0x259E8, symSize: 0xC }
  - { offset: 0xA1BC3, size: 0x8, addend: 0x0, symName: '__ZN13_typst_syntax3ast4math194_$LT$impl$u20$pyo3..impl_..pyclass..PyMethods$LT$_typst_syntax..ast..math..PyMathIdent$GT$$u20$for$u20$pyo3..impl_..pyclass..PyClassImplCollector$LT$_typst_syntax..ast..math..PyMathIdent$GT$$GT$10py_methods5ITEMS17hbac40c86349772a4E', symObjAddr: 0x4870, symBinAddr: 0x292108, symSize: 0x0 }
  - { offset: 0xA1BD5, size: 0x8, addend: 0x0, symName: '__ZN13_typst_syntax3ast4math194_$LT$impl$u20$pyo3..impl_..pyclass..PyMethods$LT$_typst_syntax..ast..math..PyMathIdent$GT$$u20$for$u20$pyo3..impl_..pyclass..PyClassImplCollector$LT$_typst_syntax..ast..math..PyMathIdent$GT$$GT$10py_methods5ITEMS10trampoline17he590f00175dc1231E', symObjAddr: 0xDA4, symBinAddr: 0x25B0C, symSize: 0x44 }
  - { offset: 0xA1C0F, size: 0x8, addend: 0x0, symName: '__ZN13_typst_syntax3ast4math194_$LT$impl$u20$pyo3..impl_..pyclass..PyMethods$LT$_typst_syntax..ast..math..PyMathIdent$GT$$u20$for$u20$pyo3..impl_..pyclass..PyClassImplCollector$LT$_typst_syntax..ast..math..PyMathIdent$GT$$GT$10py_methods5ITEMS10trampoline17hb3e7ef33c302cac4E', symObjAddr: 0xDE8, symBinAddr: 0x25B50, symSize: 0x44 }
  - { offset: 0xA1C49, size: 0x8, addend: 0x0, symName: '__ZN13_typst_syntax3ast4math194_$LT$impl$u20$pyo3..impl_..pyclass..PyMethods$LT$_typst_syntax..ast..math..PyMathIdent$GT$$u20$for$u20$pyo3..impl_..pyclass..PyClassImplCollector$LT$_typst_syntax..ast..math..PyMathIdent$GT$$GT$10py_methods5ITEMS10trampoline17h30b280ebc5b8d61eE', symObjAddr: 0xE2C, symBinAddr: 0x25B94, symSize: 0x3C }
  - { offset: 0xA1C8F, size: 0x8, addend: 0x0, symName: '__ZN92_$LT$_typst_syntax..ast..math..PyMathAttach$u20$as$u20$pyo3..impl_..pyclass..PyClassImpl$GT$10items_iter15INTRINSIC_ITEMS17h4eaee0ffc321c8deE', symObjAddr: 0x4FB0, symBinAddr: 0x1B16B8, symSize: 0x0 }
  - { offset: 0xA1CAF, size: 0x8, addend: 0x0, symName: '__ZN92_$LT$_typst_syntax..ast..math..PyMathAttach$u20$as$u20$pyo3..impl_..pyclass..PyClassImpl$GT$3doc3DOC17hff7221d453a8c319E', symObjAddr: 0x5200, symBinAddr: 0x2A85A0, symSize: 0x0 }
  - { offset: 0xA1CCF, size: 0x8, addend: 0x0, symName: '__ZN92_$LT$_typst_syntax..ast..math..PyMathAttach$u20$as$u20$pyo3..impl_..pyclass..PyClassImpl$GT$16lazy_type_object11TYPE_OBJECT17h9667596ef17d1d08E', symObjAddr: 0x5218, symBinAddr: 0x2A85B8, symSize: 0x0 }
  - { offset: 0xA1CDD, size: 0x8, addend: 0x0, symName: '__ZN92_$LT$_typst_syntax..ast..math..PyMathAttach$u20$as$u20$pyo3..impl_..pyclass..PyClassImpl$GT$10items_iter17h3db35bd1f89f03e0E', symObjAddr: 0x1484, symBinAddr: 0x261EC, symSize: 0x38 }
  - { offset: 0xA1D18, size: 0x8, addend: 0x0, symName: '__ZN92_$LT$_typst_syntax..ast..math..PyMathAttach$u20$as$u20$pyo3..impl_..pyclass..PyClassImpl$GT$3doc17h5bab08bc3c3a73e7E', symObjAddr: 0x14BC, symBinAddr: 0x26224, symSize: 0x3C }
  - { offset: 0xA1D4F, size: 0x8, addend: 0x0, symName: '__ZN92_$LT$_typst_syntax..ast..math..PyMathAttach$u20$as$u20$pyo3..impl_..pyclass..PyClassImpl$GT$16lazy_type_object17h9dd0b53ae8c0f70eE', symObjAddr: 0x14F8, symBinAddr: 0x26260, symSize: 0xC }
  - { offset: 0xA1E84, size: 0x8, addend: 0x0, symName: '__ZN13_typst_syntax3ast4math196_$LT$impl$u20$pyo3..impl_..pyclass..PyMethods$LT$_typst_syntax..ast..math..PyMathAttach$GT$$u20$for$u20$pyo3..impl_..pyclass..PyClassImplCollector$LT$_typst_syntax..ast..math..PyMathAttach$GT$$GT$10py_methods5ITEMS17h20bacece65a8ac21E', symObjAddr: 0x49E8, symBinAddr: 0x292280, symSize: 0x0 }
  - { offset: 0xA1E96, size: 0x8, addend: 0x0, symName: '__ZN13_typst_syntax3ast4math196_$LT$impl$u20$pyo3..impl_..pyclass..PyMethods$LT$_typst_syntax..ast..math..PyMathAttach$GT$$u20$for$u20$pyo3..impl_..pyclass..PyClassImplCollector$LT$_typst_syntax..ast..math..PyMathAttach$GT$$GT$10py_methods5ITEMS10trampoline17hc6d6b1d809248998E', symObjAddr: 0x1610, symBinAddr: 0x26378, symSize: 0x44 }
  - { offset: 0xA1ED0, size: 0x8, addend: 0x0, symName: '__ZN13_typst_syntax3ast4math196_$LT$impl$u20$pyo3..impl_..pyclass..PyMethods$LT$_typst_syntax..ast..math..PyMathAttach$GT$$u20$for$u20$pyo3..impl_..pyclass..PyClassImplCollector$LT$_typst_syntax..ast..math..PyMathAttach$GT$$GT$10py_methods5ITEMS10trampoline17h4689bab570d29e7cE', symObjAddr: 0x1654, symBinAddr: 0x263BC, symSize: 0x3C }
  - { offset: 0xA1F16, size: 0x8, addend: 0x0, symName: '__ZN95_$LT$_typst_syntax..ast..math..PyMathDelimited$u20$as$u20$pyo3..impl_..pyclass..PyClassImpl$GT$10items_iter15INTRINSIC_ITEMS17he0cfbb273e27aab9E', symObjAddr: 0x4FE0, symBinAddr: 0x1B16E8, symSize: 0x0 }
  - { offset: 0xA1F36, size: 0x8, addend: 0x0, symName: '__ZN95_$LT$_typst_syntax..ast..math..PyMathDelimited$u20$as$u20$pyo3..impl_..pyclass..PyClassImpl$GT$3doc3DOC17hfc983e7f4c4d42efE', symObjAddr: 0x5260, symBinAddr: 0x2A8600, symSize: 0x0 }
  - { offset: 0xA1F56, size: 0x8, addend: 0x0, symName: '__ZN95_$LT$_typst_syntax..ast..math..PyMathDelimited$u20$as$u20$pyo3..impl_..pyclass..PyClassImpl$GT$16lazy_type_object11TYPE_OBJECT17h39d2a54eb5a9dac3E', symObjAddr: 0x5278, symBinAddr: 0x2A8618, symSize: 0x0 }
  - { offset: 0xA1F64, size: 0x8, addend: 0x0, symName: '__ZN95_$LT$_typst_syntax..ast..math..PyMathDelimited$u20$as$u20$pyo3..impl_..pyclass..PyClassImpl$GT$10items_iter17hebbe3a8d4e1a4991E', symObjAddr: 0x1E0C, symBinAddr: 0x26B74, symSize: 0x38 }
  - { offset: 0xA1F9F, size: 0x8, addend: 0x0, symName: '__ZN95_$LT$_typst_syntax..ast..math..PyMathDelimited$u20$as$u20$pyo3..impl_..pyclass..PyClassImpl$GT$3doc17h934510f5981502a4E', symObjAddr: 0x1E44, symBinAddr: 0x26BAC, symSize: 0x3C }
  - { offset: 0xA1FD6, size: 0x8, addend: 0x0, symName: '__ZN95_$LT$_typst_syntax..ast..math..PyMathDelimited$u20$as$u20$pyo3..impl_..pyclass..PyClassImpl$GT$16lazy_type_object17hc84ea63d213da7dcE', symObjAddr: 0x1E80, symBinAddr: 0x26BE8, symSize: 0xC }
  - { offset: 0xA210B, size: 0x8, addend: 0x0, symName: '__ZN13_typst_syntax3ast4math202_$LT$impl$u20$pyo3..impl_..pyclass..PyMethods$LT$_typst_syntax..ast..math..PyMathDelimited$GT$$u20$for$u20$pyo3..impl_..pyclass..PyClassImplCollector$LT$_typst_syntax..ast..math..PyMathDelimited$GT$$GT$10py_methods5ITEMS17h7df7fa728f93218cE', symObjAddr: 0x4B60, symBinAddr: 0x2923F8, symSize: 0x0 }
  - { offset: 0xA211D, size: 0x8, addend: 0x0, symName: '__ZN13_typst_syntax3ast4math202_$LT$impl$u20$pyo3..impl_..pyclass..PyMethods$LT$_typst_syntax..ast..math..PyMathDelimited$GT$$u20$for$u20$pyo3..impl_..pyclass..PyClassImplCollector$LT$_typst_syntax..ast..math..PyMathDelimited$GT$$GT$10py_methods5ITEMS10trampoline17h7956866e2a1045e7E', symObjAddr: 0x1FB0, symBinAddr: 0x26D18, symSize: 0x44 }
  - { offset: 0xA2157, size: 0x8, addend: 0x0, symName: '__ZN13_typst_syntax3ast4math202_$LT$impl$u20$pyo3..impl_..pyclass..PyMethods$LT$_typst_syntax..ast..math..PyMathDelimited$GT$$u20$for$u20$pyo3..impl_..pyclass..PyClassImplCollector$LT$_typst_syntax..ast..math..PyMathDelimited$GT$$GT$10py_methods5ITEMS10trampoline17h40b0fe98b2dd73fdE', symObjAddr: 0x1FF4, symBinAddr: 0x26D5C, symSize: 0x3C }
  - { offset: 0xA219D, size: 0x8, addend: 0x0, symName: '__ZN90_$LT$_typst_syntax..ast..math..PyMathFrac$u20$as$u20$pyo3..impl_..pyclass..PyClassImpl$GT$10items_iter15INTRINSIC_ITEMS17ha88e045e164c58f4E', symObjAddr: 0x5018, symBinAddr: 0x1B1720, symSize: 0x0 }
  - { offset: 0xA21BD, size: 0x8, addend: 0x0, symName: '__ZN90_$LT$_typst_syntax..ast..math..PyMathFrac$u20$as$u20$pyo3..impl_..pyclass..PyClassImpl$GT$3doc3DOC17he69a4e564cddec44E', symObjAddr: 0x52C0, symBinAddr: 0x2A8660, symSize: 0x0 }
  - { offset: 0xA21DD, size: 0x8, addend: 0x0, symName: '__ZN90_$LT$_typst_syntax..ast..math..PyMathFrac$u20$as$u20$pyo3..impl_..pyclass..PyClassImpl$GT$16lazy_type_object11TYPE_OBJECT17hd5f92cb0a5a9458dE', symObjAddr: 0x52D8, symBinAddr: 0x2A8678, symSize: 0x0 }
  - { offset: 0xA21EB, size: 0x8, addend: 0x0, symName: '__ZN90_$LT$_typst_syntax..ast..math..PyMathFrac$u20$as$u20$pyo3..impl_..pyclass..PyClassImpl$GT$10items_iter17h5ee657dca8413564E', symObjAddr: 0x27C4, symBinAddr: 0x2752C, symSize: 0x38 }
  - { offset: 0xA2226, size: 0x8, addend: 0x0, symName: '__ZN90_$LT$_typst_syntax..ast..math..PyMathFrac$u20$as$u20$pyo3..impl_..pyclass..PyClassImpl$GT$3doc17hcc3ab433c7fdc358E', symObjAddr: 0x27FC, symBinAddr: 0x27564, symSize: 0x3C }
  - { offset: 0xA225D, size: 0x8, addend: 0x0, symName: '__ZN90_$LT$_typst_syntax..ast..math..PyMathFrac$u20$as$u20$pyo3..impl_..pyclass..PyClassImpl$GT$16lazy_type_object17h30f7c636daa041dfE', symObjAddr: 0x2838, symBinAddr: 0x275A0, symSize: 0xC }
  - { offset: 0xA2363, size: 0x8, addend: 0x0, symName: '__ZN13_typst_syntax3ast4math192_$LT$impl$u20$pyo3..impl_..pyclass..PyMethods$LT$_typst_syntax..ast..math..PyMathFrac$GT$$u20$for$u20$pyo3..impl_..pyclass..PyClassImplCollector$LT$_typst_syntax..ast..math..PyMathFrac$GT$$GT$10py_methods5ITEMS17h140635553b0f8ad2E', symObjAddr: 0x4CB0, symBinAddr: 0x292548, symSize: 0x0 }
  - { offset: 0xA2375, size: 0x8, addend: 0x0, symName: '__ZN13_typst_syntax3ast4math192_$LT$impl$u20$pyo3..impl_..pyclass..PyMethods$LT$_typst_syntax..ast..math..PyMathFrac$GT$$u20$for$u20$pyo3..impl_..pyclass..PyClassImplCollector$LT$_typst_syntax..ast..math..PyMathFrac$GT$$GT$10py_methods5ITEMS10trampoline17h7d3317c594306cdbE', symObjAddr: 0x2938, symBinAddr: 0x276A0, symSize: 0x44 }
  - { offset: 0xA23AF, size: 0x8, addend: 0x0, symName: '__ZN13_typst_syntax3ast4math192_$LT$impl$u20$pyo3..impl_..pyclass..PyMethods$LT$_typst_syntax..ast..math..PyMathFrac$GT$$u20$for$u20$pyo3..impl_..pyclass..PyClassImplCollector$LT$_typst_syntax..ast..math..PyMathFrac$GT$$GT$10py_methods5ITEMS10trampoline17h0a76bb0268c65fc2E', symObjAddr: 0x297C, symBinAddr: 0x276E4, symSize: 0x3C }
  - { offset: 0xA23F5, size: 0x8, addend: 0x0, symName: '__ZN90_$LT$_typst_syntax..ast..math..PyMathRoot$u20$as$u20$pyo3..impl_..pyclass..PyClassImpl$GT$10items_iter15INTRINSIC_ITEMS17h80758877360e4767E', symObjAddr: 0x5048, symBinAddr: 0x1B1750, symSize: 0x0 }
  - { offset: 0xA2415, size: 0x8, addend: 0x0, symName: '__ZN90_$LT$_typst_syntax..ast..math..PyMathRoot$u20$as$u20$pyo3..impl_..pyclass..PyClassImpl$GT$3doc3DOC17h3d5309999507544eE', symObjAddr: 0x5320, symBinAddr: 0x2A86C0, symSize: 0x0 }
  - { offset: 0xA2435, size: 0x8, addend: 0x0, symName: '__ZN90_$LT$_typst_syntax..ast..math..PyMathRoot$u20$as$u20$pyo3..impl_..pyclass..PyClassImpl$GT$16lazy_type_object11TYPE_OBJECT17h3fc6f6161266438bE', symObjAddr: 0x5338, symBinAddr: 0x2A86D8, symSize: 0x0 }
  - { offset: 0xA2443, size: 0x8, addend: 0x0, symName: '__ZN90_$LT$_typst_syntax..ast..math..PyMathRoot$u20$as$u20$pyo3..impl_..pyclass..PyClassImpl$GT$10items_iter17h076c714007ad9ae6E', symObjAddr: 0x3018, symBinAddr: 0x27D80, symSize: 0x38 }
  - { offset: 0xA247E, size: 0x8, addend: 0x0, symName: '__ZN90_$LT$_typst_syntax..ast..math..PyMathRoot$u20$as$u20$pyo3..impl_..pyclass..PyClassImpl$GT$3doc17haff32c482a2c903eE', symObjAddr: 0x3050, symBinAddr: 0x27DB8, symSize: 0x3C }
  - { offset: 0xA24B5, size: 0x8, addend: 0x0, symName: '__ZN90_$LT$_typst_syntax..ast..math..PyMathRoot$u20$as$u20$pyo3..impl_..pyclass..PyClassImpl$GT$16lazy_type_object17h0976a3beed5f2c43E', symObjAddr: 0x308C, symBinAddr: 0x27DF4, symSize: 0xC }
  - { offset: 0xA25BB, size: 0x8, addend: 0x0, symName: '__ZN13_typst_syntax3ast4math192_$LT$impl$u20$pyo3..impl_..pyclass..PyMethods$LT$_typst_syntax..ast..math..PyMathRoot$GT$$u20$for$u20$pyo3..impl_..pyclass..PyClassImplCollector$LT$_typst_syntax..ast..math..PyMathRoot$GT$$GT$10py_methods5ITEMS17hca92954b543ade11E', symObjAddr: 0x4DE8, symBinAddr: 0x292680, symSize: 0x0 }
  - { offset: 0xA25CD, size: 0x8, addend: 0x0, symName: '__ZN13_typst_syntax3ast4math192_$LT$impl$u20$pyo3..impl_..pyclass..PyMethods$LT$_typst_syntax..ast..math..PyMathRoot$GT$$u20$for$u20$pyo3..impl_..pyclass..PyClassImplCollector$LT$_typst_syntax..ast..math..PyMathRoot$GT$$GT$10py_methods5ITEMS10trampoline17h88f3b1676daaa5a0E', symObjAddr: 0x3168, symBinAddr: 0x27ED0, symSize: 0x44 }
  - { offset: 0xA2607, size: 0x8, addend: 0x0, symName: '__ZN13_typst_syntax3ast4math192_$LT$impl$u20$pyo3..impl_..pyclass..PyMethods$LT$_typst_syntax..ast..math..PyMathRoot$GT$$u20$for$u20$pyo3..impl_..pyclass..PyClassImplCollector$LT$_typst_syntax..ast..math..PyMathRoot$GT$$GT$10py_methods5ITEMS10trampoline17hb3eaee1ba29c5ea5E', symObjAddr: 0x31AC, symBinAddr: 0x27F14, symSize: 0x3C }
  - { offset: 0xA264D, size: 0x8, addend: 0x0, symName: '__ZN92_$LT$_typst_syntax..ast..math..PyMathPrimes$u20$as$u20$pyo3..impl_..pyclass..PyClassImpl$GT$10items_iter15INTRINSIC_ITEMS17ha4bc99f1c4b6e63cE', symObjAddr: 0x5078, symBinAddr: 0x1B1780, symSize: 0x0 }
  - { offset: 0xA266D, size: 0x8, addend: 0x0, symName: '__ZN92_$LT$_typst_syntax..ast..math..PyMathPrimes$u20$as$u20$pyo3..impl_..pyclass..PyClassImpl$GT$3doc3DOC17h86b6211e7d269f96E', symObjAddr: 0x5380, symBinAddr: 0x2A8720, symSize: 0x0 }
  - { offset: 0xA268D, size: 0x8, addend: 0x0, symName: '__ZN92_$LT$_typst_syntax..ast..math..PyMathPrimes$u20$as$u20$pyo3..impl_..pyclass..PyClassImpl$GT$16lazy_type_object11TYPE_OBJECT17hba0ff110430f4808E', symObjAddr: 0x5398, symBinAddr: 0x2A8738, symSize: 0x0 }
  - { offset: 0xA269B, size: 0x8, addend: 0x0, symName: '__ZN92_$LT$_typst_syntax..ast..math..PyMathPrimes$u20$as$u20$pyo3..impl_..pyclass..PyClassImpl$GT$10items_iter17hfcf53713826704d2E', symObjAddr: 0x3854, symBinAddr: 0x285BC, symSize: 0x38 }
  - { offset: 0xA26D6, size: 0x8, addend: 0x0, symName: '__ZN92_$LT$_typst_syntax..ast..math..PyMathPrimes$u20$as$u20$pyo3..impl_..pyclass..PyClassImpl$GT$3doc17hb711f2a28072da6eE', symObjAddr: 0x388C, symBinAddr: 0x285F4, symSize: 0x3C }
  - { offset: 0xA270D, size: 0x8, addend: 0x0, symName: '__ZN92_$LT$_typst_syntax..ast..math..PyMathPrimes$u20$as$u20$pyo3..impl_..pyclass..PyClassImpl$GT$16lazy_type_object17h549bf64452bffc69E', symObjAddr: 0x38C8, symBinAddr: 0x28630, symSize: 0xC }
  - { offset: 0xA27E4, size: 0x8, addend: 0x0, symName: '__ZN13_typst_syntax3ast4math196_$LT$impl$u20$pyo3..impl_..pyclass..PyMethods$LT$_typst_syntax..ast..math..PyMathPrimes$GT$$u20$for$u20$pyo3..impl_..pyclass..PyClassImplCollector$LT$_typst_syntax..ast..math..PyMathPrimes$GT$$GT$10py_methods5ITEMS17hbd112cc64646ad9cE', symObjAddr: 0x4EE8, symBinAddr: 0x292780, symSize: 0x0 }
  - { offset: 0xA27F6, size: 0x8, addend: 0x0, symName: '__ZN13_typst_syntax3ast4math196_$LT$impl$u20$pyo3..impl_..pyclass..PyMethods$LT$_typst_syntax..ast..math..PyMathPrimes$GT$$u20$for$u20$pyo3..impl_..pyclass..PyClassImplCollector$LT$_typst_syntax..ast..math..PyMathPrimes$GT$$GT$10py_methods5ITEMS10trampoline17h94888d98ac4d8ef1E', symObjAddr: 0x39A4, symBinAddr: 0x2870C, symSize: 0x44 }
  - { offset: 0xA2830, size: 0x8, addend: 0x0, symName: '__ZN13_typst_syntax3ast4math196_$LT$impl$u20$pyo3..impl_..pyclass..PyMethods$LT$_typst_syntax..ast..math..PyMathPrimes$GT$$u20$for$u20$pyo3..impl_..pyclass..PyClassImplCollector$LT$_typst_syntax..ast..math..PyMathPrimes$GT$$GT$10py_methods5ITEMS10trampoline17he5adf0b82797f90dE', symObjAddr: 0x39E8, symBinAddr: 0x28750, symSize: 0x3C }
  - { offset: 0xA285F, size: 0x8, addend: 0x0, symName: __ZN13_typst_syntax3ast4math4node17hf45cb5e4e1fadadaE, symObjAddr: 0x0, symBinAddr: 0x24D68, symSize: 0x40 }
  - { offset: 0xA288B, size: 0x8, addend: 0x0, symName: __ZN13_typst_syntax3ast4math8register17hb59dfc5c4770f867E, symObjAddr: 0x40, symBinAddr: 0x24DA8, symSize: 0x284 }
  - { offset: 0xA29A7, size: 0x8, addend: 0x0, symName: '__ZN86_$LT$_typst_syntax..ast..math..PyEquation$u20$as$u20$pyo3..type_object..PyTypeInfo$GT$15type_object_raw17h6c7e60a8999b8a3dE', symObjAddr: 0x2C4, symBinAddr: 0x2502C, symSize: 0x24 }
  - { offset: 0xA29E4, size: 0x8, addend: 0x0, symName: '__ZN138_$LT$_typst_syntax..ast..math..PyEquation$u20$as$u20$pyo3..conversion..IntoPy$LT$pyo3..instance..Py$LT$pyo3..types..any..PyAny$GT$$GT$$GT$7into_py17he133deb6656e4756E', symObjAddr: 0x2E8, symBinAddr: 0x25050, symSize: 0xA0 }
  - { offset: 0xA2A63, size: 0x8, addend: 0x0, symName: '__ZN87_$LT$_typst_syntax..ast..math..PyMathIdent$u20$as$u20$pyo3..type_object..PyTypeInfo$GT$15type_object_raw17haee7b7febd5f2912E', symObjAddr: 0xB48, symBinAddr: 0x258B0, symSize: 0x24 }
  - { offset: 0xA2AA0, size: 0x8, addend: 0x0, symName: '__ZN139_$LT$_typst_syntax..ast..math..PyMathIdent$u20$as$u20$pyo3..conversion..IntoPy$LT$pyo3..instance..Py$LT$pyo3..types..any..PyAny$GT$$GT$$GT$7into_py17h5dcf4998e6b5b0d7E', symObjAddr: 0xB6C, symBinAddr: 0x258D4, symSize: 0xA0 }
  - { offset: 0xA2B1F, size: 0x8, addend: 0x0, symName: '__ZN88_$LT$_typst_syntax..ast..math..PyMathAttach$u20$as$u20$pyo3..type_object..PyTypeInfo$GT$15type_object_raw17hbb402ee0cca7f917E', symObjAddr: 0x13C0, symBinAddr: 0x26128, symSize: 0x24 }
  - { offset: 0xA2B5C, size: 0x8, addend: 0x0, symName: '__ZN140_$LT$_typst_syntax..ast..math..PyMathAttach$u20$as$u20$pyo3..conversion..IntoPy$LT$pyo3..instance..Py$LT$pyo3..types..any..PyAny$GT$$GT$$GT$7into_py17hb4ac6a4547f16bb0E', symObjAddr: 0x13E4, symBinAddr: 0x2614C, symSize: 0xA0 }
  - { offset: 0xA2BDB, size: 0x8, addend: 0x0, symName: '__ZN91_$LT$_typst_syntax..ast..math..PyMathDelimited$u20$as$u20$pyo3..type_object..PyTypeInfo$GT$15type_object_raw17hb4e710fbde1633abE', symObjAddr: 0x1D48, symBinAddr: 0x26AB0, symSize: 0x24 }
  - { offset: 0xA2C18, size: 0x8, addend: 0x0, symName: '__ZN143_$LT$_typst_syntax..ast..math..PyMathDelimited$u20$as$u20$pyo3..conversion..IntoPy$LT$pyo3..instance..Py$LT$pyo3..types..any..PyAny$GT$$GT$$GT$7into_py17hb1fa7259cc5a433aE', symObjAddr: 0x1D6C, symBinAddr: 0x26AD4, symSize: 0xA0 }
  - { offset: 0xA2C97, size: 0x8, addend: 0x0, symName: '__ZN86_$LT$_typst_syntax..ast..math..PyMathFrac$u20$as$u20$pyo3..type_object..PyTypeInfo$GT$15type_object_raw17hb5dacdbe0a1df0bcE', symObjAddr: 0x2700, symBinAddr: 0x27468, symSize: 0x24 }
  - { offset: 0xA2CD4, size: 0x8, addend: 0x0, symName: '__ZN138_$LT$_typst_syntax..ast..math..PyMathFrac$u20$as$u20$pyo3..conversion..IntoPy$LT$pyo3..instance..Py$LT$pyo3..types..any..PyAny$GT$$GT$$GT$7into_py17h21924ae4df78f09fE', symObjAddr: 0x2724, symBinAddr: 0x2748C, symSize: 0xA0 }
  - { offset: 0xA2D53, size: 0x8, addend: 0x0, symName: '__ZN86_$LT$_typst_syntax..ast..math..PyMathRoot$u20$as$u20$pyo3..type_object..PyTypeInfo$GT$15type_object_raw17h40185508712ccd1fE', symObjAddr: 0x2F54, symBinAddr: 0x27CBC, symSize: 0x24 }
  - { offset: 0xA2D90, size: 0x8, addend: 0x0, symName: '__ZN138_$LT$_typst_syntax..ast..math..PyMathRoot$u20$as$u20$pyo3..conversion..IntoPy$LT$pyo3..instance..Py$LT$pyo3..types..any..PyAny$GT$$GT$$GT$7into_py17h4f938b4028b6dad8E', symObjAddr: 0x2F78, symBinAddr: 0x27CE0, symSize: 0xA0 }
  - { offset: 0xA2E0F, size: 0x8, addend: 0x0, symName: '__ZN88_$LT$_typst_syntax..ast..math..PyMathPrimes$u20$as$u20$pyo3..type_object..PyTypeInfo$GT$15type_object_raw17h8507aa70db55ff60E', symObjAddr: 0x3790, symBinAddr: 0x284F8, symSize: 0x24 }
  - { offset: 0xA2E4C, size: 0x8, addend: 0x0, symName: '__ZN140_$LT$_typst_syntax..ast..math..PyMathPrimes$u20$as$u20$pyo3..conversion..IntoPy$LT$pyo3..instance..Py$LT$pyo3..types..any..PyAny$GT$$GT$$GT$7into_py17h200b4dbad3f643d8E', symObjAddr: 0x37B4, symBinAddr: 0x2851C, symSize: 0xA0 }
  - { offset: 0xA3A5B, size: 0x8, addend: 0x0, symName: __ZN13_typst_syntax3ast4math10PyEquation4body17h0c2ed967483566f0E, symObjAddr: 0x408, symBinAddr: 0x25170, symSize: 0x50 }
  - { offset: 0xA3A7D, size: 0x8, addend: 0x0, symName: __ZN13_typst_syntax3ast4math10PyEquation5block17h4446de81a0e579cbE, symObjAddr: 0x458, symBinAddr: 0x251C0, symSize: 0x34 }
  - { offset: 0xA3A9F, size: 0x8, addend: 0x0, symName: __ZN13_typst_syntax3ast4math10PyEquation10to_untyped17h56c80074ebce1b69E, symObjAddr: 0x48C, symBinAddr: 0x251F4, symSize: 0x24 }
  - { offset: 0xA3AC1, size: 0x8, addend: 0x0, symName: __ZN13_typst_syntax3ast4math10PyEquation8__repr__17h986bd7029fe45d06E, symObjAddr: 0x4B0, symBinAddr: 0x25218, symSize: 0x7C }
  - { offset: 0xA3B1D, size: 0x8, addend: 0x0, symName: __ZN13_typst_syntax3ast4math10PyEquation21__pymethod_get_body__17h0a27db866d898928E, symObjAddr: 0x5AC, symBinAddr: 0x25314, symSize: 0x11C }
  - { offset: 0xA3BA8, size: 0x8, addend: 0x0, symName: __ZN13_typst_syntax3ast4math10PyEquation22__pymethod_get_block__17hd8c6dacf36f58fceE, symObjAddr: 0x6C8, symBinAddr: 0x25430, symSize: 0x11C }
  - { offset: 0xA3C33, size: 0x8, addend: 0x0, symName: __ZN13_typst_syntax3ast4math10PyEquation23__pymethod_to_untyped__17hd8c715732544f173E, symObjAddr: 0x7E4, symBinAddr: 0x2554C, symSize: 0x204 }
  - { offset: 0xA3D0D, size: 0x8, addend: 0x0, symName: __ZN13_typst_syntax3ast4math10PyEquation21__pymethod___repr____17h265208a4d530886aE, symObjAddr: 0x9E8, symBinAddr: 0x25750, symSize: 0x160 }
  - { offset: 0xA3E12, size: 0x8, addend: 0x0, symName: __ZN13_typst_syntax3ast4math11PyMathIdent6as_str17h81ee3db3a59f2d33E, symObjAddr: 0xC8C, symBinAddr: 0x259F4, symSize: 0x40 }
  - { offset: 0xA3E34, size: 0x8, addend: 0x0, symName: __ZN13_typst_syntax3ast4math11PyMathIdent10to_untyped17hce00a8b3df7d2c03E, symObjAddr: 0xCCC, symBinAddr: 0x25A34, symSize: 0x24 }
  - { offset: 0xA3E56, size: 0x8, addend: 0x0, symName: __ZN13_typst_syntax3ast4math11PyMathIdent8__repr__17h7f6609f0640ca01cE, symObjAddr: 0xCF0, symBinAddr: 0x25A58, symSize: 0xB4 }
  - { offset: 0xA3EB3, size: 0x8, addend: 0x0, symName: __ZN13_typst_syntax3ast4math11PyMathIdent19__pymethod_as_str__17h17638dd6a111c49bE, symObjAddr: 0xE68, symBinAddr: 0x25BD0, symSize: 0x1F4 }
  - { offset: 0xA3F8C, size: 0x8, addend: 0x0, symName: __ZN13_typst_syntax3ast4math11PyMathIdent23__pymethod_to_untyped__17hd01b93bda0a15cf7E, symObjAddr: 0x105C, symBinAddr: 0x25DC4, symSize: 0x204 }
  - { offset: 0xA4066, size: 0x8, addend: 0x0, symName: __ZN13_typst_syntax3ast4math11PyMathIdent21__pymethod___repr____17h43f558c7e5ed7b38E, symObjAddr: 0x1260, symBinAddr: 0x25FC8, symSize: 0x160 }
  - { offset: 0xA416B, size: 0x8, addend: 0x0, symName: __ZN13_typst_syntax3ast4math12PyMathAttach4base17hc277fc08a9ba42acE, symObjAddr: 0x1504, symBinAddr: 0x2626C, symSize: 0x50 }
  - { offset: 0xA418D, size: 0x8, addend: 0x0, symName: __ZN13_typst_syntax3ast4math12PyMathAttach3top17hf5f1c719f33468a6E, symObjAddr: 0x1554, symBinAddr: 0x262BC, symSize: 0x34 }
  - { offset: 0xA41AF, size: 0x8, addend: 0x0, symName: __ZN13_typst_syntax3ast4math12PyMathAttach6bottom17h885aa5b558d2f52dE, symObjAddr: 0x1588, symBinAddr: 0x262F0, symSize: 0x34 }
  - { offset: 0xA41D1, size: 0x8, addend: 0x0, symName: __ZN13_typst_syntax3ast4math12PyMathAttach10to_untyped17h338b77b43f296072E, symObjAddr: 0x15BC, symBinAddr: 0x26324, symSize: 0x24 }
  - { offset: 0xA41F3, size: 0x8, addend: 0x0, symName: __ZN13_typst_syntax3ast4math12PyMathAttach8__repr__17h03e3e39d61e6fd0dE, symObjAddr: 0x15E0, symBinAddr: 0x26348, symSize: 0x30 }
  - { offset: 0xA4215, size: 0x8, addend: 0x0, symName: __ZN13_typst_syntax3ast4math12PyMathAttach21__pymethod_get_base__17haa9b4d3a3b536376E, symObjAddr: 0x1690, symBinAddr: 0x263F8, symSize: 0x11C }
  - { offset: 0xA42A0, size: 0x8, addend: 0x0, symName: __ZN13_typst_syntax3ast4math12PyMathAttach20__pymethod_get_top__17h93728aa003983cecE, symObjAddr: 0x17AC, symBinAddr: 0x26514, symSize: 0x11C }
  - { offset: 0xA432B, size: 0x8, addend: 0x0, symName: __ZN13_typst_syntax3ast4math12PyMathAttach23__pymethod_get_bottom__17h2345354fce04c7dcE, symObjAddr: 0x18C8, symBinAddr: 0x26630, symSize: 0x11C }
  - { offset: 0xA43B6, size: 0x8, addend: 0x0, symName: __ZN13_typst_syntax3ast4math12PyMathAttach23__pymethod_to_untyped__17h4913a9b5eb8fac8dE, symObjAddr: 0x19E4, symBinAddr: 0x2674C, symSize: 0x204 }
  - { offset: 0xA4490, size: 0x8, addend: 0x0, symName: __ZN13_typst_syntax3ast4math12PyMathAttach21__pymethod___repr____17h82da9362997569a8E, symObjAddr: 0x1BE8, symBinAddr: 0x26950, symSize: 0x160 }
  - { offset: 0xA4595, size: 0x8, addend: 0x0, symName: __ZN13_typst_syntax3ast4math15PyMathDelimited4open17h781cd05f1a25dcc7E, symObjAddr: 0x1E8C, symBinAddr: 0x26BF4, symSize: 0x40 }
  - { offset: 0xA45B7, size: 0x8, addend: 0x0, symName: __ZN13_typst_syntax3ast4math15PyMathDelimited4body17h65f92a6b95f00054E, symObjAddr: 0x1ECC, symBinAddr: 0x26C34, symSize: 0x50 }
  - { offset: 0xA45D9, size: 0x8, addend: 0x0, symName: __ZN13_typst_syntax3ast4math15PyMathDelimited5close17h6b4798802af22ebaE, symObjAddr: 0x1F1C, symBinAddr: 0x26C84, symSize: 0x40 }
  - { offset: 0xA45FB, size: 0x8, addend: 0x0, symName: __ZN13_typst_syntax3ast4math15PyMathDelimited10to_untyped17h758eb0dd45292140E, symObjAddr: 0x1F5C, symBinAddr: 0x26CC4, symSize: 0x24 }
  - { offset: 0xA461D, size: 0x8, addend: 0x0, symName: __ZN13_typst_syntax3ast4math15PyMathDelimited8__repr__17h715563bfc6057b04E, symObjAddr: 0x1F80, symBinAddr: 0x26CE8, symSize: 0x30 }
  - { offset: 0xA463F, size: 0x8, addend: 0x0, symName: __ZN13_typst_syntax3ast4math15PyMathDelimited21__pymethod_get_open__17h353d5d2dfde957f2E, symObjAddr: 0x2030, symBinAddr: 0x26D98, symSize: 0x128 }
  - { offset: 0xA46CA, size: 0x8, addend: 0x0, symName: __ZN13_typst_syntax3ast4math15PyMathDelimited21__pymethod_get_body__17h114b3f407cb6f19bE, symObjAddr: 0x2158, symBinAddr: 0x26EC0, symSize: 0x11C }
  - { offset: 0xA4755, size: 0x8, addend: 0x0, symName: __ZN13_typst_syntax3ast4math15PyMathDelimited22__pymethod_get_close__17h5c1e42120667d63cE, symObjAddr: 0x2274, symBinAddr: 0x26FDC, symSize: 0x128 }
  - { offset: 0xA47E0, size: 0x8, addend: 0x0, symName: __ZN13_typst_syntax3ast4math15PyMathDelimited23__pymethod_to_untyped__17h7ba0e94d1717874dE, symObjAddr: 0x239C, symBinAddr: 0x27104, symSize: 0x204 }
  - { offset: 0xA48BA, size: 0x8, addend: 0x0, symName: __ZN13_typst_syntax3ast4math15PyMathDelimited21__pymethod___repr____17h81dbe64c824ed07cE, symObjAddr: 0x25A0, symBinAddr: 0x27308, symSize: 0x160 }
  - { offset: 0xA49BF, size: 0x8, addend: 0x0, symName: __ZN13_typst_syntax3ast4math10PyMathFrac3num17he440daf38f624399E, symObjAddr: 0x2844, symBinAddr: 0x275AC, symSize: 0x50 }
  - { offset: 0xA49E1, size: 0x8, addend: 0x0, symName: __ZN13_typst_syntax3ast4math10PyMathFrac5denom17h647bd32411b4c91fE, symObjAddr: 0x2894, symBinAddr: 0x275FC, symSize: 0x50 }
  - { offset: 0xA4A03, size: 0x8, addend: 0x0, symName: __ZN13_typst_syntax3ast4math10PyMathFrac10to_untyped17h9ee3c66d7574e055E, symObjAddr: 0x28E4, symBinAddr: 0x2764C, symSize: 0x24 }
  - { offset: 0xA4A25, size: 0x8, addend: 0x0, symName: __ZN13_typst_syntax3ast4math10PyMathFrac8__repr__17ha36826f1fe2d6ad1E, symObjAddr: 0x2908, symBinAddr: 0x27670, symSize: 0x30 }
  - { offset: 0xA4A47, size: 0x8, addend: 0x0, symName: __ZN13_typst_syntax3ast4math10PyMathFrac20__pymethod_get_num__17hbc5df54a2ad298b1E, symObjAddr: 0x29B8, symBinAddr: 0x27720, symSize: 0x11C }
  - { offset: 0xA4AD2, size: 0x8, addend: 0x0, symName: __ZN13_typst_syntax3ast4math10PyMathFrac22__pymethod_get_denom__17hed78e05093c7d8c3E, symObjAddr: 0x2AD4, symBinAddr: 0x2783C, symSize: 0x11C }
  - { offset: 0xA4B5D, size: 0x8, addend: 0x0, symName: __ZN13_typst_syntax3ast4math10PyMathFrac23__pymethod_to_untyped__17h92578d28c55482b9E, symObjAddr: 0x2BF0, symBinAddr: 0x27958, symSize: 0x204 }
  - { offset: 0xA4C37, size: 0x8, addend: 0x0, symName: __ZN13_typst_syntax3ast4math10PyMathFrac21__pymethod___repr____17hc01994af897f2770E, symObjAddr: 0x2DF4, symBinAddr: 0x27B5C, symSize: 0x160 }
  - { offset: 0xA4D3C, size: 0x8, addend: 0x0, symName: __ZN13_typst_syntax3ast4math10PyMathRoot5index17h7d1d33af7c98e71bE, symObjAddr: 0x3098, symBinAddr: 0x27E00, symSize: 0x2C }
  - { offset: 0xA4D5E, size: 0x8, addend: 0x0, symName: __ZN13_typst_syntax3ast4math10PyMathRoot8radicand17hf1e52577e8ab7e31E, symObjAddr: 0x30C4, symBinAddr: 0x27E2C, symSize: 0x50 }
  - { offset: 0xA4D80, size: 0x8, addend: 0x0, symName: __ZN13_typst_syntax3ast4math10PyMathRoot10to_untyped17hf4b5cce9753691caE, symObjAddr: 0x3114, symBinAddr: 0x27E7C, symSize: 0x24 }
  - { offset: 0xA4DA2, size: 0x8, addend: 0x0, symName: __ZN13_typst_syntax3ast4math10PyMathRoot8__repr__17h249330b22dcb4bb8E, symObjAddr: 0x3138, symBinAddr: 0x27EA0, symSize: 0x30 }
  - { offset: 0xA4DC4, size: 0x8, addend: 0x0, symName: __ZN13_typst_syntax3ast4math10PyMathRoot22__pymethod_get_index__17h74c5f3a484119e64E, symObjAddr: 0x31E8, symBinAddr: 0x27F50, symSize: 0x128 }
  - { offset: 0xA4E4F, size: 0x8, addend: 0x0, symName: __ZN13_typst_syntax3ast4math10PyMathRoot25__pymethod_get_radicand__17h595e734c335647edE, symObjAddr: 0x3310, symBinAddr: 0x28078, symSize: 0x11C }
  - { offset: 0xA4EDA, size: 0x8, addend: 0x0, symName: __ZN13_typst_syntax3ast4math10PyMathRoot23__pymethod_to_untyped__17h041b5267e8f2563dE, symObjAddr: 0x342C, symBinAddr: 0x28194, symSize: 0x204 }
  - { offset: 0xA4FB4, size: 0x8, addend: 0x0, symName: __ZN13_typst_syntax3ast4math10PyMathRoot21__pymethod___repr____17h507fd90be80fa509E, symObjAddr: 0x3630, symBinAddr: 0x28398, symSize: 0x160 }
  - { offset: 0xA50B9, size: 0x8, addend: 0x0, symName: __ZN13_typst_syntax3ast4math12PyMathPrimes5count17hf6bc2cb832922ff0E, symObjAddr: 0x38D4, symBinAddr: 0x2863C, symSize: 0x30 }
  - { offset: 0xA50DB, size: 0x8, addend: 0x0, symName: __ZN13_typst_syntax3ast4math12PyMathPrimes10to_untyped17hdb816658a8f614daE, symObjAddr: 0x3904, symBinAddr: 0x2866C, symSize: 0x24 }
  - { offset: 0xA50FD, size: 0x8, addend: 0x0, symName: __ZN13_typst_syntax3ast4math12PyMathPrimes8__repr__17h6f5e867cdb627ef3E, symObjAddr: 0x3928, symBinAddr: 0x28690, symSize: 0x7C }
  - { offset: 0xA5159, size: 0x8, addend: 0x0, symName: __ZN13_typst_syntax3ast4math12PyMathPrimes22__pymethod_get_count__17h81ae02b7a8d8ce72E, symObjAddr: 0x3A24, symBinAddr: 0x2878C, symSize: 0x11C }
  - { offset: 0xA51E4, size: 0x8, addend: 0x0, symName: __ZN13_typst_syntax3ast4math12PyMathPrimes23__pymethod_to_untyped__17hc0bb4d5b90d43a3bE, symObjAddr: 0x3B40, symBinAddr: 0x288A8, symSize: 0x204 }
  - { offset: 0xA52BE, size: 0x8, addend: 0x0, symName: __ZN13_typst_syntax3ast4math12PyMathPrimes21__pymethod___repr____17hc8fbd9b466b7b2b6E, symObjAddr: 0x3D44, symBinAddr: 0x28AAC, symSize: 0x160 }
  - { offset: 0xA5603, size: 0x8, addend: 0x0, symName: __ZN4pyo310exceptions15PyOverflowError7new_err17hd0dfbfe7a70e930dE, symObjAddr: 0x0, symBinAddr: 0x28C0C, symSize: 0x1C }
  - { offset: 0xA6F14, size: 0x8, addend: 0x0, symName: __ZN4pyo310exceptions15PyOverflowError7new_err17hd0dfbfe7a70e930dE, symObjAddr: 0x0, symBinAddr: 0x28C0C, symSize: 0x1C }
  - { offset: 0xA6F5D, size: 0x8, addend: 0x0, symName: __ZN13_typst_syntax5utils11py_is_ident17ha1f8c68ff3d91a67E, symObjAddr: 0x0, symBinAddr: 0x28C28, symSize: 0x28 }
  - { offset: 0xA83FD, size: 0x8, addend: 0x0, symName: __ZN13_typst_syntax5utils11py_is_ident17ha1f8c68ff3d91a67E, symObjAddr: 0x0, symBinAddr: 0x28C28, symSize: 0x28 }
  - { offset: 0xA8433, size: 0x8, addend: 0x0, symName: '__ZN13_typst_syntax5utils60_$LT$impl$u20$_typst_syntax..utils..py_is_ident..MakeDef$GT$9_PYO3_DEF10trampoline17h6d5fa7490a0171cfE', symObjAddr: 0x28, symBinAddr: 0x28C50, symSize: 0x50 }
  - { offset: 0xA848B, size: 0x8, addend: 0x0, symName: __ZN13_typst_syntax5utils24__pyfunction_py_is_ident17h13ee364142efd06dE, symObjAddr: 0x78, symBinAddr: 0x28CA0, symSize: 0x1E0 }
  - { offset: 0xA8632, size: 0x8, addend: 0x0, symName: __ZN13_typst_syntax5utils17py_split_newlines17h35d3c9c00f1fee3eE, symObjAddr: 0x258, symBinAddr: 0x28E80, symSize: 0x60 }
  - { offset: 0xA8668, size: 0x8, addend: 0x0, symName: '__ZN13_typst_syntax5utils66_$LT$impl$u20$_typst_syntax..utils..py_split_newlines..MakeDef$GT$9_PYO3_DEF10trampoline17h650d47fec4468d1cE', symObjAddr: 0x2B8, symBinAddr: 0x28EE0, symSize: 0x50 }
  - { offset: 0xA86C0, size: 0x8, addend: 0x0, symName: __ZN13_typst_syntax5utils30__pyfunction_py_split_newlines17h93998a70a17f555dE, symObjAddr: 0x308, symBinAddr: 0x28F30, symSize: 0x244 }
  - { offset: 0xA8829, size: 0x8, addend: 0x0, symName: __ZN13_typst_syntax5utils14py_link_prefix17hfa0f1099aabd9d75E, symObjAddr: 0x54C, symBinAddr: 0x29174, symSize: 0x7C }
  - { offset: 0xA888B, size: 0x8, addend: 0x0, symName: '__ZN13_typst_syntax5utils63_$LT$impl$u20$_typst_syntax..utils..py_link_prefix..MakeDef$GT$9_PYO3_DEF10trampoline17h98f07928845d70e8E', symObjAddr: 0x5C8, symBinAddr: 0x291F0, symSize: 0x50 }
  - { offset: 0xA88E3, size: 0x8, addend: 0x0, symName: __ZN13_typst_syntax5utils27__pyfunction_py_link_prefix17hb68a8b12c1684b3eE, symObjAddr: 0x618, symBinAddr: 0x29240, symSize: 0x244 }
  - { offset: 0xA947A, size: 0x8, addend: 0x0, symName: '__ZN4core3num23_$LT$impl$u20$usize$GT$13unchecked_add18precondition_check17hb3961af8c6a6c062E', symObjAddr: 0x0, symBinAddr: 0x29484, symSize: 0xB0 }
  - { offset: 0xA94C5, size: 0x8, addend: 0x0, symName: '__ZN4core3num23_$LT$impl$u20$usize$GT$13unchecked_add18precondition_check17hb3961af8c6a6c062E', symObjAddr: 0x0, symBinAddr: 0x29484, symSize: 0xB0 }
  - { offset: 0xA9A25, size: 0x8, addend: 0x0, symName: '__ZN4core5slice29_$LT$impl$u20$$u5b$T$u5d$$GT$20binary_search_by_key28_$u7b$$u7b$closure$u7d$$u7d$17h9162cd8d7ca952bbE', symObjAddr: 0x0, symBinAddr: 0x29534, symSize: 0x70 }
  - { offset: 0xA9A6A, size: 0x8, addend: 0x0, symName: '__ZN4core5slice29_$LT$impl$u20$$u5b$T$u5d$$GT$20binary_search_by_key28_$u7b$$u7b$closure$u7d$$u7d$17h9162cd8d7ca952bbE', symObjAddr: 0x0, symBinAddr: 0x29534, symSize: 0x70 }
  - { offset: 0xA9ADA, size: 0x8, addend: 0x0, symName: '__ZN4core5slice29_$LT$impl$u20$$u5b$T$u5d$$GT$4last17he682fbcbabc4392fE', symObjAddr: 0x70, symBinAddr: 0x295A4, symSize: 0x50 }
  - { offset: 0xA9B27, size: 0x8, addend: 0x0, symName: '__ZN4core5slice29_$LT$impl$u20$$u5b$T$u5d$$GT$8last_mut17hbda2323926560baeE', symObjAddr: 0xC0, symBinAddr: 0x295F4, symSize: 0x50 }
  - { offset: 0xA9D1E, size: 0x8, addend: 0x0, symName: '__ZN4core4iter6traits8iterator8Iterator8find_map5check28_$u7b$$u7b$closure$u7d$$u7d$17h2c5a373e6ab64deeE', symObjAddr: 0x0, symBinAddr: 0x29644, symSize: 0x78 }
  - { offset: 0xAB6BD, size: 0x8, addend: 0x0, symName: '__ZN4core4iter6traits8iterator8Iterator8find_map5check28_$u7b$$u7b$closure$u7d$$u7d$17h2c5a373e6ab64deeE', symObjAddr: 0x0, symBinAddr: 0x29644, symSize: 0x78 }
  - { offset: 0xAB74C, size: 0x8, addend: 0x0, symName: '__ZN4core4iter6traits8iterator8Iterator8for_each4call28_$u7b$$u7b$closure$u7d$$u7d$17h4eba084f4ae2f656E', symObjAddr: 0x78, symBinAddr: 0x296BC, symSize: 0x3C }
  - { offset: 0xAB7A5, size: 0x8, addend: 0x0, symName: '__ZN4core4iter6traits8iterator8Iterator8for_each4call28_$u7b$$u7b$closure$u7d$$u7d$17h659771f1f4393475E', symObjAddr: 0xB4, symBinAddr: 0x296F8, symSize: 0x3C }
  - { offset: 0xAB7FE, size: 0x8, addend: 0x0, symName: '__ZN4core4iter6traits8iterator8Iterator8for_each4call28_$u7b$$u7b$closure$u7d$$u7d$17ha4bc97689f58f375E', symObjAddr: 0xF0, symBinAddr: 0x29734, symSize: 0x3C }
  - { offset: 0xAB857, size: 0x8, addend: 0x0, symName: '__ZN4core4iter6traits8iterator8Iterator8for_each4call28_$u7b$$u7b$closure$u7d$$u7d$17hc5870be2466fe7feE', symObjAddr: 0x12C, symBinAddr: 0x29770, symSize: 0x40 }
  - { offset: 0xAB8B0, size: 0x8, addend: 0x0, symName: '__ZN4core4iter6traits8iterator8Iterator8for_each4call28_$u7b$$u7b$closure$u7d$$u7d$17hcd3206e6b1577ebdE', symObjAddr: 0x16C, symBinAddr: 0x297B0, symSize: 0x40 }
  - { offset: 0xAB909, size: 0x8, addend: 0x0, symName: '__ZN4core4iter6traits8iterator8Iterator8for_each4call28_$u7b$$u7b$closure$u7d$$u7d$17he501dcbdb1ae99bcE', symObjAddr: 0x1AC, symBinAddr: 0x297F0, symSize: 0x3C }
  - { offset: 0xAB973, size: 0x8, addend: 0x0, symName: '__ZN87_$LT$I$u20$as$u20$core..iter..traits..iterator..Iterator..advance_by..SpecAdvanceBy$GT$15spec_advance_by28_$u7b$$u7b$closure$u7d$$u7d$17h54872f16483d997cE', symObjAddr: 0x1E8, symBinAddr: 0x2982C, symSize: 0x40 }
  - { offset: 0xAB9C0, size: 0x8, addend: 0x0, symName: '__ZN87_$LT$I$u20$as$u20$core..iter..traits..iterator..Iterator..advance_by..SpecAdvanceBy$GT$15spec_advance_by28_$u7b$$u7b$closure$u7d$$u7d$17h7880575a484ff390E', symObjAddr: 0x228, symBinAddr: 0x2986C, symSize: 0x40 }
  - { offset: 0xABA0D, size: 0x8, addend: 0x0, symName: '__ZN87_$LT$I$u20$as$u20$core..iter..traits..iterator..Iterator..advance_by..SpecAdvanceBy$GT$15spec_advance_by28_$u7b$$u7b$closure$u7d$$u7d$17ha28ff5930aeaa108E', symObjAddr: 0x268, symBinAddr: 0x298AC, symSize: 0x40 }
  - { offset: 0xABA5A, size: 0x8, addend: 0x0, symName: '__ZN87_$LT$I$u20$as$u20$core..iter..traits..iterator..Iterator..advance_by..SpecAdvanceBy$GT$15spec_advance_by28_$u7b$$u7b$closure$u7d$$u7d$17he2a0412632bca0b1E', symObjAddr: 0x2A8, symBinAddr: 0x298EC, symSize: 0x40 }
  - { offset: 0xAD758, size: 0x8, addend: 0x0, symName: '__ZN69_$LT$typst_syntax..kind..SyntaxKind$u20$as$u20$core..clone..Clone$GT$5clone17h81c6a7f970f79ef9E', symObjAddr: 0x0, symBinAddr: 0x2992C, symSize: 0x18 }
  - { offset: 0xADAAA, size: 0x8, addend: 0x0, symName: '__ZN69_$LT$typst_syntax..kind..SyntaxKind$u20$as$u20$core..clone..Clone$GT$5clone17h81c6a7f970f79ef9E', symObjAddr: 0x0, symBinAddr: 0x2992C, symSize: 0x18 }
  - { offset: 0xADADC, size: 0x8, addend: 0x0, symName: '__ZN71_$LT$typst_syntax..kind..SyntaxKind$u20$as$u20$core..cmp..PartialEq$GT$2eq17h1013a6d5f5cb7225E', symObjAddr: 0x18, symBinAddr: 0x29944, symSize: 0x34 }
  - { offset: 0xADB8C, size: 0x8, addend: 0x0, symName: __ZN4pyo35types14notimplemented16PyNotImplemented9get_bound17hfd35032016adf041E, symObjAddr: 0x0, symBinAddr: 0x29978, symSize: 0x2C }
  - { offset: 0xAF278, size: 0x8, addend: 0x0, symName: __ZN4pyo35types14notimplemented16PyNotImplemented9get_bound17hfd35032016adf041E, symObjAddr: 0x0, symBinAddr: 0x29978, symSize: 0x2C }
  - { offset: 0xAF2C3, size: 0x8, addend: 0x0, symName: '__ZN12typst_syntax5lines14Lines$LT$T$GT$12line_to_byte17h496a7121b57dffbbE', symObjAddr: 0x0, symBinAddr: 0x299A4, symSize: 0x3C }
  - { offset: 0xAF74D, size: 0x8, addend: 0x0, symName: '__ZN4core5slice29_$LT$impl$u20$$u5b$T$u5d$$GT$16binary_search_by17h62a42be7f338b85fE', symObjAddr: 0x8DC, symBinAddr: 0x2A280, symSize: 0x2E4 }
  - { offset: 0xAFA07, size: 0x8, addend: 0x0, symName: '__ZN4core5slice29_$LT$impl$u20$$u5b$T$u5d$$GT$20binary_search_by_key17h06274ddcc359e138E', symObjAddr: 0xBC0, symBinAddr: 0x2A564, symSize: 0x64 }
  - { offset: 0xAFA6E, size: 0x8, addend: 0x0, symName: '__ZN4core5slice29_$LT$impl$u20$$u5b$T$u5d$$GT$4last17h7a9b38624ecb3a24E', symObjAddr: 0xC24, symBinAddr: 0x2A5C8, symSize: 0x50 }
  - { offset: 0xAFEC0, size: 0x8, addend: 0x0, symName: '__ZN12typst_syntax5lines14Lines$LT$T$GT$12line_to_byte28_$u7b$$u7b$closure$u7d$$u7d$17h883c518490e573dbE', symObjAddr: 0x3C, symBinAddr: 0x299E0, symSize: 0x18 }
  - { offset: 0xAFF0C, size: 0x8, addend: 0x0, symName: '__ZN12typst_syntax5lines14Lines$LT$T$GT$13utf16_to_byte28_$u7b$$u7b$closure$u7d$$u7d$17hc92f43c31889d3ffE', symObjAddr: 0x3A0, symBinAddr: 0x29D44, symSize: 0x1C }
  - { offset: 0xB014A, size: 0x8, addend: 0x0, symName: '__ZN12typst_syntax5lines14Lines$LT$T$GT$12line_to_byte17h496a7121b57dffbbE', symObjAddr: 0x0, symBinAddr: 0x299A4, symSize: 0x3C }
  - { offset: 0xB0183, size: 0x8, addend: 0x0, symName: '__ZN12typst_syntax5lines14Lines$LT$T$GT$13line_to_range17h82cfdc726670cc75E', symObjAddr: 0x54, symBinAddr: 0x299F8, symSize: 0xDC }
  - { offset: 0xB020B, size: 0x8, addend: 0x0, symName: '__ZN12typst_syntax5lines14Lines$LT$T$GT$13utf16_to_byte17h382fc0b1c7282b1bE', symObjAddr: 0x130, symBinAddr: 0x29AD4, symSize: 0x270 }
  - { offset: 0xB0311, size: 0x8, addend: 0x0, symName: '__ZN12typst_syntax5lines14Lines$LT$T$GT$14byte_to_column17hd1d17ee916b308d3E', symObjAddr: 0x3BC, symBinAddr: 0x29D60, symSize: 0x114 }
  - { offset: 0xB0416, size: 0x8, addend: 0x0, symName: '__ZN12typst_syntax5lines14Lines$LT$T$GT$19byte_to_line_column17h2274628144f27bd2E', symObjAddr: 0x4D0, symBinAddr: 0x29E74, symSize: 0x118 }
  - { offset: 0xB051A, size: 0x8, addend: 0x0, symName: '__ZN12typst_syntax5lines14Lines$LT$T$GT$19line_column_to_byte17hf41f801f017928d7E', symObjAddr: 0x5E8, symBinAddr: 0x29F8C, symSize: 0x1E0 }
  - { offset: 0xB0619, size: 0x8, addend: 0x0, symName: '__ZN12typst_syntax5lines14Lines$LT$T$GT$9len_bytes17h34ae3842deaa99b1E', symObjAddr: 0x7C8, symBinAddr: 0x2A16C, symSize: 0x30 }
  - { offset: 0xB0644, size: 0x8, addend: 0x0, symName: '__ZN12typst_syntax5lines14Lines$LT$T$GT$9len_lines17hdf07775b58b68c73E', symObjAddr: 0x7F8, symBinAddr: 0x2A19C, symSize: 0x28 }
  - { offset: 0xB06E2, size: 0x8, addend: 0x0, symName: '__ZN12typst_syntax5lines14Lines$LT$T$GT$9len_utf1617h136fcac371f84b37E', symObjAddr: 0x820, symBinAddr: 0x2A1C4, symSize: 0xBC }
  - { offset: 0xB0830, size: 0x8, addend: 0x0, symName: __ZN4core5alloc6layout6Layout25from_size_align_unchecked18precondition_check17h2159ea38142a3604E, symObjAddr: 0x0, symBinAddr: 0x2A618, symSize: 0xBC }
  - { offset: 0xB0B5C, size: 0x8, addend: 0x0, symName: __ZN4core5alloc6layout6Layout25from_size_align_unchecked18precondition_check17h2159ea38142a3604E, symObjAddr: 0x0, symBinAddr: 0x2A618, symSize: 0xBC }
  - { offset: 0xB0D6C, size: 0x8, addend: 0x0, symName: '__ZN61_$LT$typst_syntax..span..Span$u20$as$u20$core..fmt..Debug$GT$3fmt17h6aa3646f87e1399fE', symObjAddr: 0x0, symBinAddr: 0x2A6D4, symSize: 0x54 }
  - { offset: 0xB0ECA, size: 0x8, addend: 0x0, symName: '__ZN61_$LT$typst_syntax..span..Span$u20$as$u20$core..fmt..Debug$GT$3fmt17h6aa3646f87e1399fE', symObjAddr: 0x0, symBinAddr: 0x2A6D4, symSize: 0x54 }
  - { offset: 0xB0F0A, size: 0x8, addend: 0x0, symName: '__ZN63_$LT$typst_syntax..span..Span$u20$as$u20$core..clone..Clone$GT$5clone17h784b6e927d52be57E', symObjAddr: 0x54, symBinAddr: 0x2A728, symSize: 0x18 }
  - { offset: 0xB0FEA, size: 0x8, addend: 0x0, symName: '__ZN4core3ptr9const_ptr33_$LT$impl$u20$$BP$const$u20$T$GT$20offset_from_unsigned18precondition_check17h9d4f704abf63b927E', symObjAddr: 0x0, symBinAddr: 0x2A740, symSize: 0xAC }
  - { offset: 0xB12D4, size: 0x8, addend: 0x0, symName: '__ZN4core3ptr9const_ptr33_$LT$impl$u20$$BP$const$u20$T$GT$20offset_from_unsigned18precondition_check17h9d4f704abf63b927E', symObjAddr: 0x0, symBinAddr: 0x2A740, symSize: 0xAC }
  - { offset: 0xB13D2, size: 0x8, addend: 0x0, symName: '__ZN4core3ptr9const_ptr33_$LT$impl$u20$$BP$const$u20$T$GT$6offset18precondition_check17h20ebb4c81c6c14e6E', symObjAddr: 0xAC, symBinAddr: 0x2A7EC, symSize: 0x10C }
  - { offset: 0xB194F, size: 0x8, addend: 0x0, symName: __ZN4pyo311type_object10PyTypeInfo16is_type_of_bound17h8bb4490198b26024E, symObjAddr: 0x0, symBinAddr: 0x2A8F8, symSize: 0x50 }
  - { offset: 0xB2123, size: 0x8, addend: 0x0, symName: '__ZN50_$LT$T$u20$as$u20$core..convert..Into$LT$U$GT$$GT$4into17h6e478a73f3d28a58E', symObjAddr: 0x80, symBinAddr: 0x2A978, symSize: 0x20 }
  - { offset: 0xB2EF1, size: 0x8, addend: 0x0, symName: __ZN4pyo311type_object10PyTypeInfo16is_type_of_bound17h8bb4490198b26024E, symObjAddr: 0x0, symBinAddr: 0x2A8F8, symSize: 0x50 }
  - { offset: 0xB2F2C, size: 0x8, addend: 0x0, symName: '__ZN52_$LT$T$u20$as$u20$pyo3..type_object..PyTypeCheck$GT$10type_check17hf899ae05d6d52494E', symObjAddr: 0xA0, symBinAddr: 0x2A998, symSize: 0x24 }
  - { offset: 0xB2F72, size: 0x8, addend: 0x0, symName: __ZN4pyo35impl_7pyclass11PyClassImpl11dict_offset17h5dfc79e238ac63c7E, symObjAddr: 0x50, symBinAddr: 0x2A948, symSize: 0x18 }
  - { offset: 0xB2F99, size: 0x8, addend: 0x0, symName: __ZN4pyo35impl_7pyclass11PyClassImpl15weaklist_offset17h0f3542d90047f228E, symObjAddr: 0x68, symBinAddr: 0x2A960, symSize: 0x18 }
  - { offset: 0xB2FEA, size: 0x8, addend: 0x0, symName: '__ZN56_$LT$T$u20$as$u20$pyo3..impl_..wrap..OkWrap$LT$T$GT$$GT$4wrap17h351c8fe14b177098E', symObjAddr: 0xC4, symBinAddr: 0x2A9BC, symSize: 0x18 }
  - { offset: 0xB33D6, size: 0x8, addend: 0x0, symName: '__ZN85_$LT$_typst_syntax..highlight..PyTag$u20$as$u20$pyo3..impl_..pyclass..PyClassImpl$GT$3doc28_$u7b$$u7b$closure$u7d$$u7d$17hbb6ad6e6a88ee477E', symObjAddr: 0xDC, symBinAddr: 0x2A9D4, symSize: 0x58 }
  - { offset: 0xB343D, size: 0x8, addend: 0x0, symName: '__ZN13_typst_syntax9highlight182_$LT$impl$u20$pyo3..impl_..pyclass..PyMethods$LT$_typst_syntax..highlight..PyTag$GT$$u20$for$u20$pyo3..impl_..pyclass..PyClassImplCollector$LT$_typst_syntax..highlight..PyTag$GT$$GT$10py_methods5ITEMS49_$LT$impl$u20$_typst_syntax..highlight..PyTag$GT$24__pymethod___richcmp____28_$u7b$$u7b$closure$u7d$$u7d$17h576962c426dd31f0E', symObjAddr: 0x134, symBinAddr: 0x2AA2C, symSize: 0x144 }
  - { offset: 0xB34DE, size: 0x8, addend: 0x0, symName: '__ZN13_typst_syntax9highlight12py_highlight28_$u7b$$u7b$closure$u7d$$u7d$17h067f247b3ac06802E', symObjAddr: 0x278, symBinAddr: 0x2AB70, symSize: 0x10 }
  - { offset: 0xB3B2C, size: 0x8, addend: 0x0, symName: __ZN4pyo35impl_5panic9PanicTrap3new17hfef62b7e53b696eaE, symObjAddr: 0x0, symBinAddr: 0x2AB80, symSize: 0x18 }
  - { offset: 0xB3BBB, size: 0x8, addend: 0x0, symName: __ZN4pyo35impl_5panic9PanicTrap3new17hfef62b7e53b696eaE, symObjAddr: 0x0, symBinAddr: 0x2AB80, symSize: 0x18 }
  - { offset: 0xB3BDD, size: 0x8, addend: 0x0, symName: __ZN4pyo35impl_5panic9PanicTrap6disarm17h8151f06eb766283cE, symObjAddr: 0x18, symBinAddr: 0x2AB98, symSize: 0x28 }
  - { offset: 0xB3C1D, size: 0x8, addend: 0x0, symName: __ZN12typst_syntax5lexer8is_ident17h60b46cc764844d16E, symObjAddr: 0x0, symBinAddr: 0x2ABC0, symSize: 0x48 }
  - { offset: 0xB3C34, size: 0x8, addend: 0x0, symName: __ZN12typst_syntax5lexer8is_ident17h60b46cc764844d16E, symObjAddr: 0x0, symBinAddr: 0x2ABC0, symSize: 0x48 }
  - { offset: 0xB3DA1, size: 0x8, addend: 0x0, symName: '__ZN45_$LT$T$u20$as$u20$alloc..string..ToString$GT$9to_string17h784ca623f7f5c68fE', symObjAddr: 0x0, symBinAddr: 0x2AC08, symSize: 0x24 }
  - { offset: 0xB3DF0, size: 0x8, addend: 0x0, symName: '__ZN45_$LT$T$u20$as$u20$alloc..string..ToString$GT$9to_string17h784ca623f7f5c68fE', symObjAddr: 0x0, symBinAddr: 0x2AC08, symSize: 0x24 }
  - { offset: 0xB3E2D, size: 0x8, addend: 0x0, symName: '__ZN49_$LT$T$u20$as$u20$alloc..string..SpecToString$GT$14spec_to_string17h986352c15581704fE', symObjAddr: 0x24, symBinAddr: 0x2AC2C, symSize: 0xF4 }
  - { offset: 0xB4265, size: 0x8, addend: 0x0, symName: '__ZN104_$LT$T$u20$as$u20$pyo3..callback..IntoPyCallbackOutput$LT$$BP$mut$u20$pyo3_ffi..object..PyObject$GT$$GT$7convert17h55c4d939578c41c8E', symObjAddr: 0x0, symBinAddr: 0x2AD20, symSize: 0x38 }
  - { offset: 0xB4A61, size: 0x8, addend: 0x0, symName: '__ZN145_$LT$core..option..Option$LT$T$GT$$u20$as$u20$core..ops..try_trait..FromResidual$LT$core..option..Option$LT$core..convert..Infallible$GT$$GT$$GT$13from_residual17h088773aaad387a55E', symObjAddr: 0x104, symBinAddr: 0x2AE24, symSize: 0x10 }
  - { offset: 0xB4A94, size: 0x8, addend: 0x0, symName: '__ZN145_$LT$core..option..Option$LT$T$GT$$u20$as$u20$core..ops..try_trait..FromResidual$LT$core..option..Option$LT$core..convert..Infallible$GT$$GT$$GT$13from_residual17h8e705319e9b58941E', symObjAddr: 0x114, symBinAddr: 0x2AE34, symSize: 0x18 }
  - { offset: 0xB4AC7, size: 0x8, addend: 0x0, symName: '__ZN145_$LT$core..option..Option$LT$T$GT$$u20$as$u20$core..ops..try_trait..FromResidual$LT$core..option..Option$LT$core..convert..Infallible$GT$$GT$$GT$13from_residual17hebad79530afae66aE', symObjAddr: 0x12C, symBinAddr: 0x2AE4C, symSize: 0x18 }
  - { offset: 0xBD972, size: 0x8, addend: 0x0, symName: '__ZN66_$LT$core..option..Option$LT$T$GT$$u20$as$u20$core..fmt..Debug$GT$3fmt17h24f261e7b2bc4080E', symObjAddr: 0x772C, symBinAddr: 0x3244C, symSize: 0x98 }
  - { offset: 0xBD9DC, size: 0x8, addend: 0x0, symName: '__ZN75_$LT$core..option..Option$LT$T$GT$$u20$as$u20$core..ops..try_trait..Try$GT$6branch17h09e7b65be0a3a63bE', symObjAddr: 0x77C4, symBinAddr: 0x324E4, symSize: 0x40 }
  - { offset: 0xBDA31, size: 0x8, addend: 0x0, symName: '__ZN75_$LT$core..option..Option$LT$T$GT$$u20$as$u20$core..ops..try_trait..Try$GT$6branch17h78165d9046b32ebdE', symObjAddr: 0x7804, symBinAddr: 0x32524, symSize: 0x58 }
  - { offset: 0xBDA87, size: 0x8, addend: 0x0, symName: '__ZN75_$LT$core..option..Option$LT$T$GT$$u20$as$u20$core..ops..try_trait..Try$GT$6branch17h96d5f389239b8c66E', symObjAddr: 0x785C, symBinAddr: 0x3257C, symSize: 0x40 }
  - { offset: 0xBDCDD, size: 0x8, addend: 0x0, symName: '__ZN4core3ptr9const_ptr33_$LT$impl$u20$$BP$const$u20$T$GT$7is_null17had86fd1cbfc1d6c0E', symObjAddr: 0x144, symBinAddr: 0x2AE64, symSize: 0x18 }
  - { offset: 0xBDF7D, size: 0x8, addend: 0x0, symName: '__ZN4core5slice29_$LT$impl$u20$$u5b$T$u5d$$GT$15copy_from_slice17hed8de9c68e82f9e3E', symObjAddr: 0x15C, symBinAddr: 0x2AE7C, symSize: 0xAC }
  - { offset: 0xBE048, size: 0x8, addend: 0x0, symName: '__ZN4core5slice29_$LT$impl$u20$$u5b$T$u5d$$GT$18split_at_unchecked17hea891ee33161a4e4E', symObjAddr: 0x208, symBinAddr: 0x2AF28, symSize: 0xEC }
  - { offset: 0xBE1D4, size: 0x8, addend: 0x0, symName: '__ZN4core5slice29_$LT$impl$u20$$u5b$T$u5d$$GT$8split_at17h6b04b9f06d5b608bE', symObjAddr: 0x2F4, symBinAddr: 0x2B014, symSize: 0xD8 }
  - { offset: 0xC0F2E, size: 0x8, addend: 0x0, symName: '__ZN104_$LT$T$u20$as$u20$pyo3..callback..IntoPyCallbackOutput$LT$$BP$mut$u20$pyo3_ffi..object..PyObject$GT$$GT$7convert17h55c4d939578c41c8E', symObjAddr: 0x0, symBinAddr: 0x2AD20, symSize: 0x38 }
  - { offset: 0xC0F7C, size: 0x8, addend: 0x0, symName: '__ZN104_$LT$T$u20$as$u20$pyo3..callback..IntoPyCallbackOutput$LT$$BP$mut$u20$pyo3_ffi..object..PyObject$GT$$GT$7convert17h73dc97e332864722E', symObjAddr: 0x38, symBinAddr: 0x2AD58, symSize: 0x34 }
  - { offset: 0xC0FCA, size: 0x8, addend: 0x0, symName: '__ZN104_$LT$T$u20$as$u20$pyo3..callback..IntoPyCallbackOutput$LT$$BP$mut$u20$pyo3_ffi..object..PyObject$GT$$GT$7convert17h8e2222832c207aaeE', symObjAddr: 0x6C, symBinAddr: 0x2AD8C, symSize: 0x30 }
  - { offset: 0xC1019, size: 0x8, addend: 0x0, symName: '__ZN104_$LT$T$u20$as$u20$pyo3..callback..IntoPyCallbackOutput$LT$$BP$mut$u20$pyo3_ffi..object..PyObject$GT$$GT$7convert17haa39831166331dc8E', symObjAddr: 0x9C, symBinAddr: 0x2ADBC, symSize: 0x38 }
  - { offset: 0xC1067, size: 0x8, addend: 0x0, symName: '__ZN104_$LT$T$u20$as$u20$pyo3..callback..IntoPyCallbackOutput$LT$$BP$mut$u20$pyo3_ffi..object..PyObject$GT$$GT$7convert17hb81ed5da59ab0fb3E', symObjAddr: 0xD4, symBinAddr: 0x2ADF4, symSize: 0x30 }
  - { offset: 0xC2671, size: 0x8, addend: 0x0, symName: '__ZN56_$LT$T$u20$as$u20$pyo3..impl_..wrap..OkWrap$LT$T$GT$$GT$4wrap17h5354f3fed64b462dE', symObjAddr: 0x768C, symBinAddr: 0x323AC, symSize: 0x18 }
  - { offset: 0xC26A6, size: 0x8, addend: 0x0, symName: '__ZN56_$LT$T$u20$as$u20$pyo3..impl_..wrap..OkWrap$LT$T$GT$$GT$4wrap17h54718d2cb223f7c2E', symObjAddr: 0x76A4, symBinAddr: 0x323C4, symSize: 0x24 }
  - { offset: 0xC26DB, size: 0x8, addend: 0x0, symName: '__ZN56_$LT$T$u20$as$u20$pyo3..impl_..wrap..OkWrap$LT$T$GT$$GT$4wrap17hc81f7c162879f6b6E', symObjAddr: 0x76C8, symBinAddr: 0x323E8, symSize: 0x18 }
  - { offset: 0xC2710, size: 0x8, addend: 0x0, symName: '__ZN56_$LT$T$u20$as$u20$pyo3..impl_..wrap..OkWrap$LT$T$GT$$GT$4wrap17hd80ffa70e7ebb153E', symObjAddr: 0x76E0, symBinAddr: 0x32400, symSize: 0x30 }
  - { offset: 0xC2746, size: 0x8, addend: 0x0, symName: '__ZN56_$LT$T$u20$as$u20$pyo3..impl_..wrap..OkWrap$LT$T$GT$$GT$4wrap17heb6dfa9ac70fde20E', symObjAddr: 0x7710, symBinAddr: 0x32430, symSize: 0x1C }
  - { offset: 0xC2914, size: 0x8, addend: 0x0, symName: '__ZN4pyo311conversions3std6option141_$LT$impl$u20$pyo3..conversion..IntoPy$LT$pyo3..instance..Py$LT$pyo3..types..any..PyAny$GT$$GT$$u20$for$u20$core..option..Option$LT$T$GT$$GT$7into_py17h0720f1c4189427eeE', symObjAddr: 0x74FC, symBinAddr: 0x3221C, symSize: 0x2C }
  - { offset: 0xC2962, size: 0x8, addend: 0x0, symName: '__ZN4pyo311conversions3std6option141_$LT$impl$u20$pyo3..conversion..IntoPy$LT$pyo3..instance..Py$LT$pyo3..types..any..PyAny$GT$$GT$$u20$for$u20$core..option..Option$LT$T$GT$$GT$7into_py17h1e849d3c3134f8e8E', symObjAddr: 0x7528, symBinAddr: 0x32248, symSize: 0x2C }
  - { offset: 0xC29B0, size: 0x8, addend: 0x0, symName: '__ZN4pyo311conversions3std6option141_$LT$impl$u20$pyo3..conversion..IntoPy$LT$pyo3..instance..Py$LT$pyo3..types..any..PyAny$GT$$GT$$u20$for$u20$core..option..Option$LT$T$GT$$GT$7into_py17h1f538316a38afdb9E', symObjAddr: 0x7554, symBinAddr: 0x32274, symSize: 0x2C }
  - { offset: 0xC29FE, size: 0x8, addend: 0x0, symName: '__ZN4pyo311conversions3std6option141_$LT$impl$u20$pyo3..conversion..IntoPy$LT$pyo3..instance..Py$LT$pyo3..types..any..PyAny$GT$$GT$$u20$for$u20$core..option..Option$LT$T$GT$$GT$7into_py17h4ddc7822cad12d1fE', symObjAddr: 0x7580, symBinAddr: 0x322A0, symSize: 0x2C }
  - { offset: 0xC2A4C, size: 0x8, addend: 0x0, symName: '__ZN4pyo311conversions3std6option141_$LT$impl$u20$pyo3..conversion..IntoPy$LT$pyo3..instance..Py$LT$pyo3..types..any..PyAny$GT$$GT$$u20$for$u20$core..option..Option$LT$T$GT$$GT$7into_py17h667b487d117e9492E', symObjAddr: 0x75AC, symBinAddr: 0x322CC, symSize: 0x28 }
  - { offset: 0xC2A9A, size: 0x8, addend: 0x0, symName: '__ZN4pyo311conversions3std6option141_$LT$impl$u20$pyo3..conversion..IntoPy$LT$pyo3..instance..Py$LT$pyo3..types..any..PyAny$GT$$GT$$u20$for$u20$core..option..Option$LT$T$GT$$GT$7into_py17h987f5bf0ca6f3d0dE', symObjAddr: 0x75D4, symBinAddr: 0x322F4, symSize: 0x28 }
  - { offset: 0xC2AE8, size: 0x8, addend: 0x0, symName: '__ZN4pyo311conversions3std6option141_$LT$impl$u20$pyo3..conversion..IntoPy$LT$pyo3..instance..Py$LT$pyo3..types..any..PyAny$GT$$GT$$u20$for$u20$core..option..Option$LT$T$GT$$GT$7into_py17hb7559316f8aee263E', symObjAddr: 0x75FC, symBinAddr: 0x3231C, symSize: 0x24 }
  - { offset: 0xC2B37, size: 0x8, addend: 0x0, symName: '__ZN4pyo311conversions3std6option141_$LT$impl$u20$pyo3..conversion..IntoPy$LT$pyo3..instance..Py$LT$pyo3..types..any..PyAny$GT$$GT$$u20$for$u20$core..option..Option$LT$T$GT$$GT$7into_py17hc54afa694bd78e94E', symObjAddr: 0x7620, symBinAddr: 0x32340, symSize: 0x24 }
  - { offset: 0xC2B86, size: 0x8, addend: 0x0, symName: '__ZN4pyo311conversions3std6option141_$LT$impl$u20$pyo3..conversion..IntoPy$LT$pyo3..instance..Py$LT$pyo3..types..any..PyAny$GT$$GT$$u20$for$u20$core..option..Option$LT$T$GT$$GT$7into_py17he72bb3520d477483E', symObjAddr: 0x7644, symBinAddr: 0x32364, symSize: 0x24 }
  - { offset: 0xC2BD5, size: 0x8, addend: 0x0, symName: '__ZN4pyo311conversions3std6option141_$LT$impl$u20$pyo3..conversion..IntoPy$LT$pyo3..instance..Py$LT$pyo3..types..any..PyAny$GT$$GT$$u20$for$u20$core..option..Option$LT$T$GT$$GT$7into_py17hfdf056da064e6161E', symObjAddr: 0x7668, symBinAddr: 0x32388, symSize: 0x24 }
  - { offset: 0xC3A9F, size: 0x8, addend: 0x0, symName: '__ZN4core6option15Option$LT$T$GT$11map_or_else17h18fa0f9035cebe15E', symObjAddr: 0x3CC, symBinAddr: 0x2B0EC, symSize: 0xD8 }
  - { offset: 0xC3B1A, size: 0x8, addend: 0x0, symName: '__ZN4core6option15Option$LT$T$GT$11map_or_else17h32e85c47dd3005fcE', symObjAddr: 0x4A4, symBinAddr: 0x2B1C4, symSize: 0xDC }
  - { offset: 0xC40E6, size: 0x8, addend: 0x0, symName: '__ZN4core6option15Option$LT$T$GT$11map_or_else17h5b652463556567c6E', symObjAddr: 0x580, symBinAddr: 0x2B2A0, symSize: 0x100 }
  - { offset: 0xC50BE, size: 0x8, addend: 0x0, symName: '__ZN4core6option15Option$LT$T$GT$11map_or_else17h623d912821c96841E', symObjAddr: 0x680, symBinAddr: 0x2B3A0, symSize: 0x10C }
  - { offset: 0xC513B, size: 0x8, addend: 0x0, symName: '__ZN4core6option15Option$LT$T$GT$11map_or_else17ha133bcbf84a3c8b4E', symObjAddr: 0x78C, symBinAddr: 0x2B4AC, symSize: 0xFC }
  - { offset: 0xC51B7, size: 0x8, addend: 0x0, symName: '__ZN4core6option15Option$LT$T$GT$11map_or_else17hc4da2f0e50eb2bc2E', symObjAddr: 0x888, symBinAddr: 0x2B5A8, symSize: 0xD8 }
  - { offset: 0xC5232, size: 0x8, addend: 0x0, symName: '__ZN4core6option15Option$LT$T$GT$11map_or_else17hd3d36cb89c28636cE', symObjAddr: 0x960, symBinAddr: 0x2B680, symSize: 0xDC }
  - { offset: 0xC52AD, size: 0x8, addend: 0x0, symName: '__ZN4core6option15Option$LT$T$GT$11map_or_else17he131107ea7559fe6E', symObjAddr: 0xA3C, symBinAddr: 0x2B75C, symSize: 0xDC }
  - { offset: 0xC5328, size: 0x8, addend: 0x0, symName: '__ZN4core6option15Option$LT$T$GT$11map_or_else17hf81bcff7d1eeb79bE', symObjAddr: 0xB18, symBinAddr: 0x2B838, symSize: 0xD8 }
  - { offset: 0xC53C1, size: 0x8, addend: 0x0, symName: '__ZN4core6option15Option$LT$T$GT$11map_or_else17hfafff4d0b0871e59E', symObjAddr: 0xBF0, symBinAddr: 0x2B910, symSize: 0xE0 }
  - { offset: 0xC5475, size: 0x8, addend: 0x0, symName: '__ZN4core6option15Option$LT$T$GT$14unwrap_or_else17h029cc154555b0fb0E', symObjAddr: 0xCD0, symBinAddr: 0x2B9F0, symSize: 0x78 }
  - { offset: 0xC54E5, size: 0x8, addend: 0x0, symName: '__ZN4core6option15Option$LT$T$GT$14unwrap_or_else17h1eae8010996c2138E', symObjAddr: 0xD48, symBinAddr: 0x2BA68, symSize: 0x78 }
  - { offset: 0xC5548, size: 0x8, addend: 0x0, symName: '__ZN4core6option15Option$LT$T$GT$14unwrap_or_else17h2296dfa147205601E', symObjAddr: 0xDC0, symBinAddr: 0x2BAE0, symSize: 0x78 }
  - { offset: 0xC55B8, size: 0x8, addend: 0x0, symName: '__ZN4core6option15Option$LT$T$GT$14unwrap_or_else17h230b9e0b79b5ba31E', symObjAddr: 0xE38, symBinAddr: 0x2BB58, symSize: 0x78 }
  - { offset: 0xC5628, size: 0x8, addend: 0x0, symName: '__ZN4core6option15Option$LT$T$GT$14unwrap_or_else17h233753f38e13a5eeE', symObjAddr: 0xEB0, symBinAddr: 0x2BBD0, symSize: 0x78 }
  - { offset: 0xC5698, size: 0x8, addend: 0x0, symName: '__ZN4core6option15Option$LT$T$GT$14unwrap_or_else17h24255dc1f174e51cE', symObjAddr: 0xF28, symBinAddr: 0x2BC48, symSize: 0x78 }
  - { offset: 0xC5708, size: 0x8, addend: 0x0, symName: '__ZN4core6option15Option$LT$T$GT$14unwrap_or_else17h26b1b4ff5a331213E', symObjAddr: 0xFA0, symBinAddr: 0x2BCC0, symSize: 0x78 }
  - { offset: 0xC576B, size: 0x8, addend: 0x0, symName: '__ZN4core6option15Option$LT$T$GT$14unwrap_or_else17h26f78289cf5dde46E', symObjAddr: 0x1018, symBinAddr: 0x2BD38, symSize: 0x78 }
  - { offset: 0xC57DB, size: 0x8, addend: 0x0, symName: '__ZN4core6option15Option$LT$T$GT$14unwrap_or_else17h36c0a35e80365dbcE', symObjAddr: 0x1090, symBinAddr: 0x2BDB0, symSize: 0x78 }
  - { offset: 0xC584B, size: 0x8, addend: 0x0, symName: '__ZN4core6option15Option$LT$T$GT$14unwrap_or_else17h3c4f785e4f1864f2E', symObjAddr: 0x1108, symBinAddr: 0x2BE28, symSize: 0x78 }
  - { offset: 0xC58BB, size: 0x8, addend: 0x0, symName: '__ZN4core6option15Option$LT$T$GT$14unwrap_or_else17h42c8daee46711438E', symObjAddr: 0x1180, symBinAddr: 0x2BEA0, symSize: 0x78 }
  - { offset: 0xC592B, size: 0x8, addend: 0x0, symName: '__ZN4core6option15Option$LT$T$GT$14unwrap_or_else17h48b9bd33066067b2E', symObjAddr: 0x11F8, symBinAddr: 0x2BF18, symSize: 0x78 }
  - { offset: 0xC598E, size: 0x8, addend: 0x0, symName: '__ZN4core6option15Option$LT$T$GT$14unwrap_or_else17h5efbdd9efb97d389E', symObjAddr: 0x1270, symBinAddr: 0x2BF90, symSize: 0x78 }
  - { offset: 0xC59FE, size: 0x8, addend: 0x0, symName: '__ZN4core6option15Option$LT$T$GT$14unwrap_or_else17h64362511fa7e66f8E', symObjAddr: 0x12E8, symBinAddr: 0x2C008, symSize: 0x78 }
  - { offset: 0xC5A6E, size: 0x8, addend: 0x0, symName: '__ZN4core6option15Option$LT$T$GT$14unwrap_or_else17h64f928520283b01bE', symObjAddr: 0x1360, symBinAddr: 0x2C080, symSize: 0x78 }
  - { offset: 0xC5ADE, size: 0x8, addend: 0x0, symName: '__ZN4core6option15Option$LT$T$GT$14unwrap_or_else17h697d8888f22d9a2aE', symObjAddr: 0x13D8, symBinAddr: 0x2C0F8, symSize: 0x78 }
  - { offset: 0xC5B41, size: 0x8, addend: 0x0, symName: '__ZN4core6option15Option$LT$T$GT$14unwrap_or_else17h6fa1cf206b82dedcE', symObjAddr: 0x1450, symBinAddr: 0x2C170, symSize: 0x78 }
  - { offset: 0xC5BA4, size: 0x8, addend: 0x0, symName: '__ZN4core6option15Option$LT$T$GT$14unwrap_or_else17h7a5201fcdffb7e62E', symObjAddr: 0x14C8, symBinAddr: 0x2C1E8, symSize: 0x78 }
  - { offset: 0xC5C14, size: 0x8, addend: 0x0, symName: '__ZN4core6option15Option$LT$T$GT$14unwrap_or_else17h7b82238b2ebc5584E', symObjAddr: 0x1540, symBinAddr: 0x2C260, symSize: 0x78 }
  - { offset: 0xC5C84, size: 0x8, addend: 0x0, symName: '__ZN4core6option15Option$LT$T$GT$14unwrap_or_else17h8188d87f36d3b5edE', symObjAddr: 0x15B8, symBinAddr: 0x2C2D8, symSize: 0x78 }
  - { offset: 0xC5CF4, size: 0x8, addend: 0x0, symName: '__ZN4core6option15Option$LT$T$GT$14unwrap_or_else17h86ac07f5f02d174fE', symObjAddr: 0x1630, symBinAddr: 0x2C350, symSize: 0x78 }
  - { offset: 0xC5D57, size: 0x8, addend: 0x0, symName: '__ZN4core6option15Option$LT$T$GT$14unwrap_or_else17h88f1212af9750c06E', symObjAddr: 0x16A8, symBinAddr: 0x2C3C8, symSize: 0x78 }
  - { offset: 0xC5DC7, size: 0x8, addend: 0x0, symName: '__ZN4core6option15Option$LT$T$GT$14unwrap_or_else17h8a6c8ae1ba4b3687E', symObjAddr: 0x1720, symBinAddr: 0x2C440, symSize: 0x78 }
  - { offset: 0xC5E37, size: 0x8, addend: 0x0, symName: '__ZN4core6option15Option$LT$T$GT$14unwrap_or_else17h91d0de48d4afc3f0E', symObjAddr: 0x1798, symBinAddr: 0x2C4B8, symSize: 0x78 }
  - { offset: 0xC5E9A, size: 0x8, addend: 0x0, symName: '__ZN4core6option15Option$LT$T$GT$14unwrap_or_else17h98e72bbe15ae740cE', symObjAddr: 0x1810, symBinAddr: 0x2C530, symSize: 0x78 }
  - { offset: 0xC5F0A, size: 0x8, addend: 0x0, symName: '__ZN4core6option15Option$LT$T$GT$14unwrap_or_else17h9a52d432dce59d21E', symObjAddr: 0x1888, symBinAddr: 0x2C5A8, symSize: 0x78 }
  - { offset: 0xC5F6D, size: 0x8, addend: 0x0, symName: '__ZN4core6option15Option$LT$T$GT$14unwrap_or_else17h9e5bc6ab026c05b1E', symObjAddr: 0x1900, symBinAddr: 0x2C620, symSize: 0x78 }
  - { offset: 0xC5FDD, size: 0x8, addend: 0x0, symName: '__ZN4core6option15Option$LT$T$GT$14unwrap_or_else17ha24a624941cbbbbeE', symObjAddr: 0x1978, symBinAddr: 0x2C698, symSize: 0x78 }
  - { offset: 0xC604D, size: 0x8, addend: 0x0, symName: '__ZN4core6option15Option$LT$T$GT$14unwrap_or_else17ha7241deaf6a4518cE', symObjAddr: 0x19F0, symBinAddr: 0x2C710, symSize: 0x78 }
  - { offset: 0xC60B0, size: 0x8, addend: 0x0, symName: '__ZN4core6option15Option$LT$T$GT$14unwrap_or_else17hbc77d104a4e29dbeE', symObjAddr: 0x1A68, symBinAddr: 0x2C788, symSize: 0x70 }
  - { offset: 0xC6120, size: 0x8, addend: 0x0, symName: '__ZN4core6option15Option$LT$T$GT$14unwrap_or_else17hc113f076161aff7aE', symObjAddr: 0x1AD8, symBinAddr: 0x2C7F8, symSize: 0x78 }
  - { offset: 0xC6190, size: 0x8, addend: 0x0, symName: '__ZN4core6option15Option$LT$T$GT$14unwrap_or_else17hc79a82edd26eff10E', symObjAddr: 0x1B50, symBinAddr: 0x2C870, symSize: 0x78 }
  - { offset: 0xC6200, size: 0x8, addend: 0x0, symName: '__ZN4core6option15Option$LT$T$GT$14unwrap_or_else17hc7c7ba9b41496a6dE', symObjAddr: 0x1BC8, symBinAddr: 0x2C8E8, symSize: 0x78 }
  - { offset: 0xC6270, size: 0x8, addend: 0x0, symName: '__ZN4core6option15Option$LT$T$GT$14unwrap_or_else17hce4a5bdd58e4c91bE', symObjAddr: 0x1C40, symBinAddr: 0x2C960, symSize: 0x78 }
  - { offset: 0xC62E0, size: 0x8, addend: 0x0, symName: '__ZN4core6option15Option$LT$T$GT$14unwrap_or_else17hcf33de6a036de15bE', symObjAddr: 0x1CB8, symBinAddr: 0x2C9D8, symSize: 0x78 }
  - { offset: 0xC6350, size: 0x8, addend: 0x0, symName: '__ZN4core6option15Option$LT$T$GT$14unwrap_or_else17hda2ad629b002e2d5E', symObjAddr: 0x1D30, symBinAddr: 0x2CA50, symSize: 0x78 }
  - { offset: 0xC63B3, size: 0x8, addend: 0x0, symName: '__ZN4core6option15Option$LT$T$GT$14unwrap_or_else17hf74f60a37ef4cff0E', symObjAddr: 0x1DA8, symBinAddr: 0x2CAC8, symSize: 0x78 }
  - { offset: 0xC6416, size: 0x8, addend: 0x0, symName: '__ZN4core6option15Option$LT$T$GT$14unwrap_or_else17hf7d540396fcded84E', symObjAddr: 0x1E20, symBinAddr: 0x2CB40, symSize: 0x78 }
  - { offset: 0xC6479, size: 0x8, addend: 0x0, symName: '__ZN4core6option15Option$LT$T$GT$14unwrap_or_else17hfc11f9a8a4e0ca70E', symObjAddr: 0x1E98, symBinAddr: 0x2CBB8, symSize: 0x78 }
  - { offset: 0xC64DC, size: 0x8, addend: 0x0, symName: '__ZN4core6option15Option$LT$T$GT$17unwrap_or_default17h9a388fc2e62725c9E', symObjAddr: 0x1F10, symBinAddr: 0x2CC30, symSize: 0x70 }
  - { offset: 0xC6527, size: 0x8, addend: 0x0, symName: '__ZN4core6option15Option$LT$T$GT$17unwrap_or_default17hdd87fab481fb00afE', symObjAddr: 0x1F80, symBinAddr: 0x2CCA0, symSize: 0x70 }
  - { offset: 0xC657F, size: 0x8, addend: 0x0, symName: '__ZN4core6option15Option$LT$T$GT$3map17h010f819da546fcefE', symObjAddr: 0x1FF0, symBinAddr: 0x2CD10, symSize: 0x6C }
  - { offset: 0xC65EA, size: 0x8, addend: 0x0, symName: '__ZN4core6option15Option$LT$T$GT$3map17h1055cb629fe4e0f6E', symObjAddr: 0x205C, symBinAddr: 0x2CD7C, symSize: 0x6C }
  - { offset: 0xC6655, size: 0x8, addend: 0x0, symName: '__ZN4core6option15Option$LT$T$GT$3map17h12359b079b224b48E', symObjAddr: 0x20C8, symBinAddr: 0x2CDE8, symSize: 0x6C }
  - { offset: 0xC66CD, size: 0x8, addend: 0x0, symName: '__ZN4core6option15Option$LT$T$GT$3map17h251707aa3efcb7f4E', symObjAddr: 0x2134, symBinAddr: 0x2CE54, symSize: 0x5C }
  - { offset: 0xC6738, size: 0x8, addend: 0x0, symName: '__ZN4core6option15Option$LT$T$GT$3map17h2570b48f7cf16343E', symObjAddr: 0x2190, symBinAddr: 0x2CEB0, symSize: 0x7C }
  - { offset: 0xC67B1, size: 0x8, addend: 0x0, symName: '__ZN4core6option15Option$LT$T$GT$3map17h257eb0f3557a0e4dE', symObjAddr: 0x220C, symBinAddr: 0x2CF2C, symSize: 0x6C }
  - { offset: 0xC681C, size: 0x8, addend: 0x0, symName: '__ZN4core6option15Option$LT$T$GT$3map17h27a66f61b9e0a05bE', symObjAddr: 0x2278, symBinAddr: 0x2CF98, symSize: 0x6C }
  - { offset: 0xC6887, size: 0x8, addend: 0x0, symName: '__ZN4core6option15Option$LT$T$GT$3map17h2cf5bfc78471409dE', symObjAddr: 0x22E4, symBinAddr: 0x2D004, symSize: 0x6C }
  - { offset: 0xC68F2, size: 0x8, addend: 0x0, symName: '__ZN4core6option15Option$LT$T$GT$3map17h31d823cadab109a3E', symObjAddr: 0x2350, symBinAddr: 0x2D070, symSize: 0x6C }
  - { offset: 0xC695D, size: 0x8, addend: 0x0, symName: '__ZN4core6option15Option$LT$T$GT$3map17h31f4f47eb17b5559E', symObjAddr: 0x23BC, symBinAddr: 0x2D0DC, symSize: 0x6C }
  - { offset: 0xC69C8, size: 0x8, addend: 0x0, symName: '__ZN4core6option15Option$LT$T$GT$3map17h3a0fd6e9e1d4fa73E', symObjAddr: 0x2428, symBinAddr: 0x2D148, symSize: 0x6C }
  - { offset: 0xC6A33, size: 0x8, addend: 0x0, symName: '__ZN4core6option15Option$LT$T$GT$3map17h3c30f28c6e7442b8E', symObjAddr: 0x2494, symBinAddr: 0x2D1B4, symSize: 0x6C }
  - { offset: 0xC6A9E, size: 0x8, addend: 0x0, symName: '__ZN4core6option15Option$LT$T$GT$3map17h3e898b143c8d640eE', symObjAddr: 0x2500, symBinAddr: 0x2D220, symSize: 0x78 }
  - { offset: 0xC6B09, size: 0x8, addend: 0x0, symName: '__ZN4core6option15Option$LT$T$GT$3map17h40c859071c436b47E', symObjAddr: 0x2578, symBinAddr: 0x2D298, symSize: 0x6C }
  - { offset: 0xC6B74, size: 0x8, addend: 0x0, symName: '__ZN4core6option15Option$LT$T$GT$3map17h4232d3a9a48d16cfE', symObjAddr: 0x25E4, symBinAddr: 0x2D304, symSize: 0x6C }
  - { offset: 0xC6BEC, size: 0x8, addend: 0x0, symName: '__ZN4core6option15Option$LT$T$GT$3map17h447c7e35844dbda0E', symObjAddr: 0x2650, symBinAddr: 0x2D370, symSize: 0x50 }
  - { offset: 0xC6C57, size: 0x8, addend: 0x0, symName: '__ZN4core6option15Option$LT$T$GT$3map17h47b183ced2461103E', symObjAddr: 0x26A0, symBinAddr: 0x2D3C0, symSize: 0x6C }
  - { offset: 0xC6CC9, size: 0x8, addend: 0x0, symName: '__ZN4core6option15Option$LT$T$GT$3map17h4fb94e7daf45e4abE', symObjAddr: 0x270C, symBinAddr: 0x2D42C, symSize: 0x5C }
  - { offset: 0xC6D34, size: 0x8, addend: 0x0, symName: '__ZN4core6option15Option$LT$T$GT$3map17h5e58c05e4377e861E', symObjAddr: 0x2768, symBinAddr: 0x2D488, symSize: 0x6C }
  - { offset: 0xC6D9F, size: 0x8, addend: 0x0, symName: '__ZN4core6option15Option$LT$T$GT$3map17h669dd1676a50e1dfE', symObjAddr: 0x27D4, symBinAddr: 0x2D4F4, symSize: 0x54 }
  - { offset: 0xC6E0A, size: 0x8, addend: 0x0, symName: '__ZN4core6option15Option$LT$T$GT$3map17h6c23a70124501688E', symObjAddr: 0x2828, symBinAddr: 0x2D548, symSize: 0x6C }
  - { offset: 0xC6E75, size: 0x8, addend: 0x0, symName: '__ZN4core6option15Option$LT$T$GT$3map17h6f2e87b208002be5E', symObjAddr: 0x2894, symBinAddr: 0x2D5B4, symSize: 0x6C }
  - { offset: 0xC6EE0, size: 0x8, addend: 0x0, symName: '__ZN4core6option15Option$LT$T$GT$3map17h6ff890071d7802fdE', symObjAddr: 0x2900, symBinAddr: 0x2D620, symSize: 0x6C }
  - { offset: 0xC6F4B, size: 0x8, addend: 0x0, symName: '__ZN4core6option15Option$LT$T$GT$3map17h70c40e97399cb42bE', symObjAddr: 0x296C, symBinAddr: 0x2D68C, symSize: 0x6C }
  - { offset: 0xC6FB6, size: 0x8, addend: 0x0, symName: '__ZN4core6option15Option$LT$T$GT$3map17h7498998a0e2cacdaE', symObjAddr: 0x29D8, symBinAddr: 0x2D6F8, symSize: 0x6C }
  - { offset: 0xC7021, size: 0x8, addend: 0x0, symName: '__ZN4core6option15Option$LT$T$GT$3map17h7af221173f047662E', symObjAddr: 0x2A44, symBinAddr: 0x2D764, symSize: 0x6C }
  - { offset: 0xC708C, size: 0x8, addend: 0x0, symName: '__ZN4core6option15Option$LT$T$GT$3map17h7ce571cc934bd197E', symObjAddr: 0x2AB0, symBinAddr: 0x2D7D0, symSize: 0x6C }
  - { offset: 0xC70F7, size: 0x8, addend: 0x0, symName: '__ZN4core6option15Option$LT$T$GT$3map17h809d9811af20c898E', symObjAddr: 0x2B1C, symBinAddr: 0x2D83C, symSize: 0x6C }
  - { offset: 0xC7162, size: 0x8, addend: 0x0, symName: '__ZN4core6option15Option$LT$T$GT$3map17h80bbbc141105fe87E', symObjAddr: 0x2B88, symBinAddr: 0x2D8A8, symSize: 0x6C }
  - { offset: 0xC71CD, size: 0x8, addend: 0x0, symName: '__ZN4core6option15Option$LT$T$GT$3map17h81c11ab81ce15f16E', symObjAddr: 0x2BF4, symBinAddr: 0x2D914, symSize: 0x6C }
  - { offset: 0xC7238, size: 0x8, addend: 0x0, symName: '__ZN4core6option15Option$LT$T$GT$3map17h82e179bd9a21f7edE', symObjAddr: 0x2C60, symBinAddr: 0x2D980, symSize: 0x6C }
  - { offset: 0xC72A3, size: 0x8, addend: 0x0, symName: '__ZN4core6option15Option$LT$T$GT$3map17h831023a268bda001E', symObjAddr: 0x2CCC, symBinAddr: 0x2D9EC, symSize: 0x6C }
  - { offset: 0xC730E, size: 0x8, addend: 0x0, symName: '__ZN4core6option15Option$LT$T$GT$3map17h8400eefc43c2ae8fE', symObjAddr: 0x2D38, symBinAddr: 0x2DA58, symSize: 0x5C }
  - { offset: 0xC7379, size: 0x8, addend: 0x0, symName: '__ZN4core6option15Option$LT$T$GT$3map17h840209e503b968edE', symObjAddr: 0x2D94, symBinAddr: 0x2DAB4, symSize: 0x78 }
  - { offset: 0xC73E4, size: 0x8, addend: 0x0, symName: '__ZN4core6option15Option$LT$T$GT$3map17h896ad740f4bd4a74E', symObjAddr: 0x2E0C, symBinAddr: 0x2DB2C, symSize: 0x68 }
  - { offset: 0xC7450, size: 0x8, addend: 0x0, symName: '__ZN4core6option15Option$LT$T$GT$3map17h8d7dea0d9ec326c7E', symObjAddr: 0x2E74, symBinAddr: 0x2DB94, symSize: 0x6C }
  - { offset: 0xC74BB, size: 0x8, addend: 0x0, symName: '__ZN4core6option15Option$LT$T$GT$3map17h935325c22f624c91E', symObjAddr: 0x2EE0, symBinAddr: 0x2DC00, symSize: 0x68 }
  - { offset: 0xC7527, size: 0x8, addend: 0x0, symName: '__ZN4core6option15Option$LT$T$GT$3map17h93f69b95ca3d5252E', symObjAddr: 0x2F48, symBinAddr: 0x2DC68, symSize: 0x6C }
  - { offset: 0xC7592, size: 0x8, addend: 0x0, symName: '__ZN4core6option15Option$LT$T$GT$3map17h96c5e5dfde35c82cE', symObjAddr: 0x2FB4, symBinAddr: 0x2DCD4, symSize: 0x6C }
  - { offset: 0xC75FD, size: 0x8, addend: 0x0, symName: '__ZN4core6option15Option$LT$T$GT$3map17h98eeed4c80fa2d4bE', symObjAddr: 0x3020, symBinAddr: 0x2DD40, symSize: 0x5C }
  - { offset: 0xC7668, size: 0x8, addend: 0x0, symName: '__ZN4core6option15Option$LT$T$GT$3map17h9c48f34d835b4b2bE', symObjAddr: 0x307C, symBinAddr: 0x2DD9C, symSize: 0x6C }
  - { offset: 0xC76D3, size: 0x8, addend: 0x0, symName: '__ZN4core6option15Option$LT$T$GT$3map17h9f3b3c8a1c79f3d6E', symObjAddr: 0x30E8, symBinAddr: 0x2DE08, symSize: 0x8C }
  - { offset: 0xC773F, size: 0x8, addend: 0x0, symName: '__ZN4core6option15Option$LT$T$GT$3map17ha19a4dd5cec0d6ffE', symObjAddr: 0x3174, symBinAddr: 0x2DE94, symSize: 0x7C }
  - { offset: 0xC77AB, size: 0x8, addend: 0x0, symName: '__ZN4core6option15Option$LT$T$GT$3map17ha27104d1658f36f0E', symObjAddr: 0x31F0, symBinAddr: 0x2DF10, symSize: 0x54 }
  - { offset: 0xC7816, size: 0x8, addend: 0x0, symName: '__ZN4core6option15Option$LT$T$GT$3map17ha3f8e8a7ad2c7d4cE', symObjAddr: 0x3244, symBinAddr: 0x2DF64, symSize: 0x78 }
  - { offset: 0xC7881, size: 0x8, addend: 0x0, symName: '__ZN4core6option15Option$LT$T$GT$3map17ha4fe1a5619cdb970E', symObjAddr: 0x32BC, symBinAddr: 0x2DFDC, symSize: 0x6C }
  - { offset: 0xC78EC, size: 0x8, addend: 0x0, symName: '__ZN4core6option15Option$LT$T$GT$3map17ha52da18aca606396E', symObjAddr: 0x3328, symBinAddr: 0x2E048, symSize: 0x6C }
  - { offset: 0xC7957, size: 0x8, addend: 0x0, symName: '__ZN4core6option15Option$LT$T$GT$3map17ha58f5782e9f71d4fE', symObjAddr: 0x3394, symBinAddr: 0x2E0B4, symSize: 0x6C }
  - { offset: 0xC79C2, size: 0x8, addend: 0x0, symName: '__ZN4core6option15Option$LT$T$GT$3map17ha5e6d9f1863543edE', symObjAddr: 0x3400, symBinAddr: 0x2E120, symSize: 0x6C }
  - { offset: 0xC7A2D, size: 0x8, addend: 0x0, symName: '__ZN4core6option15Option$LT$T$GT$3map17ha855d3d12d572c12E', symObjAddr: 0x346C, symBinAddr: 0x2E18C, symSize: 0x6C }
  - { offset: 0xC7A98, size: 0x8, addend: 0x0, symName: '__ZN4core6option15Option$LT$T$GT$3map17had2dad0a170a7d37E', symObjAddr: 0x34D8, symBinAddr: 0x2E1F8, symSize: 0x6C }
  - { offset: 0xC7B03, size: 0x8, addend: 0x0, symName: '__ZN4core6option15Option$LT$T$GT$3map17hae2340f7bd0501a8E', symObjAddr: 0x3544, symBinAddr: 0x2E264, symSize: 0x78 }
  - { offset: 0xC7B6E, size: 0x8, addend: 0x0, symName: '__ZN4core6option15Option$LT$T$GT$3map17hb463fe4230d8d409E', symObjAddr: 0x35BC, symBinAddr: 0x2E2DC, symSize: 0x6C }
  - { offset: 0xC7BD9, size: 0x8, addend: 0x0, symName: '__ZN4core6option15Option$LT$T$GT$3map17hb4d0af367e3e5883E', symObjAddr: 0x3628, symBinAddr: 0x2E348, symSize: 0x6C }
  - { offset: 0xC7C44, size: 0x8, addend: 0x0, symName: '__ZN4core6option15Option$LT$T$GT$3map17hb4d60541ac9d91ccE', symObjAddr: 0x3694, symBinAddr: 0x2E3B4, symSize: 0x6C }
  - { offset: 0xC7CAF, size: 0x8, addend: 0x0, symName: '__ZN4core6option15Option$LT$T$GT$3map17hb572e7375c5841d6E', symObjAddr: 0x3700, symBinAddr: 0x2E420, symSize: 0x54 }
  - { offset: 0xC7D1A, size: 0x8, addend: 0x0, symName: '__ZN4core6option15Option$LT$T$GT$3map17hb6374000f53b57f4E', symObjAddr: 0x3754, symBinAddr: 0x2E474, symSize: 0x6C }
  - { offset: 0xC7D85, size: 0x8, addend: 0x0, symName: '__ZN4core6option15Option$LT$T$GT$3map17hb9a96bf3f18013caE', symObjAddr: 0x37C0, symBinAddr: 0x2E4E0, symSize: 0x78 }
  - { offset: 0xC7DF0, size: 0x8, addend: 0x0, symName: '__ZN4core6option15Option$LT$T$GT$3map17hbb511c00f0b9a120E', symObjAddr: 0x3838, symBinAddr: 0x2E558, symSize: 0x6C }
  - { offset: 0xC7E5B, size: 0x8, addend: 0x0, symName: '__ZN4core6option15Option$LT$T$GT$3map17hbf832a7859386f0aE', symObjAddr: 0x38A4, symBinAddr: 0x2E5C4, symSize: 0x6C }
  - { offset: 0xC7EC6, size: 0x8, addend: 0x0, symName: '__ZN4core6option15Option$LT$T$GT$3map17hc03dcb6f009592b4E', symObjAddr: 0x3910, symBinAddr: 0x2E630, symSize: 0x6C }
  - { offset: 0xC7F31, size: 0x8, addend: 0x0, symName: '__ZN4core6option15Option$LT$T$GT$3map17hc833adb99d1e8a06E', symObjAddr: 0x397C, symBinAddr: 0x2E69C, symSize: 0x6C }
  - { offset: 0xC7F9C, size: 0x8, addend: 0x0, symName: '__ZN4core6option15Option$LT$T$GT$3map17hceb0d0de505e5ddeE', symObjAddr: 0x39E8, symBinAddr: 0x2E708, symSize: 0x6C }
  - { offset: 0xC8007, size: 0x8, addend: 0x0, symName: '__ZN4core6option15Option$LT$T$GT$3map17hd5a297b0a897dd1eE', symObjAddr: 0x3A54, symBinAddr: 0x2E774, symSize: 0x54 }
  - { offset: 0xC8072, size: 0x8, addend: 0x0, symName: '__ZN4core6option15Option$LT$T$GT$3map17hd6899d8f69790888E', symObjAddr: 0x3AA8, symBinAddr: 0x2E7C8, symSize: 0x6C }
  - { offset: 0xC80DD, size: 0x8, addend: 0x0, symName: '__ZN4core6option15Option$LT$T$GT$3map17hda8f765cca761318E', symObjAddr: 0x3B14, symBinAddr: 0x2E834, symSize: 0x6C }
  - { offset: 0xC8148, size: 0x8, addend: 0x0, symName: '__ZN4core6option15Option$LT$T$GT$3map17hdb39261a0b27cdc4E', symObjAddr: 0x3B80, symBinAddr: 0x2E8A0, symSize: 0x6C }
  - { offset: 0xC81B3, size: 0x8, addend: 0x0, symName: '__ZN4core6option15Option$LT$T$GT$3map17hdefdddf6ffce0b13E', symObjAddr: 0x3BEC, symBinAddr: 0x2E90C, symSize: 0x50 }
  - { offset: 0xC821E, size: 0x8, addend: 0x0, symName: '__ZN4core6option15Option$LT$T$GT$3map17he1c63311802275cdE', symObjAddr: 0x3C3C, symBinAddr: 0x2E95C, symSize: 0x6C }
  - { offset: 0xC8289, size: 0x8, addend: 0x0, symName: '__ZN4core6option15Option$LT$T$GT$3map17he580a965c5cb2fc8E', symObjAddr: 0x3CA8, symBinAddr: 0x2E9C8, symSize: 0x6C }
  - { offset: 0xC82F4, size: 0x8, addend: 0x0, symName: '__ZN4core6option15Option$LT$T$GT$3map17he84c98a0c1b6dbdaE', symObjAddr: 0x3D14, symBinAddr: 0x2EA34, symSize: 0x6C }
  - { offset: 0xC835F, size: 0x8, addend: 0x0, symName: '__ZN4core6option15Option$LT$T$GT$3map17hea47d62d5392d218E', symObjAddr: 0x3D80, symBinAddr: 0x2EAA0, symSize: 0x78 }
  - { offset: 0xC83D1, size: 0x8, addend: 0x0, symName: '__ZN4core6option15Option$LT$T$GT$3map17hed68c145293afe97E', symObjAddr: 0x3DF8, symBinAddr: 0x2EB18, symSize: 0x5C }
  - { offset: 0xC843C, size: 0x8, addend: 0x0, symName: '__ZN4core6option15Option$LT$T$GT$3map17hee2196f982b0aeb7E', symObjAddr: 0x3E54, symBinAddr: 0x2EB74, symSize: 0x78 }
  - { offset: 0xC84A7, size: 0x8, addend: 0x0, symName: '__ZN4core6option15Option$LT$T$GT$3map17hf10ecce251e90789E', symObjAddr: 0x3ECC, symBinAddr: 0x2EBEC, symSize: 0x5C }
  - { offset: 0xC8512, size: 0x8, addend: 0x0, symName: '__ZN4core6option15Option$LT$T$GT$3map17hf1423c3bad1bceb7E', symObjAddr: 0x3F28, symBinAddr: 0x2EC48, symSize: 0x6C }
  - { offset: 0xC857D, size: 0x8, addend: 0x0, symName: '__ZN4core6option15Option$LT$T$GT$3map17hf1fc23b0691a88f0E', symObjAddr: 0x3F94, symBinAddr: 0x2ECB4, symSize: 0x6C }
  - { offset: 0xC85E8, size: 0x8, addend: 0x0, symName: '__ZN4core6option15Option$LT$T$GT$3map17hf3d290eaefadff94E', symObjAddr: 0x4000, symBinAddr: 0x2ED20, symSize: 0x54 }
  - { offset: 0xC8653, size: 0x8, addend: 0x0, symName: '__ZN4core6option15Option$LT$T$GT$3map17hf4bce687cfd30991E', symObjAddr: 0x4054, symBinAddr: 0x2ED74, symSize: 0x5C }
  - { offset: 0xC86BE, size: 0x8, addend: 0x0, symName: '__ZN4core6option15Option$LT$T$GT$3map17hf603d3232834ffb2E', symObjAddr: 0x40B0, symBinAddr: 0x2EDD0, symSize: 0x6C }
  - { offset: 0xC8729, size: 0x8, addend: 0x0, symName: '__ZN4core6option15Option$LT$T$GT$3map17hf65cd4b85c6b3c46E', symObjAddr: 0x411C, symBinAddr: 0x2EE3C, symSize: 0x6C }
  - { offset: 0xC8794, size: 0x8, addend: 0x0, symName: '__ZN4core6option15Option$LT$T$GT$3map17hf6f2213dc059aeceE', symObjAddr: 0x4188, symBinAddr: 0x2EEA8, symSize: 0x6C }
  - { offset: 0xC87FF, size: 0x8, addend: 0x0, symName: '__ZN4core6option15Option$LT$T$GT$3map17hf7e7df9d9ecbbb59E', symObjAddr: 0x41F4, symBinAddr: 0x2EF14, symSize: 0x6C }
  - { offset: 0xC886A, size: 0x8, addend: 0x0, symName: '__ZN4core6option15Option$LT$T$GT$3map17hf9f5e9efce4f1e63E', symObjAddr: 0x4260, symBinAddr: 0x2EF80, symSize: 0x6C }
  - { offset: 0xC88D5, size: 0x8, addend: 0x0, symName: '__ZN4core6option15Option$LT$T$GT$3map17hfb13d903445ec080E', symObjAddr: 0x42CC, symBinAddr: 0x2EFEC, symSize: 0x6C }
  - { offset: 0xC8940, size: 0x8, addend: 0x0, symName: '__ZN4core6option15Option$LT$T$GT$3map17hfc764ee5b32e737eE', symObjAddr: 0x4338, symBinAddr: 0x2F058, symSize: 0x84 }
  - { offset: 0xC89AC, size: 0x8, addend: 0x0, symName: '__ZN4core6option15Option$LT$T$GT$3map17hfe5d77b1255759d5E', symObjAddr: 0x43BC, symBinAddr: 0x2F0DC, symSize: 0x6C }
  - { offset: 0xC8A17, size: 0x8, addend: 0x0, symName: '__ZN4core6option15Option$LT$T$GT$3map17hfebca3a74fa1a167E', symObjAddr: 0x4428, symBinAddr: 0x2F148, symSize: 0x6C }
  - { offset: 0xC8A82, size: 0x8, addend: 0x0, symName: '__ZN4core6option15Option$LT$T$GT$3map17hffd01d5e10aa0779E', symObjAddr: 0x4494, symBinAddr: 0x2F1B4, symSize: 0x68 }
  - { offset: 0xC8B4D, size: 0x8, addend: 0x0, symName: '__ZN4core6option15Option$LT$T$GT$6as_ref17h690420e22e40f6d3E', symObjAddr: 0x44FC, symBinAddr: 0x2F21C, symSize: 0x4C }
  - { offset: 0xC8B97, size: 0x8, addend: 0x0, symName: '__ZN4core6option15Option$LT$T$GT$6expect17h5fe46c9ceb2278a5E', symObjAddr: 0x4548, symBinAddr: 0x2F268, symSize: 0x5C }
  - { offset: 0xC8BD2, size: 0x8, addend: 0x0, symName: '__ZN4core6option15Option$LT$T$GT$6expect17hfdece3200bccba4eE', symObjAddr: 0x45A4, symBinAddr: 0x2F2C4, symSize: 0x5C }
  - { offset: 0xC8C7D, size: 0x8, addend: 0x0, symName: '__ZN4core6option15Option$LT$T$GT$6insert17h00f649fde202d62fE', symObjAddr: 0x4600, symBinAddr: 0x2F320, symSize: 0xAC }
  - { offset: 0xC8D7F, size: 0x8, addend: 0x0, symName: '__ZN4core6option15Option$LT$T$GT$6insert17h09294ab0a3b8010aE', symObjAddr: 0x46AC, symBinAddr: 0x2F3CC, symSize: 0xAC }
  - { offset: 0xC8E81, size: 0x8, addend: 0x0, symName: '__ZN4core6option15Option$LT$T$GT$6insert17h09fde75c00bc358fE', symObjAddr: 0x4758, symBinAddr: 0x2F478, symSize: 0xAC }
  - { offset: 0xC8F83, size: 0x8, addend: 0x0, symName: '__ZN4core6option15Option$LT$T$GT$6insert17h0d9d5f710a9d2275E', symObjAddr: 0x4804, symBinAddr: 0x2F524, symSize: 0xAC }
  - { offset: 0xC9085, size: 0x8, addend: 0x0, symName: '__ZN4core6option15Option$LT$T$GT$6insert17h0e769c4f77aa9066E', symObjAddr: 0x48B0, symBinAddr: 0x2F5D0, symSize: 0xAC }
  - { offset: 0xC9187, size: 0x8, addend: 0x0, symName: '__ZN4core6option15Option$LT$T$GT$6insert17h131d1e48cdfb54ecE', symObjAddr: 0x495C, symBinAddr: 0x2F67C, symSize: 0xAC }
  - { offset: 0xC9289, size: 0x8, addend: 0x0, symName: '__ZN4core6option15Option$LT$T$GT$6insert17h17a28a38cd2a72e0E', symObjAddr: 0x4A08, symBinAddr: 0x2F728, symSize: 0xAC }
  - { offset: 0xC938B, size: 0x8, addend: 0x0, symName: '__ZN4core6option15Option$LT$T$GT$6insert17h1d616eeb81f132cdE', symObjAddr: 0x4AB4, symBinAddr: 0x2F7D4, symSize: 0xAC }
  - { offset: 0xC948D, size: 0x8, addend: 0x0, symName: '__ZN4core6option15Option$LT$T$GT$6insert17h1ea2d68fac56c3d1E', symObjAddr: 0x4B60, symBinAddr: 0x2F880, symSize: 0xAC }
  - { offset: 0xC958F, size: 0x8, addend: 0x0, symName: '__ZN4core6option15Option$LT$T$GT$6insert17h21ef20f7f2853b78E', symObjAddr: 0x4C0C, symBinAddr: 0x2F92C, symSize: 0xAC }
  - { offset: 0xC9691, size: 0x8, addend: 0x0, symName: '__ZN4core6option15Option$LT$T$GT$6insert17h23c45852964e16c6E', symObjAddr: 0x4CB8, symBinAddr: 0x2F9D8, symSize: 0xAC }
  - { offset: 0xC9793, size: 0x8, addend: 0x0, symName: '__ZN4core6option15Option$LT$T$GT$6insert17h271fe4d3f57862dbE', symObjAddr: 0x4D64, symBinAddr: 0x2FA84, symSize: 0xAC }
  - { offset: 0xC9895, size: 0x8, addend: 0x0, symName: '__ZN4core6option15Option$LT$T$GT$6insert17h29857566627ec6c9E', symObjAddr: 0x4E10, symBinAddr: 0x2FB30, symSize: 0xAC }
  - { offset: 0xC9997, size: 0x8, addend: 0x0, symName: '__ZN4core6option15Option$LT$T$GT$6insert17h2a01d559618151b2E', symObjAddr: 0x4EBC, symBinAddr: 0x2FBDC, symSize: 0xAC }
  - { offset: 0xC9A99, size: 0x8, addend: 0x0, symName: '__ZN4core6option15Option$LT$T$GT$6insert17h30b39f18ebea9c63E', symObjAddr: 0x4F68, symBinAddr: 0x2FC88, symSize: 0xAC }
  - { offset: 0xC9B9B, size: 0x8, addend: 0x0, symName: '__ZN4core6option15Option$LT$T$GT$6insert17h30e919c8eafd99e1E', symObjAddr: 0x5014, symBinAddr: 0x2FD34, symSize: 0xAC }
  - { offset: 0xC9C9D, size: 0x8, addend: 0x0, symName: '__ZN4core6option15Option$LT$T$GT$6insert17h3fac8379e6f5b131E', symObjAddr: 0x50C0, symBinAddr: 0x2FDE0, symSize: 0xAC }
  - { offset: 0xC9D9F, size: 0x8, addend: 0x0, symName: '__ZN4core6option15Option$LT$T$GT$6insert17h42e6e758f3548d5fE', symObjAddr: 0x516C, symBinAddr: 0x2FE8C, symSize: 0xAC }
  - { offset: 0xC9EAE, size: 0x8, addend: 0x0, symName: '__ZN4core6option15Option$LT$T$GT$6insert17h467c59dde9aff316E', symObjAddr: 0x5218, symBinAddr: 0x2FF38, symSize: 0xAC }
  - { offset: 0xC9FB0, size: 0x8, addend: 0x0, symName: '__ZN4core6option15Option$LT$T$GT$6insert17h47e58f8544c056acE', symObjAddr: 0x52C4, symBinAddr: 0x2FFE4, symSize: 0xAC }
  - { offset: 0xCA0B2, size: 0x8, addend: 0x0, symName: '__ZN4core6option15Option$LT$T$GT$6insert17h4bb06e64268aba75E', symObjAddr: 0x5370, symBinAddr: 0x30090, symSize: 0xAC }
  - { offset: 0xCA1B4, size: 0x8, addend: 0x0, symName: '__ZN4core6option15Option$LT$T$GT$6insert17h51739bcd5d894d18E', symObjAddr: 0x541C, symBinAddr: 0x3013C, symSize: 0xAC }
  - { offset: 0xCA2B6, size: 0x8, addend: 0x0, symName: '__ZN4core6option15Option$LT$T$GT$6insert17h576f8e1841b2a2dbE', symObjAddr: 0x54C8, symBinAddr: 0x301E8, symSize: 0xAC }
  - { offset: 0xCA3B8, size: 0x8, addend: 0x0, symName: '__ZN4core6option15Option$LT$T$GT$6insert17h5bf68cf849767d98E', symObjAddr: 0x5574, symBinAddr: 0x30294, symSize: 0xAC }
  - { offset: 0xCA4BA, size: 0x8, addend: 0x0, symName: '__ZN4core6option15Option$LT$T$GT$6insert17h5bfa997979c80bb0E', symObjAddr: 0x5620, symBinAddr: 0x30340, symSize: 0xAC }
  - { offset: 0xCA5BC, size: 0x8, addend: 0x0, symName: '__ZN4core6option15Option$LT$T$GT$6insert17h60ec1ed1df6198caE', symObjAddr: 0x56CC, symBinAddr: 0x303EC, symSize: 0xAC }
  - { offset: 0xCA6BE, size: 0x8, addend: 0x0, symName: '__ZN4core6option15Option$LT$T$GT$6insert17h6344f33c941b444bE', symObjAddr: 0x5778, symBinAddr: 0x30498, symSize: 0xAC }
  - { offset: 0xCA7C0, size: 0x8, addend: 0x0, symName: '__ZN4core6option15Option$LT$T$GT$6insert17h65c1486f45d50879E', symObjAddr: 0x5824, symBinAddr: 0x30544, symSize: 0xAC }
  - { offset: 0xCA8C2, size: 0x8, addend: 0x0, symName: '__ZN4core6option15Option$LT$T$GT$6insert17h74355cc69c85b4acE', symObjAddr: 0x58D0, symBinAddr: 0x305F0, symSize: 0xAC }
  - { offset: 0xCA9C4, size: 0x8, addend: 0x0, symName: '__ZN4core6option15Option$LT$T$GT$6insert17h7b4c8600a20cb95eE', symObjAddr: 0x597C, symBinAddr: 0x3069C, symSize: 0xAC }
  - { offset: 0xCAAC6, size: 0x8, addend: 0x0, symName: '__ZN4core6option15Option$LT$T$GT$6insert17h836619410f912bd7E', symObjAddr: 0x5A28, symBinAddr: 0x30748, symSize: 0xAC }
  - { offset: 0xCABC8, size: 0x8, addend: 0x0, symName: '__ZN4core6option15Option$LT$T$GT$6insert17h8411280d97dbaa2dE', symObjAddr: 0x5AD4, symBinAddr: 0x307F4, symSize: 0xAC }
  - { offset: 0xCACCA, size: 0x8, addend: 0x0, symName: '__ZN4core6option15Option$LT$T$GT$6insert17h88583176fcb5a986E', symObjAddr: 0x5B80, symBinAddr: 0x308A0, symSize: 0xAC }
  - { offset: 0xCADCC, size: 0x8, addend: 0x0, symName: '__ZN4core6option15Option$LT$T$GT$6insert17h8894bd020e7a1be6E', symObjAddr: 0x5C2C, symBinAddr: 0x3094C, symSize: 0xAC }
  - { offset: 0xCAF99, size: 0x8, addend: 0x0, symName: '__ZN4core6option15Option$LT$T$GT$6insert17h8bf95828cbc1f485E', symObjAddr: 0x5CD8, symBinAddr: 0x309F8, symSize: 0xAC }
  - { offset: 0xCB09B, size: 0x8, addend: 0x0, symName: '__ZN4core6option15Option$LT$T$GT$6insert17h93079adfcde355f6E', symObjAddr: 0x5D84, symBinAddr: 0x30AA4, symSize: 0xAC }
  - { offset: 0xCB19D, size: 0x8, addend: 0x0, symName: '__ZN4core6option15Option$LT$T$GT$6insert17h985b5ee56c92deb1E', symObjAddr: 0x5E30, symBinAddr: 0x30B50, symSize: 0xAC }
  - { offset: 0xCB29F, size: 0x8, addend: 0x0, symName: '__ZN4core6option15Option$LT$T$GT$6insert17h98f062f59221e04cE', symObjAddr: 0x5EDC, symBinAddr: 0x30BFC, symSize: 0xAC }
  - { offset: 0xCB3A1, size: 0x8, addend: 0x0, symName: '__ZN4core6option15Option$LT$T$GT$6insert17h9bb848c1462f484eE', symObjAddr: 0x5F88, symBinAddr: 0x30CA8, symSize: 0xAC }
  - { offset: 0xCB4A3, size: 0x8, addend: 0x0, symName: '__ZN4core6option15Option$LT$T$GT$6insert17h9d678492ae68b42dE', symObjAddr: 0x6034, symBinAddr: 0x30D54, symSize: 0xAC }
  - { offset: 0xCB5A5, size: 0x8, addend: 0x0, symName: '__ZN4core6option15Option$LT$T$GT$6insert17ha200ae69820e962bE', symObjAddr: 0x60E0, symBinAddr: 0x30E00, symSize: 0xAC }
  - { offset: 0xCB6A7, size: 0x8, addend: 0x0, symName: '__ZN4core6option15Option$LT$T$GT$6insert17ha30088579cadab7bE', symObjAddr: 0x618C, symBinAddr: 0x30EAC, symSize: 0xAC }
  - { offset: 0xCB7A9, size: 0x8, addend: 0x0, symName: '__ZN4core6option15Option$LT$T$GT$6insert17ha6f99cadc91ca0bcE', symObjAddr: 0x6238, symBinAddr: 0x30F58, symSize: 0xAC }
  - { offset: 0xCB8AB, size: 0x8, addend: 0x0, symName: '__ZN4core6option15Option$LT$T$GT$6insert17hb017a619ec56cc19E', symObjAddr: 0x62E4, symBinAddr: 0x31004, symSize: 0xAC }
  - { offset: 0xCB9AD, size: 0x8, addend: 0x0, symName: '__ZN4core6option15Option$LT$T$GT$6insert17hb01c44676e79b819E', symObjAddr: 0x6390, symBinAddr: 0x310B0, symSize: 0xAC }
  - { offset: 0xCBAAF, size: 0x8, addend: 0x0, symName: '__ZN4core6option15Option$LT$T$GT$6insert17hb0d4d018d43991f3E', symObjAddr: 0x643C, symBinAddr: 0x3115C, symSize: 0xAC }
  - { offset: 0xCBBB1, size: 0x8, addend: 0x0, symName: '__ZN4core6option15Option$LT$T$GT$6insert17hb1911fe6d957f453E', symObjAddr: 0x64E8, symBinAddr: 0x31208, symSize: 0xAC }
  - { offset: 0xCBCB3, size: 0x8, addend: 0x0, symName: '__ZN4core6option15Option$LT$T$GT$6insert17hb508455fb73a54d7E', symObjAddr: 0x6594, symBinAddr: 0x312B4, symSize: 0xAC }
  - { offset: 0xCBDB5, size: 0x8, addend: 0x0, symName: '__ZN4core6option15Option$LT$T$GT$6insert17hbf7025fc8a5cc1d0E', symObjAddr: 0x6640, symBinAddr: 0x31360, symSize: 0xAC }
  - { offset: 0xCBEB7, size: 0x8, addend: 0x0, symName: '__ZN4core6option15Option$LT$T$GT$6insert17hca93ab2ed1cb0b62E', symObjAddr: 0x66EC, symBinAddr: 0x3140C, symSize: 0xAC }
  - { offset: 0xCBFB9, size: 0x8, addend: 0x0, symName: '__ZN4core6option15Option$LT$T$GT$6insert17hcbe616bcdfd6ab78E', symObjAddr: 0x6798, symBinAddr: 0x314B8, symSize: 0xAC }
  - { offset: 0xCC0BB, size: 0x8, addend: 0x0, symName: '__ZN4core6option15Option$LT$T$GT$6insert17hcd033bc153a298f7E', symObjAddr: 0x6844, symBinAddr: 0x31564, symSize: 0xAC }
  - { offset: 0xCC1BD, size: 0x8, addend: 0x0, symName: '__ZN4core6option15Option$LT$T$GT$6insert17hd281b8b6f8918664E', symObjAddr: 0x68F0, symBinAddr: 0x31610, symSize: 0xAC }
  - { offset: 0xCC2BF, size: 0x8, addend: 0x0, symName: '__ZN4core6option15Option$LT$T$GT$6insert17hdfc45062b0d59249E', symObjAddr: 0x699C, symBinAddr: 0x316BC, symSize: 0xAC }
  - { offset: 0xCC3C1, size: 0x8, addend: 0x0, symName: '__ZN4core6option15Option$LT$T$GT$6insert17he1637e0a61968a63E', symObjAddr: 0x6A48, symBinAddr: 0x31768, symSize: 0xAC }
  - { offset: 0xCC4C3, size: 0x8, addend: 0x0, symName: '__ZN4core6option15Option$LT$T$GT$6insert17heaf57e03510b521aE', symObjAddr: 0x6AF4, symBinAddr: 0x31814, symSize: 0xAC }
  - { offset: 0xCC5C5, size: 0x8, addend: 0x0, symName: '__ZN4core6option15Option$LT$T$GT$6insert17hf3c001bd96ad3fa3E', symObjAddr: 0x6BA0, symBinAddr: 0x318C0, symSize: 0xAC }
  - { offset: 0xCC6C7, size: 0x8, addend: 0x0, symName: '__ZN4core6option15Option$LT$T$GT$6insert17hf9e28c32d21a34dcE', symObjAddr: 0x6C4C, symBinAddr: 0x3196C, symSize: 0xAC }
  - { offset: 0xCC7C9, size: 0x8, addend: 0x0, symName: '__ZN4core6option15Option$LT$T$GT$6insert17hfefa0daec0235376E', symObjAddr: 0x6CF8, symBinAddr: 0x31A18, symSize: 0xAC }
  - { offset: 0xCC884, size: 0x8, addend: 0x0, symName: '__ZN4core6option15Option$LT$T$GT$7is_none17h5be448797d202d58E', symObjAddr: 0x6DA4, symBinAddr: 0x31AC4, symSize: 0x28 }
  - { offset: 0xCC8CE, size: 0x8, addend: 0x0, symName: '__ZN4core6option15Option$LT$T$GT$7is_some17h1665b326ce01f869E', symObjAddr: 0x6DCC, symBinAddr: 0x31AEC, symSize: 0x28 }
  - { offset: 0xCC907, size: 0x8, addend: 0x0, symName: '__ZN4core6option15Option$LT$T$GT$7is_some17h23e670e443712486E', symObjAddr: 0x6DF4, symBinAddr: 0x31B14, symSize: 0x28 }
  - { offset: 0xCC94D, size: 0x8, addend: 0x0, symName: '__ZN4core6option15Option$LT$T$GT$7or_else17h75f214967adf1c2fE', symObjAddr: 0x6E1C, symBinAddr: 0x31B3C, symSize: 0xDC }
  - { offset: 0xCC9BD, size: 0x8, addend: 0x0, symName: '__ZN4core6option15Option$LT$T$GT$7replace17h6676a39699667232E', symObjAddr: 0x6EF8, symBinAddr: 0x31C18, symSize: 0x30 }
  - { offset: 0xCCA16, size: 0x8, addend: 0x0, symName: '__ZN4core6option15Option$LT$T$GT$8and_then17h19b5790ee2fdf7d4E', symObjAddr: 0x6F28, symBinAddr: 0x31C48, symSize: 0x5C }
  - { offset: 0xCCA81, size: 0x8, addend: 0x0, symName: '__ZN4core6option15Option$LT$T$GT$8and_then17h33b23d0ef81ea445E', symObjAddr: 0x6F84, symBinAddr: 0x31CA4, symSize: 0x54 }
  - { offset: 0xCCAEC, size: 0x8, addend: 0x0, symName: '__ZN4core6option15Option$LT$T$GT$8and_then17h43354d717830a23eE', symObjAddr: 0x6FD8, symBinAddr: 0x31CF8, symSize: 0x5C }
  - { offset: 0xCCB57, size: 0x8, addend: 0x0, symName: '__ZN4core6option15Option$LT$T$GT$8and_then17h4eb97a687baafadaE', symObjAddr: 0x7034, symBinAddr: 0x31D54, symSize: 0x58 }
  - { offset: 0xCCBC2, size: 0x8, addend: 0x0, symName: '__ZN4core6option15Option$LT$T$GT$8and_then17h7b7173145505af26E', symObjAddr: 0x708C, symBinAddr: 0x31DAC, symSize: 0x50 }
  - { offset: 0xCCC2D, size: 0x8, addend: 0x0, symName: '__ZN4core6option15Option$LT$T$GT$8and_then17h8861cd8ec5497c6dE', symObjAddr: 0x70DC, symBinAddr: 0x31DFC, symSize: 0x5C }
  - { offset: 0xCCC98, size: 0x8, addend: 0x0, symName: '__ZN4core6option15Option$LT$T$GT$8and_then17ha1555febfa54b60bE', symObjAddr: 0x7138, symBinAddr: 0x31E58, symSize: 0x50 }
  - { offset: 0xCCD03, size: 0x8, addend: 0x0, symName: '__ZN4core6option15Option$LT$T$GT$8and_then17ha3fc216aea33514fE', symObjAddr: 0x7188, symBinAddr: 0x31EA8, symSize: 0x5C }
